
prueba2.elf:     file format elf32-littlenios2
prueba2.elf
architecture: nios2:r1, flags 0x00000112:
EXEC_P, HAS_SYMS, D_PAGED
start address 0x04020230

Program Header:
    LOAD off    0x00001000 vaddr 0x04020000 paddr 0x04020000 align 2**12
         filesz 0x00000020 memsz 0x00000020 flags r-x
    LOAD off    0x00001020 vaddr 0x04020020 paddr 0x04020020 align 2**12
         filesz 0x00012588 memsz 0x00012588 flags r-x
    LOAD off    0x00014000 vaddr 0x00000000 paddr 0x040325a8 align 2**12
         filesz 0x00001e1c memsz 0x00001fc0 flags rw-

Sections:
Idx Name          Size      VMA       LMA       File off  Algn
  0 .entry        00000020  04020000  04020000  00001000  2**5
                  CONTENTS, ALLOC, LOAD, READONLY, CODE
  1 .exceptions   00000210  04020020  04020020  00001020  2**2
                  CONTENTS, ALLOC, LOAD, READONLY, CODE
  2 .text         00012378  04020230  04020230  00001230  2**2
                  CONTENTS, ALLOC, LOAD, READONLY, CODE
  3 .rodata       0000032c  00000000  040325a8  00014000  2**2
                  CONTENTS, ALLOC, LOAD, READONLY, DATA
  4 .rwdata       00001af0  0000032c  040328d4  0001432c  2**2
                  CONTENTS, ALLOC, LOAD, DATA, SMALL_DATA
  5 .bss          000001a4  00001e1c  040343c4  00015e1c  2**2
                  ALLOC, SMALL_DATA
  6 .SDRAM        00000000  00001fc0  00001fc0  00015e1c  2**0
                  CONTENTS
  7 .SRAM2        00000000  040343c4  040343c4  00015e1c  2**0
                  CONTENTS
  8 .comment      00000046  00000000  00000000  00015e1c  2**0
                  CONTENTS, READONLY
  9 .debug_aranges 00001068  00000000  00000000  00015e68  2**3
                  CONTENTS, READONLY, DEBUGGING
 10 .debug_info   0002517a  00000000  00000000  00016ed0  2**0
                  CONTENTS, READONLY, DEBUGGING
 11 .debug_abbrev 00009c59  00000000  00000000  0003c04a  2**0
                  CONTENTS, READONLY, DEBUGGING
 12 .debug_line   0000c644  00000000  00000000  00045ca3  2**0
                  CONTENTS, READONLY, DEBUGGING
 13 .debug_frame  00002494  00000000  00000000  000522e8  2**2
                  CONTENTS, READONLY, DEBUGGING
 14 .debug_str    00003fdd  00000000  00000000  0005477c  2**0
                  CONTENTS, READONLY, DEBUGGING
 15 .debug_loc    0001a885  00000000  00000000  00058759  2**0
                  CONTENTS, READONLY, DEBUGGING
 16 .debug_alt_sim_info 00000040  00000000  00000000  00072fe0  2**2
                  CONTENTS, READONLY, DEBUGGING
 17 .debug_ranges 00001d88  00000000  00000000  00073020  2**3
                  CONTENTS, READONLY, DEBUGGING
 18 .thread_model 00000003  00000000  00000000  0007825a  2**0
                  CONTENTS, READONLY
 19 .cpu          0000000b  00000000  00000000  0007825d  2**0
                  CONTENTS, READONLY
 20 .qsys         00000001  00000000  00000000  00078268  2**0
                  CONTENTS, READONLY
 21 .simulation_enabled 00000001  00000000  00000000  00078269  2**0
                  CONTENTS, READONLY
 22 .stderr_dev   00000009  00000000  00000000  0007826a  2**0
                  CONTENTS, READONLY
 23 .stdin_dev    00000009  00000000  00000000  00078273  2**0
                  CONTENTS, READONLY
 24 .stdout_dev   00000009  00000000  00000000  0007827c  2**0
                  CONTENTS, READONLY
 25 .sopc_system_name 00000007  00000000  00000000  00078285  2**0
                  CONTENTS, READONLY
 26 .quartus_project_dir 00000037  00000000  00000000  0007828c  2**0
                  CONTENTS, READONLY
 27 .jdi          0000745b  00000000  00000000  000782c3  2**0
                  CONTENTS, READONLY
 28 .sopcinfo     00080af4  00000000  00000000  0007f71e  2**0
                  CONTENTS, READONLY
SYMBOL TABLE:
04020000 l    d  .entry	00000000 .entry
04020020 l    d  .exceptions	00000000 .exceptions
04020230 l    d  .text	00000000 .text
00000000 l    d  .rodata	00000000 .rodata
0000032c l    d  .rwdata	00000000 .rwdata
00001e1c l    d  .bss	00000000 .bss
00001fc0 l    d  .SDRAM	00000000 .SDRAM
040343c4 l    d  .SRAM2	00000000 .SRAM2
00000000 l    d  .comment	00000000 .comment
00000000 l    d  .debug_aranges	00000000 .debug_aranges
00000000 l    d  .debug_info	00000000 .debug_info
00000000 l    d  .debug_abbrev	00000000 .debug_abbrev
00000000 l    d  .debug_line	00000000 .debug_line
00000000 l    d  .debug_frame	00000000 .debug_frame
00000000 l    d  .debug_str	00000000 .debug_str
00000000 l    d  .debug_loc	00000000 .debug_loc
00000000 l    d  .debug_alt_sim_info	00000000 .debug_alt_sim_info
00000000 l    d  .debug_ranges	00000000 .debug_ranges
00000000 l    df *ABS*	00000000 ../prueba2_bsp//obj/HAL/src/crt0.o
04020268 l       .text	00000000 alt_after_alt_main
00000000 l    df *ABS*	00000000 alt_irq_handler.c
00000000 l    df *ABS*	00000000 alt_instruction_exception_entry.c
00000000 l    df *ABS*	00000000 hello_world.c
00001e5c l     O .bss	00000014 output.3492
00001e70 l     O .bss	00000028 output.3512
00001e1c l     O .bss	00000004 output.3539
00001e20 l     O .bss	00000004 output1.3543
00000000 l    df *ABS*	00000000 w_exp.c
00000000 l    df *ABS*	00000000 e_exp.c
00000028 l     O .rodata	00000010 halF
00000018 l     O .rodata	00000010 ln2HI
00000008 l     O .rodata	00000010 ln2LO
00000000 l    df *ABS*	00000000 s_finite.c
00000000 l    df *ABS*	00000000 s_lib_ver.c
00000000 l    df *ABS*	00000000 s_matherr.c
00000000 l    df *ABS*	00000000 addsf3.c
00000000 l    df *ABS*	00000000 divsf3.c
00000000 l    df *ABS*	00000000 mulsf3.c
00000000 l    df *ABS*	00000000 subsf3.c
00000000 l    df *ABS*	00000000 floatunsisf.c
00000000 l    df *ABS*	00000000 adddf3.c
00000000 l    df *ABS*	00000000 divdf3.c
00000000 l    df *ABS*	00000000 gedf2.c
00000000 l    df *ABS*	00000000 ledf2.c
00000000 l    df *ABS*	00000000 muldf3.c
00000000 l    df *ABS*	00000000 subdf3.c
00000000 l    df *ABS*	00000000 fixdfsi.c
00000000 l    df *ABS*	00000000 floatsidf.c
00000000 l    df *ABS*	00000000 extendsfdf2.c
00000000 l    df *ABS*	00000000 truncdfsf2.c
00000000 l    df *ABS*	00000000 libgcc2.c
00000000 l    df *ABS*	00000000 lib2-divmod.c
00000000 l    df *ABS*	00000000 lib2-mul.c
00000000 l    df *ABS*	00000000 libgcc2.c
00000000 l    df *ABS*	00000000 errno.c
00000000 l    df *ABS*	00000000 impure.c
0000032c l     O .rwdata	00000424 impure_data
00000000 l    df *ABS*	00000000 printf.c
00000000 l    df *ABS*	00000000 vfprintf.c
0000017e l     O .rodata	00000010 zeroes.4404
04027ac8 l     F .text	000000bc __sbprintf
0000018e l     O .rodata	00000010 blanks.4403
00000000 l    df *ABS*	00000000 wsetup.c
00000000 l    df *ABS*	00000000 dtoa.c
04027cd8 l     F .text	00000228 quorem
00000000 l    df *ABS*	00000000 fflush.c
00000000 l    df *ABS*	00000000 findfp.c
04029830 l     F .text	00000008 __fp_unlock
04029844 l     F .text	0000019c __sinit.part.1
040299e0 l     F .text	00000008 __fp_lock
00000000 l    df *ABS*	00000000 mallocr.c
00000000 l    df *ABS*	00000000 fwalk.c
00000000 l    df *ABS*	00000000 locale.c
00000770 l     O .rwdata	00000020 lc_ctype_charset
00000750 l     O .rwdata	00000020 lc_message_charset
00000790 l     O .rwdata	00000038 lconv
00000000 l    df *ABS*	00000000 makebuf.c
00000000 l    df *ABS*	00000000 mallocr.c
00000000 l    df *ABS*	00000000 memchr.c
00000000 l    df *ABS*	00000000 memcpy.c
00000000 l    df *ABS*	00000000 memset.c
00000000 l    df *ABS*	00000000 mprec.c
000001bc l     O .rodata	0000000c p05.2768
00000000 l    df *ABS*	00000000 s_fpclassify.c
00000000 l    df *ABS*	00000000 sbrkr.c
00000000 l    df *ABS*	00000000 stdio.c
00000000 l    df *ABS*	00000000 strcmp.c
00000000 l    df *ABS*	00000000 strlen.c
00000000 l    df *ABS*	00000000 vfprintf.c
0402c3c4 l     F .text	000000fc __sprint_r.part.0
000002e0 l     O .rodata	00000010 zeroes.4349
0402da00 l     F .text	000000bc __sbprintf
000002f0 l     O .rodata	00000010 blanks.4348
00000000 l    df *ABS*	00000000 writer.c
00000000 l    df *ABS*	00000000 closer.c
00000000 l    df *ABS*	00000000 mallocr.c
00000000 l    df *ABS*	00000000 fclose.c
00000000 l    df *ABS*	00000000 fputwc.c
00000000 l    df *ABS*	00000000 fstatr.c
00000000 l    df *ABS*	00000000 fvwrite.c
00000000 l    df *ABS*	00000000 int_errno.c
00000000 l    df *ABS*	00000000 isattyr.c
00000000 l    df *ABS*	00000000 lseekr.c
00000000 l    df *ABS*	00000000 memmove.c
00000000 l    df *ABS*	00000000 readr.c
00000000 l    df *ABS*	00000000 mallocr.c
00000000 l    df *ABS*	00000000 wbuf.c
00000000 l    df *ABS*	00000000 wcrtomb.c
00000000 l    df *ABS*	00000000 wctomb_r.c
00000000 l    df *ABS*	00000000 libgcc2.c
00000000 l    df *ABS*	00000000 libgcc2.c
00000000 l    df *ABS*	00000000 eqdf2.c
00000000 l    df *ABS*	00000000 floatunsidf.c
00000000 l    df *ABS*	00000000 alt_close.c
0402fc80 l     F .text	0000003c alt_get_errno
00000000 l    df *ABS*	00000000 alt_dev.c
0402fd94 l     F .text	0000002c alt_dev_null_write
00000000 l    df *ABS*	00000000 alt_errno.c
00000000 l    df *ABS*	00000000 alt_fstat.c
0402fdc0 l     F .text	0000003c alt_get_errno
00000000 l    df *ABS*	00000000 alt_isatty.c
0402feb4 l     F .text	0000003c alt_get_errno
00000000 l    df *ABS*	00000000 alt_load.c
0402ff9c l     F .text	00000068 alt_load_section
00000000 l    df *ABS*	00000000 alt_lseek.c
04030088 l     F .text	0000003c alt_get_errno
00000000 l    df *ABS*	00000000 alt_main.c
00000000 l    df *ABS*	00000000 alt_malloc_lock.c
00000000 l    df *ABS*	00000000 alt_read.c
04030264 l     F .text	0000003c alt_get_errno
00000000 l    df *ABS*	00000000 alt_release_fd.c
00000000 l    df *ABS*	00000000 alt_sbrk.c
00001e0c l     O .rwdata	00000004 heap_end
00000000 l    df *ABS*	00000000 alt_usleep.c
00000000 l    df *ABS*	00000000 alt_write.c
04030508 l     F .text	0000003c alt_get_errno
00000000 l    df *ABS*	00000000 alt_sys_init.c
04030644 l     F .text	00000034 alt_dev_reg
00000d78 l     O .rwdata	00001060 JTAG_UART
00000000 l    df *ABS*	00000000 altera_avalon_jtag_uart_fd.c
00000000 l    df *ABS*	00000000 altera_avalon_jtag_uart_init.c
04030934 l     F .text	0000020c altera_avalon_jtag_uart_irq
04030b40 l     F .text	000000a0 altera_avalon_jtag_uart_timeout
00000000 l    df *ABS*	00000000 altera_avalon_jtag_uart_ioctl.c
00000000 l    df *ABS*	00000000 altera_avalon_jtag_uart_read.c
00000000 l    df *ABS*	00000000 altera_avalon_jtag_uart_write.c
00000000 l    df *ABS*	00000000 altera_avalon_timer_sc.c
04031178 l     F .text	00000078 alt_avalon_timer_sc_irq
00000000 l    df *ABS*	00000000 alt_alarm_start.c
00000000 l    df *ABS*	00000000 alt_busy_sleep.c
00000000 l    df *ABS*	00000000 alt_dcache_flush_all.c
00000000 l    df *ABS*	00000000 alt_dev_llist_insert.c
04031510 l     F .text	0000003c alt_get_errno
00000000 l    df *ABS*	00000000 alt_do_ctors.c
00000000 l    df *ABS*	00000000 alt_do_dtors.c
00000000 l    df *ABS*	00000000 alt_icache_flush_all.c
00000000 l    df *ABS*	00000000 alt_iic.c
00000000 l    df *ABS*	00000000 alt_iic_isr_register.c
00000000 l    df *ABS*	00000000 alt_io_redirect.c
04031970 l     F .text	000000e4 alt_open_fd
00000000 l    df *ABS*	00000000 alt_irq_vars.c
00000000 l    df *ABS*	00000000 alt_open.c
04031ad0 l     F .text	0000003c alt_get_errno
04031b0c l     F .text	000000ec alt_file_locked
00000000 l    df *ABS*	00000000 alt_tick.c
00000000 l    df *ABS*	00000000 altera_nios2_gen2_irq.c
00000000 l    df *ABS*	00000000 alt_find_dev.c
00000000 l    df *ABS*	00000000 alt_find_file.c
00000000 l    df *ABS*	00000000 alt_get_fd.c
00000000 l    df *ABS*	00000000 atexit.c
00000000 l    df *ABS*	00000000 exit.c
00000000 l    df *ABS*	00000000 memcmp.c
00000000 l    df *ABS*	00000000 __atexit.c
00000000 l    df *ABS*	00000000 __call_atexit.c
00000000 l    df *ABS*	00000000 alt_exit.c
00001e58 g     O .bss	00000004 alt_instruction_exception_handler
04020000 g       *ABS*	00000000 __alt_mem_SRAM2
0402bed4 g     F .text	00000074 _mprec_log10
0402bfc0 g     F .text	0000008c __any_on
0402e47c g     F .text	00000054 _isatty_r
000001c8 g     O .rodata	00000028 __mprec_tinytens
040301a0 g     F .text	0000007c alt_main
00001ec0 g     O .bss	00000100 alt_irq
0402e4d0 g     F .text	00000060 _lseek_r
040328d4 g       *ABS*	00000000 __flash_rwdata_start
0402fb50 g     F .text	00000088 .hidden __eqdf2
00001fc0 g       *ABS*	00000000 __alt_heap_start
04025794 g     F .text	0000003c printf
0402eda8 g     F .text	0000009c _wcrtomb_r
0402c1ec g     F .text	0000005c __sseek
04029b90 g     F .text	00000010 __sinit
0402ec50 g     F .text	00000140 __swbuf_r
0402a19c g     F .text	0000007c _setlocale_r
040299e8 g     F .text	00000078 __sfmoreglue
04030240 g     F .text	00000024 __malloc_unlock
04021d08 g     F .text	00000440 .hidden __divsf3
0402e530 g     F .text	0000015c memmove
04029b78 g     F .text	00000018 _cleanup
0402af94 g     F .text	000000a8 _Balloc
04023dc8 g     F .text	000000dc .hidden __gtdf2
04031ef8 g     F .text	00000024 altera_nios2_gen2_irq_init
04025754 g     F .text	00000010 __errno
040204ec g     F .text	000000ec tansig
04020000 g     F .entry	0000000c __reset
04020020 g       *ABS*	00000000 __flash_exceptions_start
040205d8 g     F .text	00000734 layer1
0402df58 g     F .text	0000005c _fstat_r
00001e3c g     O .bss	00000004 errno
0402c168 g     F .text	00000008 __seofread
00001e44 g     O .bss	00000004 alt_argv
00009dd8 g       *ABS*	00000000 _gp
040304d8 g     F .text	00000030 usleep
04022578 g     F .text	000004e4 .hidden __subsf3
00000bf8 g     O .rwdata	00000180 alt_fd_list
04031f1c g     F .text	00000090 alt_find_dev
0402ad24 g     F .text	00000148 memcpy
04029838 g     F .text	0000000c _cleanup_r
04025180 g     F .text	000000dc .hidden __floatsidf
04031a54 g     F .text	0000007c alt_io_redirect
04023ea4 g     F .text	000000f4 .hidden __ltdf2
040325a8 g       *ABS*	00000000 __DTOR_END__
04032178 g     F .text	0000009c alt_exception_cause_generated_bad_addr
0402c04c g     F .text	00000074 __fpclassifyd
0402be30 g     F .text	000000a4 __ratio
0402d9e4 g     F .text	0000001c __vfiprintf_internal
04030d38 g     F .text	0000021c altera_avalon_jtag_uart_read
04025764 g     F .text	00000030 _printf_r
04025670 g     F .text	00000064 .hidden __udivsi3
0402fef0 g     F .text	000000ac isatty
00000218 g     O .rodata	000000c8 __mprec_tens
0402a218 g     F .text	0000000c __locale_charset
00001e38 g     O .bss	00000004 __malloc_top_pad
00001de4 g     O .rwdata	00000004 __mb_cur_max
0402a248 g     F .text	0000000c _localeconv_r
0402dfb4 g     F .text	000004c8 __sfvwrite_r
0402b3c8 g     F .text	0000003c __i2b
0402c0c0 g     F .text	00000054 _sbrk_r
0402e68c g     F .text	00000060 _read_r
00001e04 g     O .rwdata	00000004 alt_max_fd
0402dc4c g     F .text	000000f0 _fclose_r
04029800 g     F .text	00000030 fflush
00001e34 g     O .bss	00000004 __malloc_max_sbrked_mem
0402525c g     F .text	00000110 .hidden __extendsfdf2
04022b4c g     F .text	000008ac .hidden __adddf3
0402bbd8 g     F .text	0000010c __b2d
0402f58c g     F .text	000005c4 .hidden __umoddi3
040300c4 g     F .text	000000dc lseek
00001dd8 g     O .rwdata	00000004 __fdlib_version
00001ddc g     O .rwdata	00000004 _global_impure_ptr
0402e6ec g     F .text	00000564 _realloc_r
00001fc0 g       *ABS*	00000000 __bss_end
04031880 g     F .text	000000f0 alt_iic_isr_register
04021334 g     F .text	000004e8 __ieee754_exp
04031df0 g     F .text	00000108 alt_tick
0402ef90 g     F .text	000005fc .hidden __udivdi3
0402deb4 g     F .text	00000024 _fputwc_r
000001f0 g     O .rodata	00000028 __mprec_bigtens
0402b1ac g     F .text	00000104 __s2b
0402fbd8 g     F .text	000000a8 .hidden __floatunsidf
0402b918 g     F .text	00000060 __mcmp
04029bb0 g     F .text	00000018 __fp_lock_all
04031834 g     F .text	0000004c alt_ic_irq_enabled
04031d54 g     F .text	0000009c alt_alarm_stop
00001e4c g     O .bss	00000004 alt_irq_active
040200fc g     F .exceptions	000000d4 alt_irq_handler
00000bd0 g     O .rwdata	00000028 alt_dev_null
040314f0 g     F .text	00000020 alt_dcache_flush_all
0402b2b0 g     F .text	00000068 __hi0bits
04025100 g     F .text	00000080 .hidden __fixdfsi
04020d0c g     F .text	000000c0 DotProduct1
00001e1c g       *ABS*	00000000 __ram_rwdata_end
00001dfc g     O .rwdata	00000008 alt_dev_list
04030544 g     F .text	00000100 write
0000032c g       *ABS*	00000000 __ram_rodata_end
0402fdfc g     F .text	000000b8 fstat
00000000 g       *ABS*	00000000 __alt_mem_SDRAM
04023ea4 g     F .text	000000f4 .hidden __ledf2
0402b690 g     F .text	00000140 __pow5mult
0402c4d8 g     F .text	0000150c ___vfiprintf_internal_r
00001e2c g     O .bss	00000004 __nlocale_changed
040256d4 g     F .text	00000058 .hidden __umodsi3
00001fc0 g       *ABS*	00000000 end
04030874 g     F .text	000000c0 altera_avalon_jtag_uart_init
040201d0 g     F .exceptions	00000060 alt_instruction_exception_entry
040325a8 g       *ABS*	00000000 __CTOR_LIST__
04000000 g       *ABS*	00000000 __alt_stack_pointer
040311f0 g     F .text	0000007c alt_avalon_timer_sc_init
04025514 g     F .text	00000064 .hidden __clzsi2
04030f54 g     F .text	00000224 altera_avalon_jtag_uart_write
04029ba0 g     F .text	00000004 __sfp_lock_acquire
0402ac40 g     F .text	000000e4 memchr
040257d0 g     F .text	000022dc ___vfprintf_internal_r
04029d04 g     F .text	00000310 _free_r
0402a224 g     F .text	00000010 __locale_mb_cur_max
040323f4 g     F .text	00000180 __call_exitprocs
00001e28 g     O .bss	00000004 __mlocale_changed
00001de8 g     O .rwdata	00000004 __malloc_sbrk_base
04020230 g     F .text	0000003c _start
00001e50 g     O .bss	00000004 _alt_tick_rate
0402b7d0 g     F .text	00000148 __lshift
00001e54 g     O .bss	00000004 _alt_nticks
040302a0 g     F .text	00000104 read
040306b0 g     F .text	00000060 alt_sys_init
040322dc g     F .text	00000118 __register_exitproc
0402b404 g     F .text	0000028c __multiply
04030be0 g     F .text	00000068 altera_avalon_jtag_uart_close
0402572c g     F .text	00000028 .hidden __mulsi3
0000032c g       *ABS*	00000000 __ram_rwdata_start
00000000 g       *ABS*	00000000 __ram_rodata_start
00001e98 g     O .bss	00000028 __malloc_current_mallinfo
0402bce4 g     F .text	0000014c __d2b
04030710 g     F .text	00000060 altera_avalon_jtag_uart_read_fd
040320b4 g     F .text	000000c4 alt_get_fd
04031398 g     F .text	00000158 alt_busy_sleep
0402db1c g     F .text	00000054 _close_r
04032260 g     F .text	0000007c memcmp
040307d0 g     F .text	00000050 altera_avalon_jtag_uart_close_fd
00001fc0 g       *ABS*	00000000 __alt_stack_base
04030820 g     F .text	00000054 altera_avalon_jtag_uart_ioctl_fd
04027b84 g     F .text	00000154 __swsetup_r
040233f8 g     F .text	000009d0 .hidden __divdf3
04029a60 g     F .text	00000118 __sfp
0402bf48 g     F .text	00000078 __copybits
000007c8 g     O .rwdata	00000408 __malloc_av_
04029bac g     F .text	00000004 __sinit_lock_release
04023f98 g     F .text	0000086c .hidden __muldf3
0402c114 g     F .text	00000054 __sread
04031fac g     F .text	00000108 alt_find_file
0403154c g     F .text	000000a4 alt_dev_llist_insert
0403021c g     F .text	00000024 __malloc_lock
04030428 g     F .text	000000b0 sbrk
040297a4 g     F .text	0000005c _fflush_r
0402db70 g     F .text	000000dc _calloc_r
00001e1c g       *ABS*	00000000 __bss_start
0402ae6c g     F .text	00000128 memset
04020fb8 g     F .text	000001ec main
00001e48 g     O .bss	00000004 alt_envp
00001e30 g     O .bss	00000004 __malloc_max_total_mem
04030770 g     F .text	00000060 altera_avalon_jtag_uart_write_fd
0402ed90 g     F .text	00000018 __swbuf
0402c248 g     F .text	00000008 __sclose
04021838 g     F .text	00000008 matherr
04000000 g       *ABS*	00000000 __alt_heap_limit
0402dd3c g     F .text	00000014 fclose
0402536c g     F .text	000001a8 .hidden __truncdfsf2
04027f00 g     F .text	00001688 _dtoa_r
0402a434 g     F .text	0000080c _malloc_r
0402ef04 g     F .text	00000030 __ascii_wctomb
00001e08 g     O .rwdata	00000004 alt_errno
0402a014 g     F .text	000000c4 _fwalk
040211a4 g     F .text	00000190 exp
04025578 g     F .text	00000084 .hidden __divsi3
04029be0 g     F .text	00000124 _malloc_trim_r
040325a8 g       *ABS*	00000000 __CTOR_END__
04022148 g     F .text	00000430 .hidden __mulsf3
0402181c g     F .text	0000001c finite
0402c250 g     F .text	000000dc strcmp
040325a8 g       *ABS*	00000000 __flash_rodata_start
0402042c g     F .text	000000c0 DotProduct
040325a8 g       *ABS*	00000000 __DTOR_LIST__
0402fb50 g     F .text	00000088 .hidden __nedf2
04030678 g     F .text	00000038 alt_irq_init
040303a4 g     F .text	00000084 alt_release_fd
00000038 g     O .rodata	00000100 .hidden __clz_tab
00001e24 g     O .bss	00000004 _PathLocale
04032214 g     F .text	00000014 atexit
0402dabc g     F .text	00000060 _write_r
0402a254 g     F .text	00000018 setlocale
00001de0 g     O .rwdata	00000004 _impure_ptr
00001e40 g     O .bss	00000004 alt_argc
04029588 g     F .text	0000021c __sflush_r
04031650 g     F .text	00000060 _do_dtors
0402a240 g     F .text	00000008 __locale_cjk_lang
04020020 g       .exceptions	00000000 alt_irq_entry
0402bb74 g     F .text	00000064 __ulp
04029bc8 g     F .text	00000018 __fp_unlock_all
00001df4 g     O .rwdata	00000008 alt_fs_list
04020020 g       *ABS*	00000000 __ram_exceptions_start
0402a26c g     F .text	0000000c localeconv
040316d0 g     F .text	00000050 alt_ic_isr_register
00001e1c g       *ABS*	00000000 _edata
04020ea4 g     F .text	00000114 layer2
00001fc0 g       *ABS*	00000000 _end
0402dd50 g     F .text	00000164 __fputwc
04020230 g       *ABS*	00000000 __ram_exceptions_end
04030c48 g     F .text	000000f0 altera_avalon_jtag_uart_ioctl
040317a8 g     F .text	0000008c alt_ic_irq_disable
0402c170 g     F .text	0000007c __swrite
00001dec g     O .rwdata	00000004 __malloc_trim_threshold
0402a234 g     F .text	0000000c __locale_msgcharset
04032228 g     F .text	00000038 exit
0402a0d8 g     F .text	000000c4 _fwalk_reent
04022a5c g     F .text	000000f0 .hidden __floatunsisf
0402b978 g     F .text	000001fc __mdiff
040255fc g     F .text	00000074 .hidden __modsi3
04000000 g       *ABS*	00000000 __alt_data_end
04020020 g     F .exceptions	00000000 alt_exception
04029ba4 g     F .text	00000004 __sfp_lock_release
04032574 g     F .text	00000034 _exit
0403126c g     F .text	0000012c alt_alarm_start
0402a278 g     F .text	000001bc __smakebuf_r
0402c32c g     F .text	00000098 strlen
04031bf8 g     F .text	0000015c open
04023dc8 g     F .text	000000dc .hidden __gedf2
00001df0 g     O .rwdata	00000004 __wctomb
0402c4c0 g     F .text	00000018 __sprint_r
040316b0 g     F .text	00000020 alt_icache_flush_all
0402026c g     F .text	000001c0 mapminmax
00001e10 g     O .rwdata	00000004 alt_priority_mask
04031720 g     F .text	00000088 alt_ic_irq_enable
04027aac g     F .text	0000001c __vfprintf_internal
0402ef34 g     F .text	0000005c _wctomb_r
04024804 g     F .text	000008fc .hidden __subdf3
0402b318 g     F .text	000000b0 __lo0bits
04020dcc g     F .text	000000d8 mapminreverse
00001e14 g     O .rwdata	00000008 alt_alarm_list
040315f0 g     F .text	00000060 _do_ctors
0402ee44 g     F .text	000000c0 wcrtomb
0402fcbc g     F .text	000000d8 close
04021840 g     F .text	000004c8 .hidden __addsf3
04030004 g     F .text	00000084 alt_load
0402ded8 g     F .text	00000080 fputwc
04029ba8 g     F .text	00000004 __sinit_lock_acquire
0402b064 g     F .text	00000148 __multadd
0402b03c g     F .text	00000028 _Bfree



Disassembly of section .entry:

04020000 <__reset>:
 4020000:	004100b4 	movhi	at,1026
 4020004:	08408c14 	ori	at,at,560
 4020008:	0800683a 	jmp	at
	...

Disassembly of section .exceptions:

04020020 <alt_exception>:
 4020020:	deffed04 	addi	sp,sp,-76
 4020024:	dfc00015 	stw	ra,0(sp)
 4020028:	d8400215 	stw	at,8(sp)
 402002c:	d8800315 	stw	r2,12(sp)
 4020030:	d8c00415 	stw	r3,16(sp)
 4020034:	d9000515 	stw	r4,20(sp)
 4020038:	d9400615 	stw	r5,24(sp)
 402003c:	d9800715 	stw	r6,28(sp)
 4020040:	d9c00815 	stw	r7,32(sp)
 4020044:	000b307a 	rdctl	r5,estatus
 4020048:	da000915 	stw	r8,36(sp)
 402004c:	da400a15 	stw	r9,40(sp)
 4020050:	da800b15 	stw	r10,44(sp)
 4020054:	dac00c15 	stw	r11,48(sp)
 4020058:	db000d15 	stw	r12,52(sp)
 402005c:	db400e15 	stw	r13,56(sp)
 4020060:	db800f15 	stw	r14,60(sp)
 4020064:	dbc01015 	stw	r15,64(sp)
 4020068:	d9401115 	stw	r5,68(sp)
 402006c:	ebffff04 	addi	r15,ea,-4
 4020070:	dbc01215 	stw	r15,72(sp)
 4020074:	0009313a 	rdctl	r4,ipending
 4020078:	2880004c 	andi	r2,r5,1
 402007c:	10000326 	beq	r2,zero,402008c <alt_exception+0x6c>
 4020080:	20000226 	beq	r4,zero,402008c <alt_exception+0x6c>
 4020084:	40200fc0 	call	40200fc <alt_irq_handler>
 4020088:	00000706 	br	40200a8 <alt_exception+0x88>
 402008c:	df401215 	stw	ea,72(sp)
 4020090:	e8bfff17 	ldw	r2,-4(ea)
 4020094:	e93fff04 	addi	r4,ea,-4
 4020098:	40201d00 	call	40201d0 <alt_instruction_exception_entry>
 402009c:	1000021e 	bne	r2,zero,40200a8 <alt_exception+0x88>
 40200a0:	ebffff04 	addi	r15,ea,-4
 40200a4:	dbc01215 	stw	r15,72(sp)
 40200a8:	d9401117 	ldw	r5,68(sp)
 40200ac:	df401217 	ldw	ea,72(sp)
 40200b0:	dfc00017 	ldw	ra,0(sp)
 40200b4:	2801707a 	wrctl	estatus,r5
 40200b8:	d8400217 	ldw	at,8(sp)
 40200bc:	d8800317 	ldw	r2,12(sp)
 40200c0:	d8c00417 	ldw	r3,16(sp)
 40200c4:	d9000517 	ldw	r4,20(sp)
 40200c8:	d9400617 	ldw	r5,24(sp)
 40200cc:	d9800717 	ldw	r6,28(sp)
 40200d0:	d9c00817 	ldw	r7,32(sp)
 40200d4:	da000917 	ldw	r8,36(sp)
 40200d8:	da400a17 	ldw	r9,40(sp)
 40200dc:	da800b17 	ldw	r10,44(sp)
 40200e0:	dac00c17 	ldw	r11,48(sp)
 40200e4:	db000d17 	ldw	r12,52(sp)
 40200e8:	db400e17 	ldw	r13,56(sp)
 40200ec:	db800f17 	ldw	r14,60(sp)
 40200f0:	dbc01017 	ldw	r15,64(sp)
 40200f4:	dec01304 	addi	sp,sp,76
 40200f8:	ef80083a 	eret

040200fc <alt_irq_handler>:
 40200fc:	defff904 	addi	sp,sp,-28
 4020100:	dfc00615 	stw	ra,24(sp)
 4020104:	df000515 	stw	fp,20(sp)
 4020108:	df000504 	addi	fp,sp,20
 402010c:	0001883a 	nop
 4020110:	0005313a 	rdctl	r2,ipending
 4020114:	e0bffe15 	stw	r2,-8(fp)
 4020118:	e0bffe17 	ldw	r2,-8(fp)
 402011c:	e0bffb15 	stw	r2,-20(fp)
 4020120:	e03ffd15 	stw	zero,-12(fp)
 4020124:	00800044 	movi	r2,1
 4020128:	e0bffc15 	stw	r2,-16(fp)
 402012c:	e0fffb17 	ldw	r3,-20(fp)
 4020130:	e0bffc17 	ldw	r2,-16(fp)
 4020134:	1884703a 	and	r2,r3,r2
 4020138:	10001426 	beq	r2,zero,402018c <alt_irq_handler+0x90>
 402013c:	00800034 	movhi	r2,0
 4020140:	1087b004 	addi	r2,r2,7872
 4020144:	e0fffd17 	ldw	r3,-12(fp)
 4020148:	180690fa 	slli	r3,r3,3
 402014c:	10c5883a 	add	r2,r2,r3
 4020150:	10c00017 	ldw	r3,0(r2)
 4020154:	00800034 	movhi	r2,0
 4020158:	1087b004 	addi	r2,r2,7872
 402015c:	e13ffd17 	ldw	r4,-12(fp)
 4020160:	200890fa 	slli	r4,r4,3
 4020164:	1105883a 	add	r2,r2,r4
 4020168:	10800104 	addi	r2,r2,4
 402016c:	10800017 	ldw	r2,0(r2)
 4020170:	1009883a 	mov	r4,r2
 4020174:	183ee83a 	callr	r3
 4020178:	0001883a 	nop
 402017c:	0005313a 	rdctl	r2,ipending
 4020180:	e0bfff15 	stw	r2,-4(fp)
 4020184:	e0bfff17 	ldw	r2,-4(fp)
 4020188:	00000706 	br	40201a8 <alt_irq_handler+0xac>
 402018c:	e0bffc17 	ldw	r2,-16(fp)
 4020190:	1085883a 	add	r2,r2,r2
 4020194:	e0bffc15 	stw	r2,-16(fp)
 4020198:	e0bffd17 	ldw	r2,-12(fp)
 402019c:	10800044 	addi	r2,r2,1
 40201a0:	e0bffd15 	stw	r2,-12(fp)
 40201a4:	003fe106 	br	402012c <__flash_rwdata_start+0xfffed858>
 40201a8:	e0bffb15 	stw	r2,-20(fp)
 40201ac:	e0bffb17 	ldw	r2,-20(fp)
 40201b0:	103fdb1e 	bne	r2,zero,4020120 <__flash_rwdata_start+0xfffed84c>
 40201b4:	0001883a 	nop
 40201b8:	0001883a 	nop
 40201bc:	e037883a 	mov	sp,fp
 40201c0:	dfc00117 	ldw	ra,4(sp)
 40201c4:	df000017 	ldw	fp,0(sp)
 40201c8:	dec00204 	addi	sp,sp,8
 40201cc:	f800283a 	ret

040201d0 <alt_instruction_exception_entry>:
 40201d0:	defffb04 	addi	sp,sp,-20
 40201d4:	dfc00415 	stw	ra,16(sp)
 40201d8:	df000315 	stw	fp,12(sp)
 40201dc:	df000304 	addi	fp,sp,12
 40201e0:	e13fff15 	stw	r4,-4(fp)
 40201e4:	00bfffc4 	movi	r2,-1
 40201e8:	e0bffd15 	stw	r2,-12(fp)
 40201ec:	e03ffe15 	stw	zero,-8(fp)
 40201f0:	d0a02017 	ldw	r2,-32640(gp)
 40201f4:	10000726 	beq	r2,zero,4020214 <alt_instruction_exception_entry+0x44>
 40201f8:	d0a02017 	ldw	r2,-32640(gp)
 40201fc:	e0fffd17 	ldw	r3,-12(fp)
 4020200:	e1bffe17 	ldw	r6,-8(fp)
 4020204:	e17fff17 	ldw	r5,-4(fp)
 4020208:	1809883a 	mov	r4,r3
 402020c:	103ee83a 	callr	r2
 4020210:	00000206 	br	402021c <alt_instruction_exception_entry+0x4c>
 4020214:	003da03a 	break	0
 4020218:	0005883a 	mov	r2,zero
 402021c:	e037883a 	mov	sp,fp
 4020220:	dfc00117 	ldw	ra,4(sp)
 4020224:	df000017 	ldw	fp,0(sp)
 4020228:	dec00204 	addi	sp,sp,8
 402022c:	f800283a 	ret

Disassembly of section .text:

04020230 <_start>:
 4020230:	06c10034 	movhi	sp,1024
 4020234:	dec00014 	ori	sp,sp,0
 4020238:	06800034 	movhi	gp,0
 402023c:	d6a77614 	ori	gp,gp,40408
 4020240:	00800034 	movhi	r2,0
 4020244:	10878714 	ori	r2,r2,7708
 4020248:	00c00034 	movhi	r3,0
 402024c:	18c7f014 	ori	r3,r3,8128
 4020250:	10c00326 	beq	r2,r3,4020260 <_start+0x30>
 4020254:	10000015 	stw	zero,0(r2)
 4020258:	10800104 	addi	r2,r2,4
 402025c:	10fffd36 	bltu	r2,r3,4020254 <__flash_rwdata_start+0xfffed980>
 4020260:	40300040 	call	4030004 <alt_load>
 4020264:	40301a00 	call	40301a0 <alt_main>

04020268 <alt_after_alt_main>:
 4020268:	003fff06 	br	4020268 <__flash_rwdata_start+0xfffed994>

0402026c <mapminmax>:

/*=======  niNN vector de entrada =========*/
//float niNN[]={0.1,79,19,24,44}; //'Tiempo','Luz','Humedad Aire','Temperatura','Humedad Suelo'
/*=======  funcion mapminmax =========*/
float *mapminmax(float input[])
{
 402026c:	deffef04 	addi	sp,sp,-68
 4020270:	dfc01015 	stw	ra,64(sp)
 4020274:	df000f15 	stw	fp,60(sp)
 4020278:	dc000e15 	stw	r16,56(sp)
 402027c:	df000f04 	addi	fp,sp,60
 4020280:	e13ffe15 	stw	r4,-8(fp)
    int i;
    float ymax=1,ymin=-1;
 4020284:	008fe034 	movhi	r2,16256
 4020288:	e0bff215 	stw	r2,-56(fp)
 402028c:	00afe034 	movhi	r2,49024
 4020290:	e0bff315 	stw	r2,-52(fp)
    float xmin[]={0.1,51,13,24,32};
 4020294:	008f7374 	movhi	r2,15821
 4020298:	10b33344 	addi	r2,r2,-13107
 402029c:	e0bff415 	stw	r2,-48(fp)
 40202a0:	00909334 	movhi	r2,16972
 40202a4:	e0bff515 	stw	r2,-44(fp)
 40202a8:	00905434 	movhi	r2,16720
 40202ac:	e0bff615 	stw	r2,-40(fp)
 40202b0:	00907034 	movhi	r2,16832
 40202b4:	e0bff715 	stw	r2,-36(fp)
 40202b8:	00908034 	movhi	r2,16896
 40202bc:	e0bff815 	stw	r2,-32(fp)
    float xmax[]={37.25,83,19,30,52};
 40202c0:	00908574 	movhi	r2,16917
 40202c4:	e0bff915 	stw	r2,-28(fp)
 40202c8:	0090a9b4 	movhi	r2,17062
 40202cc:	e0bffa15 	stw	r2,-24(fp)
 40202d0:	00906634 	movhi	r2,16792
 40202d4:	e0bffb15 	stw	r2,-20(fp)
 40202d8:	00907c34 	movhi	r2,16880
 40202dc:	e0bffc15 	stw	r2,-16(fp)
 40202e0:	00909434 	movhi	r2,16976
 40202e4:	e0bffd15 	stw	r2,-12(fp)
    static float output[5];				//<--------------segun el numero de entradas
    for(i=0;i<5;i++)					//<--------------segun el numero de entradas
 40202e8:	e03ff115 	stw	zero,-60(fp)
 40202ec:	00004406 	br	4020400 <mapminmax+0x194>
    {
        output[i]=((ymax-ymin)/(xmax[i]-xmin[i]))*(input[i]-xmin[i])+ymin;
 40202f0:	e17ff317 	ldw	r5,-52(fp)
 40202f4:	e13ff217 	ldw	r4,-56(fp)
 40202f8:	40225780 	call	4022578 <__subsf3>
 40202fc:	1007883a 	mov	r3,r2
 4020300:	1821883a 	mov	r16,r3
 4020304:	e0bff117 	ldw	r2,-60(fp)
 4020308:	1085883a 	add	r2,r2,r2
 402030c:	1085883a 	add	r2,r2,r2
 4020310:	e0fff104 	addi	r3,fp,-60
 4020314:	1885883a 	add	r2,r3,r2
 4020318:	10800804 	addi	r2,r2,32
 402031c:	10c00017 	ldw	r3,0(r2)
 4020320:	e0bff117 	ldw	r2,-60(fp)
 4020324:	1085883a 	add	r2,r2,r2
 4020328:	1085883a 	add	r2,r2,r2
 402032c:	e13ff104 	addi	r4,fp,-60
 4020330:	2085883a 	add	r2,r4,r2
 4020334:	10800304 	addi	r2,r2,12
 4020338:	11000017 	ldw	r4,0(r2)
 402033c:	200b883a 	mov	r5,r4
 4020340:	1809883a 	mov	r4,r3
 4020344:	40225780 	call	4022578 <__subsf3>
 4020348:	1007883a 	mov	r3,r2
 402034c:	1805883a 	mov	r2,r3
 4020350:	100b883a 	mov	r5,r2
 4020354:	8009883a 	mov	r4,r16
 4020358:	4021d080 	call	4021d08 <__divsf3>
 402035c:	1007883a 	mov	r3,r2
 4020360:	1821883a 	mov	r16,r3
 4020364:	e0bff117 	ldw	r2,-60(fp)
 4020368:	1085883a 	add	r2,r2,r2
 402036c:	1085883a 	add	r2,r2,r2
 4020370:	1007883a 	mov	r3,r2
 4020374:	e0bffe17 	ldw	r2,-8(fp)
 4020378:	10c5883a 	add	r2,r2,r3
 402037c:	10c00017 	ldw	r3,0(r2)
 4020380:	e0bff117 	ldw	r2,-60(fp)
 4020384:	1085883a 	add	r2,r2,r2
 4020388:	1085883a 	add	r2,r2,r2
 402038c:	e13ff104 	addi	r4,fp,-60
 4020390:	2085883a 	add	r2,r4,r2
 4020394:	10800304 	addi	r2,r2,12
 4020398:	11000017 	ldw	r4,0(r2)
 402039c:	200b883a 	mov	r5,r4
 40203a0:	1809883a 	mov	r4,r3
 40203a4:	40225780 	call	4022578 <__subsf3>
 40203a8:	1007883a 	mov	r3,r2
 40203ac:	1805883a 	mov	r2,r3
 40203b0:	100b883a 	mov	r5,r2
 40203b4:	8009883a 	mov	r4,r16
 40203b8:	40221480 	call	4022148 <__mulsf3>
 40203bc:	1007883a 	mov	r3,r2
 40203c0:	1805883a 	mov	r2,r3
 40203c4:	e17ff317 	ldw	r5,-52(fp)
 40203c8:	1009883a 	mov	r4,r2
 40203cc:	40218400 	call	4021840 <__addsf3>
 40203d0:	1007883a 	mov	r3,r2
 40203d4:	1809883a 	mov	r4,r3
 40203d8:	00800034 	movhi	r2,0
 40203dc:	10879704 	addi	r2,r2,7772
 40203e0:	e0fff117 	ldw	r3,-60(fp)
 40203e4:	18c7883a 	add	r3,r3,r3
 40203e8:	18c7883a 	add	r3,r3,r3
 40203ec:	10c5883a 	add	r2,r2,r3
 40203f0:	11000015 	stw	r4,0(r2)
    int i;
    float ymax=1,ymin=-1;
    float xmin[]={0.1,51,13,24,32};
    float xmax[]={37.25,83,19,30,52};
    static float output[5];				//<--------------segun el numero de entradas
    for(i=0;i<5;i++)					//<--------------segun el numero de entradas
 40203f4:	e0bff117 	ldw	r2,-60(fp)
 40203f8:	10800044 	addi	r2,r2,1
 40203fc:	e0bff115 	stw	r2,-60(fp)
 4020400:	e0bff117 	ldw	r2,-60(fp)
 4020404:	10800150 	cmplti	r2,r2,5
 4020408:	103fb91e 	bne	r2,zero,40202f0 <__flash_rwdata_start+0xfffeda1c>
    {
        output[i]=((ymax-ymin)/(xmax[i]-xmin[i]))*(input[i]-xmin[i])+ymin;
    }
    return output;
 402040c:	00800034 	movhi	r2,0
 4020410:	10879704 	addi	r2,r2,7772
}
 4020414:	e6ffff04 	addi	sp,fp,-4
 4020418:	dfc00217 	ldw	ra,8(sp)
 402041c:	df000117 	ldw	fp,4(sp)
 4020420:	dc000017 	ldw	r16,0(sp)
 4020424:	dec00304 	addi	sp,sp,12
 4020428:	f800283a 	ret

0402042c <DotProduct>:
/*=======  producto punto =========*/
float DotProduct(float input1[], float input2[])
{
 402042c:	defffa04 	addi	sp,sp,-24
 4020430:	dfc00515 	stw	ra,20(sp)
 4020434:	df000415 	stw	fp,16(sp)
 4020438:	df000404 	addi	fp,sp,16
 402043c:	e13ffe15 	stw	r4,-8(fp)
 4020440:	e17fff15 	stw	r5,-4(fp)
    int i=0;
 4020444:	e03ffc15 	stw	zero,-16(fp)
    float acumulador=0;
 4020448:	e03ffd15 	stw	zero,-12(fp)
    for (i=0;i!=5;i++)					//<--------------segun el numero de entradas
 402044c:	e03ffc15 	stw	zero,-16(fp)
 4020450:	00001b06 	br	40204c0 <DotProduct+0x94>
    {
        acumulador=input1[i]*input2[i]+acumulador;
 4020454:	e0bffc17 	ldw	r2,-16(fp)
 4020458:	1085883a 	add	r2,r2,r2
 402045c:	1085883a 	add	r2,r2,r2
 4020460:	1007883a 	mov	r3,r2
 4020464:	e0bffe17 	ldw	r2,-8(fp)
 4020468:	10c5883a 	add	r2,r2,r3
 402046c:	10c00017 	ldw	r3,0(r2)
 4020470:	e0bffc17 	ldw	r2,-16(fp)
 4020474:	1085883a 	add	r2,r2,r2
 4020478:	1085883a 	add	r2,r2,r2
 402047c:	1009883a 	mov	r4,r2
 4020480:	e0bfff17 	ldw	r2,-4(fp)
 4020484:	1105883a 	add	r2,r2,r4
 4020488:	11000017 	ldw	r4,0(r2)
 402048c:	200b883a 	mov	r5,r4
 4020490:	1809883a 	mov	r4,r3
 4020494:	40221480 	call	4022148 <__mulsf3>
 4020498:	1007883a 	mov	r3,r2
 402049c:	1805883a 	mov	r2,r3
 40204a0:	100b883a 	mov	r5,r2
 40204a4:	e13ffd17 	ldw	r4,-12(fp)
 40204a8:	40218400 	call	4021840 <__addsf3>
 40204ac:	1007883a 	mov	r3,r2
 40204b0:	e0fffd15 	stw	r3,-12(fp)
/*=======  producto punto =========*/
float DotProduct(float input1[], float input2[])
{
    int i=0;
    float acumulador=0;
    for (i=0;i!=5;i++)					//<--------------segun el numero de entradas
 40204b4:	e0bffc17 	ldw	r2,-16(fp)
 40204b8:	10800044 	addi	r2,r2,1
 40204bc:	e0bffc15 	stw	r2,-16(fp)
 40204c0:	e0bffc17 	ldw	r2,-16(fp)
 40204c4:	10800158 	cmpnei	r2,r2,5
 40204c8:	103fe21e 	bne	r2,zero,4020454 <__flash_rwdata_start+0xfffedb80>
    {
        acumulador=input1[i]*input2[i]+acumulador;
    }
    return acumulador;
 40204cc:	e0bffd17 	ldw	r2,-12(fp)
 40204d0:	1007883a 	mov	r3,r2
}
 40204d4:	1805883a 	mov	r2,r3
 40204d8:	e037883a 	mov	sp,fp
 40204dc:	dfc00117 	ldw	ra,4(sp)
 40204e0:	df000017 	ldw	fp,0(sp)
 40204e4:	dec00204 	addi	sp,sp,8
 40204e8:	f800283a 	ret

040204ec <tansig>:
/*=======  tangente sigmoidal =========*/
float tansig(float input1)
{
 40204ec:	defffc04 	addi	sp,sp,-16
 40204f0:	dfc00315 	stw	ra,12(sp)
 40204f4:	df000215 	stw	fp,8(sp)
 40204f8:	df000204 	addi	fp,sp,8
 40204fc:	e13fff15 	stw	r4,-4(fp)
    float tansigout=(2/(1+exp(-2*input1))-1);
 4020500:	01700034 	movhi	r5,49152
 4020504:	e13fff17 	ldw	r4,-4(fp)
 4020508:	40221480 	call	4022148 <__mulsf3>
 402050c:	1007883a 	mov	r3,r2
 4020510:	1805883a 	mov	r2,r3
 4020514:	1009883a 	mov	r4,r2
 4020518:	402525c0 	call	402525c <__extendsfdf2>
 402051c:	100b883a 	mov	r5,r2
 4020520:	180d883a 	mov	r6,r3
 4020524:	2809883a 	mov	r4,r5
 4020528:	300b883a 	mov	r5,r6
 402052c:	40211a40 	call	40211a4 <exp>
 4020530:	1011883a 	mov	r8,r2
 4020534:	1813883a 	mov	r9,r3
 4020538:	000d883a 	mov	r6,zero
 402053c:	01cffc34 	movhi	r7,16368
 4020540:	4009883a 	mov	r4,r8
 4020544:	480b883a 	mov	r5,r9
 4020548:	4022b4c0 	call	4022b4c <__adddf3>
 402054c:	1009883a 	mov	r4,r2
 4020550:	180b883a 	mov	r5,r3
 4020554:	2005883a 	mov	r2,r4
 4020558:	2807883a 	mov	r3,r5
 402055c:	100d883a 	mov	r6,r2
 4020560:	180f883a 	mov	r7,r3
 4020564:	0009883a 	mov	r4,zero
 4020568:	01500034 	movhi	r5,16384
 402056c:	40233f80 	call	40233f8 <__divdf3>
 4020570:	1009883a 	mov	r4,r2
 4020574:	180b883a 	mov	r5,r3
 4020578:	2005883a 	mov	r2,r4
 402057c:	2807883a 	mov	r3,r5
 4020580:	000d883a 	mov	r6,zero
 4020584:	01cffc34 	movhi	r7,16368
 4020588:	1009883a 	mov	r4,r2
 402058c:	180b883a 	mov	r5,r3
 4020590:	40248040 	call	4024804 <__subdf3>
 4020594:	1009883a 	mov	r4,r2
 4020598:	180b883a 	mov	r5,r3
 402059c:	2005883a 	mov	r2,r4
 40205a0:	2807883a 	mov	r3,r5
 40205a4:	1009883a 	mov	r4,r2
 40205a8:	180b883a 	mov	r5,r3
 40205ac:	402536c0 	call	402536c <__truncdfsf2>
 40205b0:	1007883a 	mov	r3,r2
 40205b4:	e0fffe15 	stw	r3,-8(fp)
    return tansigout;
 40205b8:	e0bffe17 	ldw	r2,-8(fp)
 40205bc:	1007883a 	mov	r3,r2
}
 40205c0:	1805883a 	mov	r2,r3
 40205c4:	e037883a 	mov	sp,fp
 40205c8:	dfc00117 	ldw	ra,4(sp)
 40205cc:	df000017 	ldw	fp,0(sp)
 40205d0:	dec00204 	addi	sp,sp,8
 40205d4:	f800283a 	ret

040205d8 <layer1>:
/*=======  hidden layer =========*/
float *layer1(float *input1)
{
 40205d8:	deffcb04 	addi	sp,sp,-212
 40205dc:	dfc03415 	stw	ra,208(sp)
 40205e0:	df003315 	stw	fp,204(sp)
 40205e4:	df003304 	addi	fp,sp,204
 40205e8:	e13fff15 	stw	r4,-4(fp)
    float static output[10];
    float w0[]={1.3429602595496334949,2.4640878938717167834,0.39495514316749774641,-0.90117191988743661213,0.35359643307197702322};
 40205ec:	008feb34 	movhi	r2,16300
 40205f0:	10b987c4 	addi	r2,r2,-6625
 40205f4:	e0bfcd15 	stw	r2,-204(fp)
 40205f8:	009007b4 	movhi	r2,16414
 40205fc:	10ace784 	addi	r2,r2,-19554
 4020600:	e0bfce15 	stw	r2,-200(fp)
 4020604:	008fb2b4 	movhi	r2,16074
 4020608:	108de3c4 	addi	r2,r2,14223
 402060c:	e0bfcf15 	stw	r2,-196(fp)
 4020610:	00afd9f4 	movhi	r2,48999
 4020614:	10accd04 	addi	r2,r2,-19660
 4020618:	e0bfd015 	stw	r2,-192(fp)
 402061c:	008fad74 	movhi	r2,16053
 4020620:	1082a5c4 	addi	r2,r2,2711
 4020624:	e0bfd115 	stw	r2,-188(fp)
    float w1[]={-0.14279906762815919308,0.0192623757156580519,1.3314326924030628341,-0.36561632290867240869,2.0084035978000920331};
 4020628:	00af84b4 	movhi	r2,48658
 402062c:	108e7ac4 	addi	r2,r2,14827
 4020630:	e0bfd215 	stw	r2,-184(fp)
 4020634:	008f27b4 	movhi	r2,15518
 4020638:	10b30844 	addi	r2,r2,-13279
 402063c:	e0bfd315 	stw	r2,-180(fp)
 4020640:	008feab4 	movhi	r2,16298
 4020644:	109b18c4 	addi	r2,r2,27747
 4020648:	e0bfd415 	stw	r2,-176(fp)
 402064c:	00afaef4 	movhi	r2,48827
 4020650:	108c8404 	addi	r2,r2,12816
 4020654:	e0bfd515 	stw	r2,-172(fp)
 4020658:	00900074 	movhi	r2,16385
 402065c:	10a26bc4 	addi	r2,r2,-30289
 4020660:	e0bfd615 	stw	r2,-168(fp)
    float w2[]={0.18357336175625121877,0.060428929650758966829,0.22068017973731751669,3.0804514569410166303,9.466910330002907159};
 4020664:	008f8f34 	movhi	r2,15932
 4020668:	10beaa04 	addi	r2,r2,-1368
 402066c:	e0bfd715 	stw	r2,-164(fp)
 4020670:	008f5e34 	movhi	r2,15736
 4020674:	10a114c4 	addi	r2,r2,-31661
 4020678:	e0bfd815 	stw	r2,-160(fp)
 402067c:	008f98b4 	movhi	r2,15970
 4020680:	10be7f04 	addi	r2,r2,-1540
 4020684:	e0bfd915 	stw	r2,-156(fp)
 4020688:	00901174 	movhi	r2,16453
 402068c:	10898784 	addi	r2,r2,9758
 4020690:	e0bfda15 	stw	r2,-152(fp)
 4020694:	009045f4 	movhi	r2,16663
 4020698:	109e1dc4 	addi	r2,r2,30839
 402069c:	e0bfdb15 	stw	r2,-148(fp)
    float w3[]={-0.015179223569523961346,0.28388684242725181761,-0.21895403123318288308,-0.69117690190900471503,-1.1698240004933713188};
 40206a0:	00af1e74 	movhi	r2,48249
 40206a4:	10ac91c4 	addi	r2,r2,-19897
 40206a8:	e0bfdc15 	stw	r2,-144(fp)
 40206ac:	008fa474 	movhi	r2,16017
 40206b0:	10966784 	addi	r2,r2,22942
 40206b4:	e0bfdd15 	stw	r2,-140(fp)
 40206b8:	00af9834 	movhi	r2,48736
 40206bc:	108d5f04 	addi	r2,r2,13692
 40206c0:	e0bfde15 	stw	r2,-136(fp)
 40206c4:	00afcc74 	movhi	r2,48945
 40206c8:	10bc3e04 	addi	r2,r2,-3848
 40206cc:	e0bfdf15 	stw	r2,-132(fp)
 40206d0:	00afe5b4 	movhi	r2,49046
 40206d4:	10af32c4 	addi	r2,r2,-17205
 40206d8:	e0bfe015 	stw	r2,-128(fp)
    float w4[]={0.0010264224613505262829,0.54440001105331703446,0.073648048501351981443,-0.63879691824025319757,0.92666886806160542189};
 40206dc:	008ea1f4 	movhi	r2,14983
 40206e0:	10a24184 	addi	r2,r2,-30458
 40206e4:	e0bfe115 	stw	r2,-124(fp)
 40206e8:	008fc2f4 	movhi	r2,16139
 40206ec:	10977344 	addi	r2,r2,24013
 40206f0:	e0bfe215 	stw	r2,-120(fp)
 40206f4:	008f65f4 	movhi	r2,15767
 40206f8:	10b53284 	addi	r2,r2,-11062
 40206fc:	e0bfe315 	stw	r2,-116(fp)
 4020700:	00afc934 	movhi	r2,48932
 4020704:	10a20c84 	addi	r2,r2,-30670
 4020708:	e0bfe415 	stw	r2,-112(fp)
 402070c:	008fdb74 	movhi	r2,16237
 4020710:	108e8b04 	addi	r2,r2,14892
 4020714:	e0bfe515 	stw	r2,-108(fp)
    float w5[]={-0.19528955493481076067,1.087167432537815337,-0.0099078673019529807375,-0.81601545827073229677,0.76974069223677410445};
 4020718:	00af9234 	movhi	r2,48712
 402071c:	10be7f04 	addi	r2,r2,-1540
 4020720:	e0bfe615 	stw	r2,-104(fp)
 4020724:	008fe2f4 	movhi	r2,16267
 4020728:	108a1344 	addi	r2,r2,10317
 402072c:	e0bfe715 	stw	r2,-100(fp)
 4020730:	00af08b4 	movhi	r2,48162
 4020734:	10952704 	addi	r2,r2,21660
 4020738:	e0bfe815 	stw	r2,-96(fp)
 402073c:	00afd474 	movhi	r2,48977
 4020740:	10b99904 	addi	r2,r2,-6556
 4020744:	e0bfe915 	stw	r2,-92(fp)
 4020748:	008fd174 	movhi	r2,16197
 402074c:	10836e84 	addi	r2,r2,3514
 4020750:	e0bfea15 	stw	r2,-88(fp)
    float w6[]={-0.46424358683263189373,1.5828121341636918196,-0.23770329343757606866,-0.59499557786972323559,0.34097346878666395797};
 4020754:	00afbbb4 	movhi	r2,48878
 4020758:	10ac5584 	addi	r2,r2,-20138
 402075c:	e0bfeb15 	stw	r2,-84(fp)
 4020760:	008ff2f4 	movhi	r2,16331
 4020764:	10a665c4 	addi	r2,r2,-26217
 4020768:	e0bfec15 	stw	r2,-80(fp)
 402076c:	00af9cf4 	movhi	r2,48755
 4020770:	109a1f84 	addi	r2,r2,26750
 4020774:	e0bfed15 	stw	r2,-76(fp)
 4020778:	00afc634 	movhi	r2,48920
 402077c:	10946844 	addi	r2,r2,20897
 4020780:	e0bfee15 	stw	r2,-72(fp)
 4020784:	008fabf4 	movhi	r2,16047
 4020788:	10a504c4 	addi	r2,r2,-27629
 402078c:	e0bfef15 	stw	r2,-68(fp)
    float w7[]={-0.25392183768338449923,1.8622536681654058288,0.36391691036848561325,-0.55107714806946928032,-1.2116971352295800024};
 4020790:	00afa0b4 	movhi	r2,48770
 4020794:	108082c4 	addi	r2,r2,523
 4020798:	e0bff015 	stw	r2,-64(fp)
 402079c:	008ffbb4 	movhi	r2,16366
 40207a0:	10979504 	addi	r2,r2,24148
 40207a4:	e0bff115 	stw	r2,-60(fp)
 40207a8:	008faeb4 	movhi	r2,16058
 40207ac:	1094d444 	addi	r2,r2,21329
 40207b0:	e0bff215 	stw	r2,-56(fp)
 40207b4:	00afc374 	movhi	r2,48909
 40207b8:	1084d904 	addi	r2,r2,4964
 40207bc:	e0bff315 	stw	r2,-52(fp)
 40207c0:	00afe6f4 	movhi	r2,49051
 40207c4:	10863904 	addi	r2,r2,6372
 40207c8:	e0bff415 	stw	r2,-48(fp)
	float w8[]={0.38480075839248978342,0.04249926003823468329,0.8606378419757417797,0.12528405874563552924,-1.4101827894193001978};
 40207cc:	008fb174 	movhi	r2,16069
 40207d0:	108126c4 	addi	r2,r2,1179
 40207d4:	e0bff515 	stw	r2,-44(fp)
 40207d8:	008f4bb4 	movhi	r2,15662
 40207dc:	1084ed04 	addi	r2,r2,5044
 40207e0:	e0bff615 	stw	r2,-40(fp)
 40207e4:	008fd734 	movhi	r2,16220
 40207e8:	1094b0c4 	addi	r2,r2,21187
 40207ec:	e0bff715 	stw	r2,-36(fp)
 40207f0:	008f8034 	movhi	r2,15872
 40207f4:	10929dc4 	addi	r2,r2,19063
 40207f8:	e0bff815 	stw	r2,-32(fp)
 40207fc:	00afed74 	movhi	r2,49077
 4020800:	10a037c4 	addi	r2,r2,-32545
 4020804:	e0bff915 	stw	r2,-28(fp)
	float w9[]={1.4815409326756612263,-0.52300813580124350111,-1.0147384325846877662,1.1236057819930480584,-1.4055470392359856735};
 4020808:	008fefb4 	movhi	r2,16318
 402080c:	10a8c884 	addi	r2,r2,-23774
 4020810:	e0bffa15 	stw	r2,-24(fp)
 4020814:	00afc1b4 	movhi	r2,48902
 4020818:	10b8f704 	addi	r2,r2,-7204
 402081c:	e0bffb15 	stw	r2,-20(fp)
 4020820:	00afe0b4 	movhi	r2,49026
 4020824:	10b8bcc4 	addi	r2,r2,-7437
 4020828:	e0bffc15 	stw	r2,-16(fp)
 402082c:	008fe434 	movhi	r2,16272
 4020830:	10b49404 	addi	r2,r2,-11696
 4020834:	e0bffd15 	stw	r2,-12(fp)
 4020838:	00afed34 	movhi	r2,49076
 402083c:	10ba3dc4 	addi	r2,r2,-5897
 4020840:	e0bffe15 	stw	r2,-8(fp)
	output[0]=tansig(DotProduct(input1,w0)+(-3.2902816603893763059));
 4020844:	e17fcd04 	addi	r5,fp,-204
 4020848:	e13fff17 	ldw	r4,-4(fp)
 402084c:	402042c0 	call	402042c <DotProduct>
 4020850:	1007883a 	mov	r3,r2
 4020854:	1809883a 	mov	r4,r3
 4020858:	402525c0 	call	402525c <__extendsfdf2>
 402085c:	1011883a 	mov	r8,r2
 4020860:	1813883a 	mov	r9,r3
 4020864:	018c3c34 	movhi	r6,12528
 4020868:	31807c84 	addi	r6,r6,498
 402086c:	01d002b4 	movhi	r7,16394
 4020870:	39d49fc4 	addi	r7,r7,21119
 4020874:	4009883a 	mov	r4,r8
 4020878:	480b883a 	mov	r5,r9
 402087c:	40248040 	call	4024804 <__subdf3>
 4020880:	1009883a 	mov	r4,r2
 4020884:	180b883a 	mov	r5,r3
 4020888:	2005883a 	mov	r2,r4
 402088c:	2807883a 	mov	r3,r5
 4020890:	1009883a 	mov	r4,r2
 4020894:	180b883a 	mov	r5,r3
 4020898:	402536c0 	call	402536c <__truncdfsf2>
 402089c:	1007883a 	mov	r3,r2
 40208a0:	1809883a 	mov	r4,r3
 40208a4:	40204ec0 	call	40204ec <tansig>
 40208a8:	1007883a 	mov	r3,r2
 40208ac:	00800034 	movhi	r2,0
 40208b0:	10879c04 	addi	r2,r2,7792
 40208b4:	10c00015 	stw	r3,0(r2)
    output[1]=tansig(DotProduct(input1,w1)+(-1.0774370403746600378));
 40208b8:	e0bfd204 	addi	r2,fp,-184
 40208bc:	100b883a 	mov	r5,r2
 40208c0:	e13fff17 	ldw	r4,-4(fp)
 40208c4:	402042c0 	call	402042c <DotProduct>
 40208c8:	1007883a 	mov	r3,r2
 40208cc:	1809883a 	mov	r4,r3
 40208d0:	402525c0 	call	402525c <__extendsfdf2>
 40208d4:	1011883a 	mov	r8,r2
 40208d8:	1813883a 	mov	r9,r3
 40208dc:	01a7cff4 	movhi	r6,40767
 40208e0:	31a1fe44 	addi	r6,r6,-30727
 40208e4:	01cffc74 	movhi	r7,16369
 40208e8:	39cf4b84 	addi	r7,r7,15662
 40208ec:	4009883a 	mov	r4,r8
 40208f0:	480b883a 	mov	r5,r9
 40208f4:	40248040 	call	4024804 <__subdf3>
 40208f8:	1009883a 	mov	r4,r2
 40208fc:	180b883a 	mov	r5,r3
 4020900:	2005883a 	mov	r2,r4
 4020904:	2807883a 	mov	r3,r5
 4020908:	1009883a 	mov	r4,r2
 402090c:	180b883a 	mov	r5,r3
 4020910:	402536c0 	call	402536c <__truncdfsf2>
 4020914:	1007883a 	mov	r3,r2
 4020918:	1809883a 	mov	r4,r3
 402091c:	40204ec0 	call	40204ec <tansig>
 4020920:	1007883a 	mov	r3,r2
 4020924:	00800034 	movhi	r2,0
 4020928:	10879c04 	addi	r2,r2,7792
 402092c:	10c00115 	stw	r3,4(r2)
    output[2]=tansig(DotProduct(input1,w2)+(9.2813908302064689337));
 4020930:	e0bfd704 	addi	r2,fp,-164
 4020934:	100b883a 	mov	r5,r2
 4020938:	e13fff17 	ldw	r4,-4(fp)
 402093c:	402042c0 	call	402042c <DotProduct>
 4020940:	1007883a 	mov	r3,r2
 4020944:	1809883a 	mov	r4,r3
 4020948:	402525c0 	call	402525c <__extendsfdf2>
 402094c:	1011883a 	mov	r8,r2
 4020950:	1813883a 	mov	r9,r3
 4020954:	019d5eb4 	movhi	r6,30074
 4020958:	3190c704 	addi	r6,r6,17180
 402095c:	01d008f4 	movhi	r7,16419
 4020960:	39e40484 	addi	r7,r7,-28654
 4020964:	4009883a 	mov	r4,r8
 4020968:	480b883a 	mov	r5,r9
 402096c:	4022b4c0 	call	4022b4c <__adddf3>
 4020970:	1009883a 	mov	r4,r2
 4020974:	180b883a 	mov	r5,r3
 4020978:	2005883a 	mov	r2,r4
 402097c:	2807883a 	mov	r3,r5
 4020980:	1009883a 	mov	r4,r2
 4020984:	180b883a 	mov	r5,r3
 4020988:	402536c0 	call	402536c <__truncdfsf2>
 402098c:	1007883a 	mov	r3,r2
 4020990:	1809883a 	mov	r4,r3
 4020994:	40204ec0 	call	40204ec <tansig>
 4020998:	1007883a 	mov	r3,r2
 402099c:	00800034 	movhi	r2,0
 40209a0:	10879c04 	addi	r2,r2,7792
 40209a4:	10c00215 	stw	r3,8(r2)
    output[3]=tansig(DotProduct(input1,w3)+(-2.1012760240229342301));
 40209a8:	e0bfdc04 	addi	r2,fp,-144
 40209ac:	100b883a 	mov	r5,r2
 40209b0:	e13fff17 	ldw	r4,-4(fp)
 40209b4:	402042c0 	call	402042c <DotProduct>
 40209b8:	1007883a 	mov	r3,r2
 40209bc:	1809883a 	mov	r4,r3
 40209c0:	402525c0 	call	402525c <__extendsfdf2>
 40209c4:	1011883a 	mov	r8,r2
 40209c8:	1813883a 	mov	r9,r3
 40209cc:	01b37634 	movhi	r6,52696
 40209d0:	31984684 	addi	r6,r6,24858
 40209d4:	01d00074 	movhi	r7,16385
 40209d8:	39f3da44 	addi	r7,r7,-12439
 40209dc:	4009883a 	mov	r4,r8
 40209e0:	480b883a 	mov	r5,r9
 40209e4:	40248040 	call	4024804 <__subdf3>
 40209e8:	1009883a 	mov	r4,r2
 40209ec:	180b883a 	mov	r5,r3
 40209f0:	2005883a 	mov	r2,r4
 40209f4:	2807883a 	mov	r3,r5
 40209f8:	1009883a 	mov	r4,r2
 40209fc:	180b883a 	mov	r5,r3
 4020a00:	402536c0 	call	402536c <__truncdfsf2>
 4020a04:	1007883a 	mov	r3,r2
 4020a08:	1809883a 	mov	r4,r3
 4020a0c:	40204ec0 	call	40204ec <tansig>
 4020a10:	1007883a 	mov	r3,r2
 4020a14:	00800034 	movhi	r2,0
 4020a18:	10879c04 	addi	r2,r2,7792
 4020a1c:	10c00315 	stw	r3,12(r2)
    output[4]=tansig(DotProduct(input1,w4)+(0.5031622285530945593));
 4020a20:	e0bfe104 	addi	r2,fp,-124
 4020a24:	100b883a 	mov	r5,r2
 4020a28:	e13fff17 	ldw	r4,-4(fp)
 4020a2c:	402042c0 	call	402042c <DotProduct>
 4020a30:	1007883a 	mov	r3,r2
 4020a34:	1809883a 	mov	r4,r3
 4020a38:	402525c0 	call	402525c <__extendsfdf2>
 4020a3c:	1011883a 	mov	r8,r2
 4020a40:	1813883a 	mov	r9,r3
 4020a44:	01ab21f4 	movhi	r6,44167
 4020a48:	31be8084 	addi	r6,r6,-1534
 4020a4c:	01cff834 	movhi	r7,16352
 4020a50:	39c679c4 	addi	r7,r7,6631
 4020a54:	4009883a 	mov	r4,r8
 4020a58:	480b883a 	mov	r5,r9
 4020a5c:	4022b4c0 	call	4022b4c <__adddf3>
 4020a60:	1009883a 	mov	r4,r2
 4020a64:	180b883a 	mov	r5,r3
 4020a68:	2005883a 	mov	r2,r4
 4020a6c:	2807883a 	mov	r3,r5
 4020a70:	1009883a 	mov	r4,r2
 4020a74:	180b883a 	mov	r5,r3
 4020a78:	402536c0 	call	402536c <__truncdfsf2>
 4020a7c:	1007883a 	mov	r3,r2
 4020a80:	1809883a 	mov	r4,r3
 4020a84:	40204ec0 	call	40204ec <tansig>
 4020a88:	1007883a 	mov	r3,r2
 4020a8c:	00800034 	movhi	r2,0
 4020a90:	10879c04 	addi	r2,r2,7792
 4020a94:	10c00415 	stw	r3,16(r2)
    output[5]=tansig(DotProduct(input1,w5)+(0.5577989336033097878));
 4020a98:	e0bfe604 	addi	r2,fp,-104
 4020a9c:	100b883a 	mov	r5,r2
 4020aa0:	e13fff17 	ldw	r4,-4(fp)
 4020aa4:	402042c0 	call	402042c <DotProduct>
 4020aa8:	1007883a 	mov	r3,r2
 4020aac:	1809883a 	mov	r4,r3
 4020ab0:	402525c0 	call	402525c <__extendsfdf2>
 4020ab4:	1011883a 	mov	r8,r2
 4020ab8:	1813883a 	mov	r9,r3
 4020abc:	01898cb4 	movhi	r6,9778
 4020ac0:	318f2304 	addi	r6,r6,15500
 4020ac4:	01cff8b4 	movhi	r7,16354
 4020ac8:	39f65f44 	addi	r7,r7,-9859
 4020acc:	4009883a 	mov	r4,r8
 4020ad0:	480b883a 	mov	r5,r9
 4020ad4:	4022b4c0 	call	4022b4c <__adddf3>
 4020ad8:	1009883a 	mov	r4,r2
 4020adc:	180b883a 	mov	r5,r3
 4020ae0:	2005883a 	mov	r2,r4
 4020ae4:	2807883a 	mov	r3,r5
 4020ae8:	1009883a 	mov	r4,r2
 4020aec:	180b883a 	mov	r5,r3
 4020af0:	402536c0 	call	402536c <__truncdfsf2>
 4020af4:	1007883a 	mov	r3,r2
 4020af8:	1809883a 	mov	r4,r3
 4020afc:	40204ec0 	call	40204ec <tansig>
 4020b00:	1007883a 	mov	r3,r2
 4020b04:	00800034 	movhi	r2,0
 4020b08:	10879c04 	addi	r2,r2,7792
 4020b0c:	10c00515 	stw	r3,20(r2)
    output[6]=tansig(DotProduct(input1,w6)+(0.30645761337057264573));
 4020b10:	e0bfeb04 	addi	r2,fp,-84
 4020b14:	100b883a 	mov	r5,r2
 4020b18:	e13fff17 	ldw	r4,-4(fp)
 4020b1c:	402042c0 	call	402042c <DotProduct>
 4020b20:	1007883a 	mov	r3,r2
 4020b24:	1809883a 	mov	r4,r3
 4020b28:	402525c0 	call	402525c <__extendsfdf2>
 4020b2c:	1011883a 	mov	r8,r2
 4020b30:	1813883a 	mov	r9,r3
 4020b34:	019930b4 	movhi	r6,25794
 4020b38:	3196d284 	addi	r6,r6,23370
 4020b3c:	01cff534 	movhi	r7,16340
 4020b40:	39e74004 	addi	r7,r7,-25344
 4020b44:	4009883a 	mov	r4,r8
 4020b48:	480b883a 	mov	r5,r9
 4020b4c:	4022b4c0 	call	4022b4c <__adddf3>
 4020b50:	1009883a 	mov	r4,r2
 4020b54:	180b883a 	mov	r5,r3
 4020b58:	2005883a 	mov	r2,r4
 4020b5c:	2807883a 	mov	r3,r5
 4020b60:	1009883a 	mov	r4,r2
 4020b64:	180b883a 	mov	r5,r3
 4020b68:	402536c0 	call	402536c <__truncdfsf2>
 4020b6c:	1007883a 	mov	r3,r2
 4020b70:	1809883a 	mov	r4,r3
 4020b74:	40204ec0 	call	40204ec <tansig>
 4020b78:	1007883a 	mov	r3,r2
 4020b7c:	00800034 	movhi	r2,0
 4020b80:	10879c04 	addi	r2,r2,7792
 4020b84:	10c00615 	stw	r3,24(r2)
    output[7]=tansig(DotProduct(input1,w7)+(1.0923240690661593089));
 4020b88:	e0bff004 	addi	r2,fp,-64
 4020b8c:	100b883a 	mov	r5,r2
 4020b90:	e13fff17 	ldw	r4,-4(fp)
 4020b94:	402042c0 	call	402042c <DotProduct>
 4020b98:	1007883a 	mov	r3,r2
 4020b9c:	1809883a 	mov	r4,r3
 4020ba0:	402525c0 	call	402525c <__extendsfdf2>
 4020ba4:	1011883a 	mov	r8,r2
 4020ba8:	1813883a 	mov	r9,r3
 4020bac:	01b36534 	movhi	r6,52628
 4020bb0:	319758c4 	addi	r6,r6,23907
 4020bb4:	01cffc74 	movhi	r7,16369
 4020bb8:	39de8a04 	addi	r7,r7,31272
 4020bbc:	4009883a 	mov	r4,r8
 4020bc0:	480b883a 	mov	r5,r9
 4020bc4:	4022b4c0 	call	4022b4c <__adddf3>
 4020bc8:	1009883a 	mov	r4,r2
 4020bcc:	180b883a 	mov	r5,r3
 4020bd0:	2005883a 	mov	r2,r4
 4020bd4:	2807883a 	mov	r3,r5
 4020bd8:	1009883a 	mov	r4,r2
 4020bdc:	180b883a 	mov	r5,r3
 4020be0:	402536c0 	call	402536c <__truncdfsf2>
 4020be4:	1007883a 	mov	r3,r2
 4020be8:	1809883a 	mov	r4,r3
 4020bec:	40204ec0 	call	40204ec <tansig>
 4020bf0:	1007883a 	mov	r3,r2
 4020bf4:	00800034 	movhi	r2,0
 4020bf8:	10879c04 	addi	r2,r2,7792
 4020bfc:	10c00715 	stw	r3,28(r2)
    output[8]=tansig(DotProduct(input1,w8)+(1.6808282304872848023));
 4020c00:	e0bff504 	addi	r2,fp,-44
 4020c04:	100b883a 	mov	r5,r2
 4020c08:	e13fff17 	ldw	r4,-4(fp)
 4020c0c:	402042c0 	call	402042c <DotProduct>
 4020c10:	1007883a 	mov	r3,r2
 4020c14:	1809883a 	mov	r4,r3
 4020c18:	402525c0 	call	402525c <__extendsfdf2>
 4020c1c:	1011883a 	mov	r8,r2
 4020c20:	1813883a 	mov	r9,r3
 4020c24:	018920b4 	movhi	r6,9346
 4020c28:	318bb684 	addi	r6,r6,11994
 4020c2c:	01cffef4 	movhi	r7,16379
 4020c30:	39f92b04 	addi	r7,r7,-6996
 4020c34:	4009883a 	mov	r4,r8
 4020c38:	480b883a 	mov	r5,r9
 4020c3c:	4022b4c0 	call	4022b4c <__adddf3>
 4020c40:	1009883a 	mov	r4,r2
 4020c44:	180b883a 	mov	r5,r3
 4020c48:	2005883a 	mov	r2,r4
 4020c4c:	2807883a 	mov	r3,r5
 4020c50:	1009883a 	mov	r4,r2
 4020c54:	180b883a 	mov	r5,r3
 4020c58:	402536c0 	call	402536c <__truncdfsf2>
 4020c5c:	1007883a 	mov	r3,r2
 4020c60:	1809883a 	mov	r4,r3
 4020c64:	40204ec0 	call	40204ec <tansig>
 4020c68:	1007883a 	mov	r3,r2
 4020c6c:	00800034 	movhi	r2,0
 4020c70:	10879c04 	addi	r2,r2,7792
 4020c74:	10c00815 	stw	r3,32(r2)
	output[9]=tansig(DotProduct(input1,w9)+(2.3813398545941724116));
 4020c78:	e0bffa04 	addi	r2,fp,-24
 4020c7c:	100b883a 	mov	r5,r2
 4020c80:	e13fff17 	ldw	r4,-4(fp)
 4020c84:	402042c0 	call	402042c <DotProduct>
 4020c88:	1007883a 	mov	r3,r2
 4020c8c:	1809883a 	mov	r4,r3
 4020c90:	402525c0 	call	402525c <__extendsfdf2>
 4020c94:	1011883a 	mov	r8,r2
 4020c98:	1813883a 	mov	r9,r3
 4020c9c:	01ba3874 	movhi	r6,59617
 4020ca0:	31896744 	addi	r6,r6,9629
 4020ca4:	01d000f4 	movhi	r7,16387
 4020ca8:	39c33ec4 	addi	r7,r7,3323
 4020cac:	4009883a 	mov	r4,r8
 4020cb0:	480b883a 	mov	r5,r9
 4020cb4:	4022b4c0 	call	4022b4c <__adddf3>
 4020cb8:	1009883a 	mov	r4,r2
 4020cbc:	180b883a 	mov	r5,r3
 4020cc0:	2005883a 	mov	r2,r4
 4020cc4:	2807883a 	mov	r3,r5
 4020cc8:	1009883a 	mov	r4,r2
 4020ccc:	180b883a 	mov	r5,r3
 4020cd0:	402536c0 	call	402536c <__truncdfsf2>
 4020cd4:	1007883a 	mov	r3,r2
 4020cd8:	1809883a 	mov	r4,r3
 4020cdc:	40204ec0 	call	40204ec <tansig>
 4020ce0:	1007883a 	mov	r3,r2
 4020ce4:	00800034 	movhi	r2,0
 4020ce8:	10879c04 	addi	r2,r2,7792
 4020cec:	10c00915 	stw	r3,36(r2)
    return output;
 4020cf0:	00800034 	movhi	r2,0
 4020cf4:	10879c04 	addi	r2,r2,7792
}
 4020cf8:	e037883a 	mov	sp,fp
 4020cfc:	dfc00117 	ldw	ra,4(sp)
 4020d00:	df000017 	ldw	fp,0(sp)
 4020d04:	dec00204 	addi	sp,sp,8
 4020d08:	f800283a 	ret

04020d0c <DotProduct1>:
/*=======  producto punto =========*/
float DotProduct1(float input1[], float input2[])
{
 4020d0c:	defffa04 	addi	sp,sp,-24
 4020d10:	dfc00515 	stw	ra,20(sp)
 4020d14:	df000415 	stw	fp,16(sp)
 4020d18:	df000404 	addi	fp,sp,16
 4020d1c:	e13ffe15 	stw	r4,-8(fp)
 4020d20:	e17fff15 	stw	r5,-4(fp)
    int i=0;
 4020d24:	e03ffc15 	stw	zero,-16(fp)
    float acumulador=0;
 4020d28:	e03ffd15 	stw	zero,-12(fp)
    for (i=0;i!=10;i++)									//<--------Segun el numero de neuronas en el hidden layer
 4020d2c:	e03ffc15 	stw	zero,-16(fp)
 4020d30:	00001b06 	br	4020da0 <DotProduct1+0x94>
    {
        acumulador=input1[i]*input2[i]+acumulador;
 4020d34:	e0bffc17 	ldw	r2,-16(fp)
 4020d38:	1085883a 	add	r2,r2,r2
 4020d3c:	1085883a 	add	r2,r2,r2
 4020d40:	1007883a 	mov	r3,r2
 4020d44:	e0bffe17 	ldw	r2,-8(fp)
 4020d48:	10c5883a 	add	r2,r2,r3
 4020d4c:	10c00017 	ldw	r3,0(r2)
 4020d50:	e0bffc17 	ldw	r2,-16(fp)
 4020d54:	1085883a 	add	r2,r2,r2
 4020d58:	1085883a 	add	r2,r2,r2
 4020d5c:	1009883a 	mov	r4,r2
 4020d60:	e0bfff17 	ldw	r2,-4(fp)
 4020d64:	1105883a 	add	r2,r2,r4
 4020d68:	11000017 	ldw	r4,0(r2)
 4020d6c:	200b883a 	mov	r5,r4
 4020d70:	1809883a 	mov	r4,r3
 4020d74:	40221480 	call	4022148 <__mulsf3>
 4020d78:	1007883a 	mov	r3,r2
 4020d7c:	1805883a 	mov	r2,r3
 4020d80:	100b883a 	mov	r5,r2
 4020d84:	e13ffd17 	ldw	r4,-12(fp)
 4020d88:	40218400 	call	4021840 <__addsf3>
 4020d8c:	1007883a 	mov	r3,r2
 4020d90:	e0fffd15 	stw	r3,-12(fp)
/*=======  producto punto =========*/
float DotProduct1(float input1[], float input2[])
{
    int i=0;
    float acumulador=0;
    for (i=0;i!=10;i++)									//<--------Segun el numero de neuronas en el hidden layer
 4020d94:	e0bffc17 	ldw	r2,-16(fp)
 4020d98:	10800044 	addi	r2,r2,1
 4020d9c:	e0bffc15 	stw	r2,-16(fp)
 4020da0:	e0bffc17 	ldw	r2,-16(fp)
 4020da4:	10800298 	cmpnei	r2,r2,10
 4020da8:	103fe21e 	bne	r2,zero,4020d34 <__flash_rwdata_start+0xfffee460>
    {
        acumulador=input1[i]*input2[i]+acumulador;
    }
    return acumulador;
 4020dac:	e0bffd17 	ldw	r2,-12(fp)
 4020db0:	1007883a 	mov	r3,r2
}
 4020db4:	1805883a 	mov	r2,r3
 4020db8:	e037883a 	mov	sp,fp
 4020dbc:	dfc00117 	ldw	ra,4(sp)
 4020dc0:	df000017 	ldw	fp,0(sp)
 4020dc4:	dec00204 	addi	sp,sp,8
 4020dc8:	f800283a 	ret

04020dcc <mapminreverse>:
/*=======  funcion mapminreverse =========*/
float mapminreverse(float input)
{
 4020dcc:	defff804 	addi	sp,sp,-32
 4020dd0:	dfc00715 	stw	ra,28(sp)
 4020dd4:	df000615 	stw	fp,24(sp)
 4020dd8:	dc000515 	stw	r16,20(sp)
 4020ddc:	df000604 	addi	fp,sp,24
 4020de0:	e13ffe15 	stw	r4,-8(fp)
    float ymax=1,ymin=-1;
 4020de4:	008fe034 	movhi	r2,16256
 4020de8:	e0bffa15 	stw	r2,-24(fp)
 4020dec:	00afe034 	movhi	r2,49024
 4020df0:	e0bffb15 	stw	r2,-20(fp)
    float xmin=32;										//<--------min salida
 4020df4:	00908034 	movhi	r2,16896
 4020df8:	e0bffc15 	stw	r2,-16(fp)
    float xmax=52;										//<--------max salida
 4020dfc:	00909434 	movhi	r2,16976
 4020e00:	e0bffd15 	stw	r2,-12(fp)
    static float output;
    output=((xmax-xmin)/(ymax-ymin))*(input-ymin)+xmin;
 4020e04:	e17ffc17 	ldw	r5,-16(fp)
 4020e08:	e13ffd17 	ldw	r4,-12(fp)
 4020e0c:	40225780 	call	4022578 <__subsf3>
 4020e10:	1007883a 	mov	r3,r2
 4020e14:	1821883a 	mov	r16,r3
 4020e18:	e17ffb17 	ldw	r5,-20(fp)
 4020e1c:	e13ffa17 	ldw	r4,-24(fp)
 4020e20:	40225780 	call	4022578 <__subsf3>
 4020e24:	1007883a 	mov	r3,r2
 4020e28:	1805883a 	mov	r2,r3
 4020e2c:	100b883a 	mov	r5,r2
 4020e30:	8009883a 	mov	r4,r16
 4020e34:	4021d080 	call	4021d08 <__divsf3>
 4020e38:	1007883a 	mov	r3,r2
 4020e3c:	1821883a 	mov	r16,r3
 4020e40:	e17ffb17 	ldw	r5,-20(fp)
 4020e44:	e13ffe17 	ldw	r4,-8(fp)
 4020e48:	40225780 	call	4022578 <__subsf3>
 4020e4c:	1007883a 	mov	r3,r2
 4020e50:	1805883a 	mov	r2,r3
 4020e54:	100b883a 	mov	r5,r2
 4020e58:	8009883a 	mov	r4,r16
 4020e5c:	40221480 	call	4022148 <__mulsf3>
 4020e60:	1007883a 	mov	r3,r2
 4020e64:	1805883a 	mov	r2,r3
 4020e68:	e17ffc17 	ldw	r5,-16(fp)
 4020e6c:	1009883a 	mov	r4,r2
 4020e70:	40218400 	call	4021840 <__addsf3>
 4020e74:	1007883a 	mov	r3,r2
 4020e78:	1805883a 	mov	r2,r3
 4020e7c:	d0a01115 	stw	r2,-32700(gp)
    return output;
 4020e80:	d0a01117 	ldw	r2,-32700(gp)
 4020e84:	1007883a 	mov	r3,r2
}
 4020e88:	1805883a 	mov	r2,r3
 4020e8c:	e6ffff04 	addi	sp,fp,-4
 4020e90:	dfc00217 	ldw	ra,8(sp)
 4020e94:	df000117 	ldw	fp,4(sp)
 4020e98:	dc000017 	ldw	r16,0(sp)
 4020e9c:	dec00304 	addi	sp,sp,12
 4020ea0:	f800283a 	ret

04020ea4 <layer2>:
/*=======  output layer =========*/
float layer2(float *input1)
{
 4020ea4:	defff304 	addi	sp,sp,-52
 4020ea8:	dfc00c15 	stw	ra,48(sp)
 4020eac:	df000b15 	stw	fp,44(sp)
 4020eb0:	df000b04 	addi	fp,sp,44
 4020eb4:	e13fff15 	stw	r4,-4(fp)
    float static output1;
    float w0[]={0.1770890458616809493,0.18442331894640406897,-4.131073713753200316,-2.482458842655363096,1.6736695009645763399,-1.5433245094111347484,0.67502930505177860532,-0.19344688191339304284,-0.17768324384102607283,0.25820352972869753394};
 4020eb8:	008f8d74 	movhi	r2,15925
 4020ebc:	1095b544 	addi	r2,r2,22229
 4020ec0:	e0bff515 	stw	r2,-44(fp)
 4020ec4:	008f8f74 	movhi	r2,15933
 4020ec8:	10b65dc4 	addi	r2,r2,-9865
 4020ecc:	e0bff615 	stw	r2,-40(fp)
 4020ed0:	00b02134 	movhi	r2,49284
 4020ed4:	108c7084 	addi	r2,r2,12738
 4020ed8:	e0bff715 	stw	r2,-36(fp)
 4020edc:	00b007f4 	movhi	r2,49183
 4020ee0:	10b826c4 	addi	r2,r2,-8037
 4020ee4:	e0bff815 	stw	r2,-32(fp)
 4020ee8:	008ff5b4 	movhi	r2,16342
 4020eec:	108eb344 	addi	r2,r2,15053
 4020ef0:	e0bff915 	stw	r2,-28(fp)
 4020ef4:	00aff1b4 	movhi	r2,49094
 4020ef8:	10a2ea04 	addi	r2,r2,-29784
 4020efc:	e0bffa15 	stw	r2,-24(fp)
 4020f00:	008fcb74 	movhi	r2,16173
 4020f04:	10b3ae04 	addi	r2,r2,-12616
 4020f08:	e0bffb15 	stw	r2,-20(fp)
 4020f0c:	00af91b4 	movhi	r2,48710
 4020f10:	1085bc04 	addi	r2,r2,5872
 4020f14:	e0bffc15 	stw	r2,-16(fp)
 4020f18:	00af8db4 	movhi	r2,48694
 4020f1c:	10bca644 	addi	r2,r2,-3431
 4020f20:	e0bffd15 	stw	r2,-12(fp)
 4020f24:	008fa134 	movhi	r2,16004
 4020f28:	108cd044 	addi	r2,r2,13121
 4020f2c:	e0bffe15 	stw	r2,-8(fp)
    output1=DotProduct1(input1,w0)+(1.9015988320641858955);
 4020f30:	e17ff504 	addi	r5,fp,-44
 4020f34:	e13fff17 	ldw	r4,-4(fp)
 4020f38:	4020d0c0 	call	4020d0c <DotProduct1>
 4020f3c:	1007883a 	mov	r3,r2
 4020f40:	1809883a 	mov	r4,r3
 4020f44:	402525c0 	call	402525c <__extendsfdf2>
 4020f48:	1011883a 	mov	r8,r2
 4020f4c:	1813883a 	mov	r9,r3
 4020f50:	01b96774 	movhi	r6,58781
 4020f54:	318f5584 	addi	r6,r6,15702
 4020f58:	01cfffb4 	movhi	r7,16382
 4020f5c:	39db3c84 	addi	r7,r7,27890
 4020f60:	4009883a 	mov	r4,r8
 4020f64:	480b883a 	mov	r5,r9
 4020f68:	4022b4c0 	call	4022b4c <__adddf3>
 4020f6c:	1009883a 	mov	r4,r2
 4020f70:	180b883a 	mov	r5,r3
 4020f74:	2005883a 	mov	r2,r4
 4020f78:	2807883a 	mov	r3,r5
 4020f7c:	1009883a 	mov	r4,r2
 4020f80:	180b883a 	mov	r5,r3
 4020f84:	402536c0 	call	402536c <__truncdfsf2>
 4020f88:	1007883a 	mov	r3,r2
 4020f8c:	d0e01215 	stw	r3,-32696(gp)
	return mapminreverse(output1);
 4020f90:	d0a01217 	ldw	r2,-32696(gp)
 4020f94:	1009883a 	mov	r4,r2
 4020f98:	4020dcc0 	call	4020dcc <mapminreverse>
 4020f9c:	1007883a 	mov	r3,r2
 4020fa0:	1805883a 	mov	r2,r3
}
 4020fa4:	e037883a 	mov	sp,fp
 4020fa8:	dfc00117 	ldw	ra,4(sp)
 4020fac:	df000017 	ldw	fp,0(sp)
 4020fb0:	dec00204 	addi	sp,sp,8
 4020fb4:	f800283a 	ret

04020fb8 <main>:
/*=======  main =========*/
int main()
{
 4020fb8:	deffe004 	addi	sp,sp,-128
 4020fbc:	dfc01f15 	stw	ra,124(sp)
 4020fc0:	df001e15 	stw	fp,120(sp)
 4020fc4:	df001e04 	addi	fp,sp,120
	volatile int * memoria = (int *) 0x00; // SDRAM address
 4020fc8:	e03fe315 	stw	zero,-116(fp)
	unsigned int ldr;
	unsigned int humedad_suelo;
	unsigned int humedad_aire;
	unsigned int temperatura;
	//Valores iniciales
	IOWR(memoria,0x000,25);
 4020fcc:	00c00644 	movi	r3,25
 4020fd0:	e0bfe317 	ldw	r2,-116(fp)
 4020fd4:	10c00035 	stwio	r3,0(r2)
	IOWR(memoria,0x001,76);
 4020fd8:	e0bfe317 	ldw	r2,-116(fp)
 4020fdc:	10800104 	addi	r2,r2,4
 4020fe0:	00c01304 	movi	r3,76
 4020fe4:	10c00035 	stwio	r3,0(r2)
	IOWR(memoria,0x002,45);
 4020fe8:	e0bfe317 	ldw	r2,-116(fp)
 4020fec:	10800204 	addi	r2,r2,8
 4020ff0:	00c00b44 	movi	r3,45
 4020ff4:	10c00035 	stwio	r3,0(r2)
	IOWR(memoria,0x003,44);
 4020ff8:	e0bfe317 	ldw	r2,-116(fp)
 4020ffc:	10800304 	addi	r2,r2,12
 4021000:	00c00b04 	movi	r3,44
 4021004:	10c00035 	stwio	r3,0(r2)

	while (1){
		//Lectura de datos
		ldr = IORD(memoria,0x000);
 4021008:	e0bfe317 	ldw	r2,-116(fp)
 402100c:	10800037 	ldwio	r2,0(r2)
 4021010:	e0bfe415 	stw	r2,-112(fp)
		humedad_suelo = IORD(memoria,0x001);
 4021014:	e0bfe317 	ldw	r2,-116(fp)
 4021018:	10800104 	addi	r2,r2,4
 402101c:	10800037 	ldwio	r2,0(r2)
 4021020:	e0bfe515 	stw	r2,-108(fp)
		humedad_aire = IORD(memoria,0x002);
 4021024:	e0bfe317 	ldw	r2,-116(fp)
 4021028:	10800204 	addi	r2,r2,8
 402102c:	10800037 	ldwio	r2,0(r2)
 4021030:	e0bfe615 	stw	r2,-104(fp)
		temperatura = IORD(memoria,0x003);
 4021034:	e0bfe317 	ldw	r2,-116(fp)
 4021038:	10800304 	addi	r2,r2,12
 402103c:	10800037 	ldwio	r2,0(r2)
 4021040:	e0bfe715 	stw	r2,-100(fp)
		//printf("El valor de la humedad_suelo es --> %d Porciento \n",humedad_suelo);
		//printf("El valor de la humedad_aire es --> %d Porciento \n",humedad_aire);
		//printf("El valor de la temperatura es --> %d  \n",temperatura);

		/*=======  niNN vector de entrada =========*/
		float niNN[]={0.1,ldr,humedad_aire,temperatura,humedad_suelo}; //'Tiempo','Luz','Humedad Aire','Temperatura','Humedad Suelo'
 4021044:	008f7374 	movhi	r2,15821
 4021048:	10b33344 	addi	r2,r2,-13107
 402104c:	e0bfeb15 	stw	r2,-84(fp)
 4021050:	e13fe417 	ldw	r4,-112(fp)
 4021054:	4022a5c0 	call	4022a5c <__floatunsisf>
 4021058:	1007883a 	mov	r3,r2
 402105c:	e0ffec15 	stw	r3,-80(fp)
 4021060:	e13fe617 	ldw	r4,-104(fp)
 4021064:	4022a5c0 	call	4022a5c <__floatunsisf>
 4021068:	1007883a 	mov	r3,r2
 402106c:	e0ffed15 	stw	r3,-76(fp)
 4021070:	e13fe717 	ldw	r4,-100(fp)
 4021074:	4022a5c0 	call	4022a5c <__floatunsisf>
 4021078:	1007883a 	mov	r3,r2
 402107c:	e0ffee15 	stw	r3,-72(fp)
 4021080:	e13fe517 	ldw	r4,-108(fp)
 4021084:	4022a5c0 	call	4022a5c <__floatunsisf>
 4021088:	1007883a 	mov	r3,r2
 402108c:	e0ffef15 	stw	r3,-68(fp)
		int n;
		float *GPP1=mapminmax(niNN);
 4021090:	e0bfeb04 	addi	r2,fp,-84
 4021094:	1009883a 	mov	r4,r2
 4021098:	402026c0 	call	402026c <mapminmax>
 402109c:	e0bfe815 	stw	r2,-96(fp)
		float input1[6];									//<--------------segun el numero de entradas
		float input2[10];									//<--------Segun el numero de neuronas en el hidden layer
		for(n=0;n<5;n++)									//<--------------segun el numero de entradas
 40210a0:	e03fe215 	stw	zero,-120(fp)
 40210a4:	00001106 	br	40210ec <main+0x134>
		{
			input1[n]=GPP1[n];
 40210a8:	e0bfe217 	ldw	r2,-120(fp)
 40210ac:	1085883a 	add	r2,r2,r2
 40210b0:	1085883a 	add	r2,r2,r2
 40210b4:	1007883a 	mov	r3,r2
 40210b8:	e0bfe817 	ldw	r2,-96(fp)
 40210bc:	10c5883a 	add	r2,r2,r3
 40210c0:	10c00017 	ldw	r3,0(r2)
 40210c4:	e0bfe217 	ldw	r2,-120(fp)
 40210c8:	1085883a 	add	r2,r2,r2
 40210cc:	1085883a 	add	r2,r2,r2
 40210d0:	e13fe204 	addi	r4,fp,-120
 40210d4:	2085883a 	add	r2,r4,r2
 40210d8:	10800e04 	addi	r2,r2,56
 40210dc:	10c00015 	stw	r3,0(r2)
		float niNN[]={0.1,ldr,humedad_aire,temperatura,humedad_suelo}; //'Tiempo','Luz','Humedad Aire','Temperatura','Humedad Suelo'
		int n;
		float *GPP1=mapminmax(niNN);
		float input1[6];									//<--------------segun el numero de entradas
		float input2[10];									//<--------Segun el numero de neuronas en el hidden layer
		for(n=0;n<5;n++)									//<--------------segun el numero de entradas
 40210e0:	e0bfe217 	ldw	r2,-120(fp)
 40210e4:	10800044 	addi	r2,r2,1
 40210e8:	e0bfe215 	stw	r2,-120(fp)
 40210ec:	e0bfe217 	ldw	r2,-120(fp)
 40210f0:	10800150 	cmplti	r2,r2,5
 40210f4:	103fec1e 	bne	r2,zero,40210a8 <__flash_rwdata_start+0xfffee7d4>
		{
			input1[n]=GPP1[n];
		}
		float *GPP2=layer1(input1);
 40210f8:	e0bff004 	addi	r2,fp,-64
 40210fc:	1009883a 	mov	r4,r2
 4021100:	40205d80 	call	40205d8 <layer1>
 4021104:	e0bfe915 	stw	r2,-92(fp)
		for(n=0;n<10;n++)									//<--------Segun el numero de neuronas en el hidden layer
 4021108:	e03fe215 	stw	zero,-120(fp)
 402110c:	00001106 	br	4021154 <main+0x19c>
		{
			input2[n]=GPP2[n];
 4021110:	e0bfe217 	ldw	r2,-120(fp)
 4021114:	1085883a 	add	r2,r2,r2
 4021118:	1085883a 	add	r2,r2,r2
 402111c:	1007883a 	mov	r3,r2
 4021120:	e0bfe917 	ldw	r2,-92(fp)
 4021124:	10c5883a 	add	r2,r2,r3
 4021128:	10c00017 	ldw	r3,0(r2)
 402112c:	e0bfe217 	ldw	r2,-120(fp)
 4021130:	1085883a 	add	r2,r2,r2
 4021134:	1085883a 	add	r2,r2,r2
 4021138:	e13fe204 	addi	r4,fp,-120
 402113c:	2085883a 	add	r2,r4,r2
 4021140:	10801404 	addi	r2,r2,80
 4021144:	10c00015 	stw	r3,0(r2)
		for(n=0;n<5;n++)									//<--------------segun el numero de entradas
		{
			input1[n]=GPP1[n];
		}
		float *GPP2=layer1(input1);
		for(n=0;n<10;n++)									//<--------Segun el numero de neuronas en el hidden layer
 4021148:	e0bfe217 	ldw	r2,-120(fp)
 402114c:	10800044 	addi	r2,r2,1
 4021150:	e0bfe215 	stw	r2,-120(fp)
 4021154:	e0bfe217 	ldw	r2,-120(fp)
 4021158:	10800290 	cmplti	r2,r2,10
 402115c:	103fec1e 	bne	r2,zero,4021110 <__flash_rwdata_start+0xfffee83c>
		{
			input2[n]=GPP2[n];
		}
		float output=layer2(input2);
 4021160:	e0bff604 	addi	r2,fp,-40
 4021164:	1009883a 	mov	r4,r2
 4021168:	4020ea40 	call	4020ea4 <layer2>
 402116c:	e0bfea15 	stw	r2,-88(fp)
		printf("%f\n",output);
 4021170:	e13fea17 	ldw	r4,-88(fp)
 4021174:	402525c0 	call	402525c <__extendsfdf2>
 4021178:	100d883a 	mov	r6,r2
 402117c:	180f883a 	mov	r7,r3
 4021180:	300b883a 	mov	r5,r6
 4021184:	380d883a 	mov	r6,r7
 4021188:	01000034 	movhi	r4,0
 402118c:	21000004 	addi	r4,r4,0
 4021190:	40257940 	call	4025794 <printf>
		usleep(1000000);
 4021194:	010003f4 	movhi	r4,15
 4021198:	21109004 	addi	r4,r4,16960
 402119c:	40304d80 	call	40304d8 <usleep>
	}
 40211a0:	003f9906 	br	4021008 <__flash_rwdata_start+0xfffee734>

040211a4 <exp>:
 40211a4:	defff104 	addi	sp,sp,-60
 40211a8:	dd000d15 	stw	r20,52(sp)
 40211ac:	05000034 	movhi	r20,0
 40211b0:	dcc00c15 	stw	r19,48(sp)
 40211b4:	dc800b15 	stw	r18,44(sp)
 40211b8:	dc400a15 	stw	r17,40(sp)
 40211bc:	dc000915 	stw	r16,36(sp)
 40211c0:	dfc00e15 	stw	ra,56(sp)
 40211c4:	a5077604 	addi	r20,r20,7640
 40211c8:	2027883a 	mov	r19,r4
 40211cc:	2825883a 	mov	r18,r5
 40211d0:	40213340 	call	4021334 <__ieee754_exp>
 40211d4:	1821883a 	mov	r16,r3
 40211d8:	a0c00017 	ldw	r3,0(r20)
 40211dc:	1023883a 	mov	r17,r2
 40211e0:	00bfffc4 	movi	r2,-1
 40211e4:	18802e26 	beq	r3,r2,40212a0 <exp+0xfc>
 40211e8:	9809883a 	mov	r4,r19
 40211ec:	900b883a 	mov	r5,r18
 40211f0:	402181c0 	call	402181c <finite>
 40211f4:	10002a26 	beq	r2,zero,40212a0 <exp+0xfc>
 40211f8:	01bfbeb4 	movhi	r6,65274
 40211fc:	01d021b4 	movhi	r7,16518
 4021200:	318e7bc4 	addi	r6,r6,14831
 4021204:	39cb9084 	addi	r7,r7,11842
 4021208:	9809883a 	mov	r4,r19
 402120c:	900b883a 	mov	r5,r18
 4021210:	4023dc80 	call	4023dc8 <__gedf2>
 4021214:	00802c16 	blt	zero,r2,40212c8 <exp+0x124>
 4021218:	01b54b74 	movhi	r6,54573
 402121c:	01f021f4 	movhi	r7,49287
 4021220:	318c1444 	addi	r6,r6,12369
 4021224:	39d24404 	addi	r7,r7,18704
 4021228:	9809883a 	mov	r4,r19
 402122c:	900b883a 	mov	r5,r18
 4021230:	4023ea40 	call	4023ea4 <__ledf2>
 4021234:	10001a0e 	bge	r2,zero,40212a0 <exp+0xfc>
 4021238:	00800104 	movi	r2,4
 402123c:	d8800015 	stw	r2,0(sp)
 4021240:	a0c00017 	ldw	r3,0(r20)
 4021244:	00800034 	movhi	r2,0
 4021248:	10800104 	addi	r2,r2,4
 402124c:	d8800115 	stw	r2,4(sp)
 4021250:	d8000815 	stw	zero,32(sp)
 4021254:	dcc00415 	stw	r19,16(sp)
 4021258:	dc800515 	stw	r18,20(sp)
 402125c:	dcc00215 	stw	r19,8(sp)
 4021260:	dc800315 	stw	r18,12(sp)
 4021264:	d8000615 	stw	zero,24(sp)
 4021268:	d8000715 	stw	zero,28(sp)
 402126c:	00800084 	movi	r2,2
 4021270:	18802c26 	beq	r3,r2,4021324 <exp+0x180>
 4021274:	d809883a 	mov	r4,sp
 4021278:	40218380 	call	4021838 <matherr>
 402127c:	10002926 	beq	r2,zero,4021324 <exp+0x180>
 4021280:	d8800817 	ldw	r2,32(sp)
 4021284:	10000326 	beq	r2,zero,4021294 <exp+0xf0>
 4021288:	40257540 	call	4025754 <__errno>
 402128c:	d8c00817 	ldw	r3,32(sp)
 4021290:	10c00015 	stw	r3,0(r2)
 4021294:	d8800617 	ldw	r2,24(sp)
 4021298:	d8c00717 	ldw	r3,28(sp)
 402129c:	00000206 	br	40212a8 <exp+0x104>
 40212a0:	8805883a 	mov	r2,r17
 40212a4:	8007883a 	mov	r3,r16
 40212a8:	dfc00e17 	ldw	ra,56(sp)
 40212ac:	dd000d17 	ldw	r20,52(sp)
 40212b0:	dcc00c17 	ldw	r19,48(sp)
 40212b4:	dc800b17 	ldw	r18,44(sp)
 40212b8:	dc400a17 	ldw	r17,40(sp)
 40212bc:	dc000917 	ldw	r16,36(sp)
 40212c0:	dec00f04 	addi	sp,sp,60
 40212c4:	f800283a 	ret
 40212c8:	00c000c4 	movi	r3,3
 40212cc:	d8c00015 	stw	r3,0(sp)
 40212d0:	a0800017 	ldw	r2,0(r20)
 40212d4:	00c00034 	movhi	r3,0
 40212d8:	18c00104 	addi	r3,r3,4
 40212dc:	d8c00115 	stw	r3,4(sp)
 40212e0:	d8000815 	stw	zero,32(sp)
 40212e4:	dcc00415 	stw	r19,16(sp)
 40212e8:	dc800515 	stw	r18,20(sp)
 40212ec:	dcc00215 	stw	r19,8(sp)
 40212f0:	dc800315 	stw	r18,12(sp)
 40212f4:	1000061e 	bne	r2,zero,4021310 <exp+0x16c>
 40212f8:	00b80034 	movhi	r2,57344
 40212fc:	d8800615 	stw	r2,24(sp)
 4021300:	0091fc34 	movhi	r2,18416
 4021304:	10bfffc4 	addi	r2,r2,-1
 4021308:	d8800715 	stw	r2,28(sp)
 402130c:	003fd906 	br	4021274 <__flash_rwdata_start+0xfffee9a0>
 4021310:	00dffc34 	movhi	r3,32752
 4021314:	d8c00715 	stw	r3,28(sp)
 4021318:	d8000615 	stw	zero,24(sp)
 402131c:	00c00084 	movi	r3,2
 4021320:	10ffd41e 	bne	r2,r3,4021274 <__flash_rwdata_start+0xfffee9a0>
 4021324:	40257540 	call	4025754 <__errno>
 4021328:	00c00884 	movi	r3,34
 402132c:	10c00015 	stw	r3,0(r2)
 4021330:	003fd306 	br	4021280 <__flash_rwdata_start+0xfffee9ac>

04021334 <__ieee754_exp>:
 4021334:	00e00034 	movhi	r3,32768
 4021338:	defff604 	addi	sp,sp,-40
 402133c:	18ffffc4 	addi	r3,r3,-1
 4021340:	009021b4 	movhi	r2,16518
 4021344:	ddc00715 	stw	r23,28(sp)
 4021348:	dc400115 	stw	r17,4(sp)
 402134c:	dc000015 	stw	r16,0(sp)
 4021350:	dfc00915 	stw	ra,36(sp)
 4021354:	df000815 	stw	fp,32(sp)
 4021358:	dd800615 	stw	r22,24(sp)
 402135c:	dd400515 	stw	r21,20(sp)
 4021360:	dd000415 	stw	r20,16(sp)
 4021364:	dcc00315 	stw	r19,12(sp)
 4021368:	dc800215 	stw	r18,8(sp)
 402136c:	28c6703a 	and	r3,r5,r3
 4021370:	108b9044 	addi	r2,r2,11841
 4021374:	2821883a 	mov	r16,r5
 4021378:	2023883a 	mov	r17,r4
 402137c:	282ed7fa 	srli	r23,r5,31
 4021380:	10c00c2e 	bgeu	r2,r3,40213b4 <__ieee754_exp+0x80>
 4021384:	009ffc34 	movhi	r2,32752
 4021388:	10bfffc4 	addi	r2,r2,-1
 402138c:	10c08b2e 	bgeu	r2,r3,40215bc <__ieee754_exp+0x288>
 4021390:	00800434 	movhi	r2,16
 4021394:	10bfffc4 	addi	r2,r2,-1
 4021398:	2884703a 	and	r2,r5,r2
 402139c:	1104b03a 	or	r2,r2,r4
 40213a0:	1000fb1e 	bne	r2,zero,4021790 <__ieee754_exp+0x45c>
 40213a4:	b8011a1e 	bne	r23,zero,4021810 <__ieee754_exp+0x4dc>
 40213a8:	2005883a 	mov	r2,r4
 40213ac:	2807883a 	mov	r3,r5
 40213b0:	00007606 	br	402158c <__ieee754_exp+0x258>
 40213b4:	008ff5b4 	movhi	r2,16342
 40213b8:	108b9084 	addi	r2,r2,11842
 40213bc:	10c0c336 	bltu	r2,r3,40216cc <__ieee754_exp+0x398>
 40213c0:	008f8c34 	movhi	r2,15920
 40213c4:	10bfffc4 	addi	r2,r2,-1
 40213c8:	10c0d52e 	bgeu	r2,r3,4021720 <__ieee754_exp+0x3ec>
 40213cc:	0025883a 	mov	r18,zero
 40213d0:	880d883a 	mov	r6,r17
 40213d4:	800f883a 	mov	r7,r16
 40213d8:	8809883a 	mov	r4,r17
 40213dc:	800b883a 	mov	r5,r16
 40213e0:	4023f980 	call	4023f98 <__muldf3>
 40213e4:	019caff4 	movhi	r6,29375
 40213e8:	01cf99b4 	movhi	r7,15974
 40213ec:	31a93404 	addi	r6,r6,-23344
 40213f0:	39cdda44 	addi	r7,r7,14185
 40213f4:	1009883a 	mov	r4,r2
 40213f8:	180b883a 	mov	r5,r3
 40213fc:	1039883a 	mov	fp,r2
 4021400:	182f883a 	mov	r23,r3
 4021404:	4023f980 	call	4023f98 <__muldf3>
 4021408:	01b174b4 	movhi	r6,50642
 402140c:	01cfaf34 	movhi	r7,16060
 4021410:	319afc44 	addi	r6,r6,27633
 4021414:	39ef5044 	addi	r7,r7,-17087
 4021418:	1009883a 	mov	r4,r2
 402141c:	180b883a 	mov	r5,r3
 4021420:	40248040 	call	4024804 <__subdf3>
 4021424:	e00d883a 	mov	r6,fp
 4021428:	b80f883a 	mov	r7,r23
 402142c:	1009883a 	mov	r4,r2
 4021430:	180b883a 	mov	r5,r3
 4021434:	4023f980 	call	4023f98 <__muldf3>
 4021438:	01abc9b4 	movhi	r6,44838
 402143c:	01cfc474 	movhi	r7,16145
 4021440:	31b78b04 	addi	r6,r6,-8660
 4021444:	39d59a84 	addi	r7,r7,22122
 4021448:	1009883a 	mov	r4,r2
 402144c:	180b883a 	mov	r5,r3
 4021450:	4022b4c0 	call	4022b4c <__adddf3>
 4021454:	e00d883a 	mov	r6,fp
 4021458:	b80f883a 	mov	r7,r23
 402145c:	1009883a 	mov	r4,r2
 4021460:	180b883a 	mov	r5,r3
 4021464:	4023f980 	call	4023f98 <__muldf3>
 4021468:	0185aff4 	movhi	r6,5823
 402146c:	01cfd9f4 	movhi	r7,16231
 4021470:	31af64c4 	addi	r6,r6,-17005
 4021474:	39f05b04 	addi	r7,r7,-16020
 4021478:	1009883a 	mov	r4,r2
 402147c:	180b883a 	mov	r5,r3
 4021480:	40248040 	call	4024804 <__subdf3>
 4021484:	e00d883a 	mov	r6,fp
 4021488:	b80f883a 	mov	r7,r23
 402148c:	1009883a 	mov	r4,r2
 4021490:	180b883a 	mov	r5,r3
 4021494:	4023f980 	call	4023f98 <__muldf3>
 4021498:	01955574 	movhi	r6,21845
 402149c:	01cff174 	movhi	r7,16325
 40214a0:	31954f84 	addi	r6,r6,21822
 40214a4:	39d55544 	addi	r7,r7,21845
 40214a8:	1009883a 	mov	r4,r2
 40214ac:	180b883a 	mov	r5,r3
 40214b0:	4022b4c0 	call	4022b4c <__adddf3>
 40214b4:	e00d883a 	mov	r6,fp
 40214b8:	b80f883a 	mov	r7,r23
 40214bc:	1009883a 	mov	r4,r2
 40214c0:	180b883a 	mov	r5,r3
 40214c4:	4023f980 	call	4023f98 <__muldf3>
 40214c8:	100d883a 	mov	r6,r2
 40214cc:	180f883a 	mov	r7,r3
 40214d0:	8809883a 	mov	r4,r17
 40214d4:	800b883a 	mov	r5,r16
 40214d8:	40248040 	call	4024804 <__subdf3>
 40214dc:	1039883a 	mov	fp,r2
 40214e0:	182f883a 	mov	r23,r3
 40214e4:	9000ae26 	beq	r18,zero,40217a0 <__ieee754_exp+0x46c>
 40214e8:	8809883a 	mov	r4,r17
 40214ec:	800b883a 	mov	r5,r16
 40214f0:	100d883a 	mov	r6,r2
 40214f4:	180f883a 	mov	r7,r3
 40214f8:	4023f980 	call	4023f98 <__muldf3>
 40214fc:	e00d883a 	mov	r6,fp
 4021500:	b80f883a 	mov	r7,r23
 4021504:	0009883a 	mov	r4,zero
 4021508:	01500034 	movhi	r5,16384
 402150c:	1023883a 	mov	r17,r2
 4021510:	1821883a 	mov	r16,r3
 4021514:	40248040 	call	4024804 <__subdf3>
 4021518:	100d883a 	mov	r6,r2
 402151c:	180f883a 	mov	r7,r3
 4021520:	8809883a 	mov	r4,r17
 4021524:	800b883a 	mov	r5,r16
 4021528:	40233f80 	call	40233f8 <__divdf3>
 402152c:	100d883a 	mov	r6,r2
 4021530:	180f883a 	mov	r7,r3
 4021534:	b009883a 	mov	r4,r22
 4021538:	a80b883a 	mov	r5,r21
 402153c:	40248040 	call	4024804 <__subdf3>
 4021540:	a00d883a 	mov	r6,r20
 4021544:	980f883a 	mov	r7,r19
 4021548:	1009883a 	mov	r4,r2
 402154c:	180b883a 	mov	r5,r3
 4021550:	40248040 	call	4024804 <__subdf3>
 4021554:	0009883a 	mov	r4,zero
 4021558:	100d883a 	mov	r6,r2
 402155c:	180f883a 	mov	r7,r3
 4021560:	014ffc34 	movhi	r5,16368
 4021564:	40248040 	call	4024804 <__subdf3>
 4021568:	013f00c4 	movi	r4,-1021
 402156c:	91007d0e 	bge	r18,r4,4021764 <__ieee754_exp+0x430>
 4021570:	9140fa04 	addi	r5,r18,1000
 4021574:	280a953a 	slli	r5,r5,20
 4021578:	000d883a 	mov	r6,zero
 402157c:	01c05c34 	movhi	r7,368
 4021580:	1009883a 	mov	r4,r2
 4021584:	28cb883a 	add	r5,r5,r3
 4021588:	4023f980 	call	4023f98 <__muldf3>
 402158c:	dfc00917 	ldw	ra,36(sp)
 4021590:	df000817 	ldw	fp,32(sp)
 4021594:	ddc00717 	ldw	r23,28(sp)
 4021598:	dd800617 	ldw	r22,24(sp)
 402159c:	dd400517 	ldw	r21,20(sp)
 40215a0:	dd000417 	ldw	r20,16(sp)
 40215a4:	dcc00317 	ldw	r19,12(sp)
 40215a8:	dc800217 	ldw	r18,8(sp)
 40215ac:	dc400117 	ldw	r17,4(sp)
 40215b0:	dc000017 	ldw	r16,0(sp)
 40215b4:	dec00a04 	addi	sp,sp,40
 40215b8:	f800283a 	ret
 40215bc:	01bfbeb4 	movhi	r6,65274
 40215c0:	01d021b4 	movhi	r7,16518
 40215c4:	318e7bc4 	addi	r6,r6,14831
 40215c8:	39cb9084 	addi	r7,r7,11842
 40215cc:	4023dc80 	call	4023dc8 <__gedf2>
 40215d0:	00806716 	blt	zero,r2,4021770 <__ieee754_exp+0x43c>
 40215d4:	01b54b74 	movhi	r6,54573
 40215d8:	01f021f4 	movhi	r7,49287
 40215dc:	318c1444 	addi	r6,r6,12369
 40215e0:	39d24404 	addi	r7,r7,18704
 40215e4:	8809883a 	mov	r4,r17
 40215e8:	800b883a 	mov	r5,r16
 40215ec:	4023ea40 	call	4023ea4 <__ledf2>
 40215f0:	10008716 	blt	r2,zero,4021810 <__ieee754_exp+0x4dc>
 40215f4:	b82490fa 	slli	r18,r23,3
 40215f8:	01994b34 	movhi	r6,25900
 40215fc:	01cffdf4 	movhi	r7,16375
 4021600:	05c00034 	movhi	r23,0
 4021604:	31a0bf84 	addi	r6,r6,-32002
 4021608:	39c551c4 	addi	r7,r7,5447
 402160c:	8809883a 	mov	r4,r17
 4021610:	800b883a 	mov	r5,r16
 4021614:	bdc00a04 	addi	r23,r23,40
 4021618:	4023f980 	call	4023f98 <__muldf3>
 402161c:	bca5883a 	add	r18,r23,r18
 4021620:	91800017 	ldw	r6,0(r18)
 4021624:	91c00117 	ldw	r7,4(r18)
 4021628:	1009883a 	mov	r4,r2
 402162c:	180b883a 	mov	r5,r3
 4021630:	4022b4c0 	call	4022b4c <__adddf3>
 4021634:	180b883a 	mov	r5,r3
 4021638:	1009883a 	mov	r4,r2
 402163c:	40251000 	call	4025100 <__fixdfsi>
 4021640:	1009883a 	mov	r4,r2
 4021644:	1025883a 	mov	r18,r2
 4021648:	40251800 	call	4025180 <__floatsidf>
 402164c:	01cff9b4 	movhi	r7,16358
 4021650:	39cb9084 	addi	r7,r7,11842
 4021654:	01bfb834 	movhi	r6,65248
 4021658:	1009883a 	mov	r4,r2
 402165c:	180b883a 	mov	r5,r3
 4021660:	102d883a 	mov	r22,r2
 4021664:	182b883a 	mov	r21,r3
 4021668:	4023f980 	call	4023f98 <__muldf3>
 402166c:	100d883a 	mov	r6,r2
 4021670:	180f883a 	mov	r7,r3
 4021674:	8809883a 	mov	r4,r17
 4021678:	800b883a 	mov	r5,r16
 402167c:	40248040 	call	4024804 <__subdf3>
 4021680:	018d5e74 	movhi	r6,13689
 4021684:	01cf7ab4 	movhi	r7,15850
 4021688:	b009883a 	mov	r4,r22
 402168c:	a80b883a 	mov	r5,r21
 4021690:	318f1d84 	addi	r6,r6,15478
 4021694:	39ce7bc4 	addi	r7,r7,14831
 4021698:	1029883a 	mov	r20,r2
 402169c:	1827883a 	mov	r19,r3
 40216a0:	4023f980 	call	4023f98 <__muldf3>
 40216a4:	102d883a 	mov	r22,r2
 40216a8:	182b883a 	mov	r21,r3
 40216ac:	b00d883a 	mov	r6,r22
 40216b0:	a80f883a 	mov	r7,r21
 40216b4:	a009883a 	mov	r4,r20
 40216b8:	980b883a 	mov	r5,r19
 40216bc:	40248040 	call	4024804 <__subdf3>
 40216c0:	1023883a 	mov	r17,r2
 40216c4:	1821883a 	mov	r16,r3
 40216c8:	003f4106 	br	40213d0 <__flash_rwdata_start+0xfffeeafc>
 40216cc:	008ffc74 	movhi	r2,16369
 40216d0:	10a8ac44 	addi	r2,r2,-23887
 40216d4:	10ffc736 	bltu	r2,r3,40215f4 <__flash_rwdata_start+0xfffeed20>
 40216d8:	b82290fa 	slli	r17,r23,3
 40216dc:	00800034 	movhi	r2,0
 40216e0:	10800604 	addi	r2,r2,24
 40216e4:	1445883a 	add	r2,r2,r17
 40216e8:	11800017 	ldw	r6,0(r2)
 40216ec:	11c00117 	ldw	r7,4(r2)
 40216f0:	04800044 	movi	r18,1
 40216f4:	95e5c83a 	sub	r18,r18,r23
 40216f8:	40248040 	call	4024804 <__subdf3>
 40216fc:	1029883a 	mov	r20,r2
 4021700:	00800034 	movhi	r2,0
 4021704:	10800204 	addi	r2,r2,8
 4021708:	1463883a 	add	r17,r2,r17
 402170c:	1827883a 	mov	r19,r3
 4021710:	8d800017 	ldw	r22,0(r17)
 4021714:	8d400117 	ldw	r21,4(r17)
 4021718:	95e5c83a 	sub	r18,r18,r23
 402171c:	003fe306 	br	40216ac <__flash_rwdata_start+0xfffeedd8>
 4021720:	01a20034 	movhi	r6,34816
 4021724:	01df8e34 	movhi	r7,32312
 4021728:	319d6704 	addi	r6,r6,30108
 402172c:	39f90f04 	addi	r7,r7,-7108
 4021730:	4022b4c0 	call	4022b4c <__adddf3>
 4021734:	000d883a 	mov	r6,zero
 4021738:	01cffc34 	movhi	r7,16368
 402173c:	1009883a 	mov	r4,r2
 4021740:	180b883a 	mov	r5,r3
 4021744:	4023dc80 	call	4023dc8 <__gedf2>
 4021748:	00bf200e 	bge	zero,r2,40213cc <__flash_rwdata_start+0xfffeeaf8>
 402174c:	000d883a 	mov	r6,zero
 4021750:	01cffc34 	movhi	r7,16368
 4021754:	8809883a 	mov	r4,r17
 4021758:	800b883a 	mov	r5,r16
 402175c:	4022b4c0 	call	4022b4c <__adddf3>
 4021760:	003f8a06 	br	402158c <__flash_rwdata_start+0xfffeecb8>
 4021764:	9020953a 	slli	r16,r18,20
 4021768:	80c7883a 	add	r3,r16,r3
 402176c:	003f8706 	br	402158c <__flash_rwdata_start+0xfffeecb8>
 4021770:	01a20034 	movhi	r6,34816
 4021774:	01df8e34 	movhi	r7,32312
 4021778:	319d6704 	addi	r6,r6,30108
 402177c:	39f90f04 	addi	r7,r7,-7108
 4021780:	3009883a 	mov	r4,r6
 4021784:	380b883a 	mov	r5,r7
 4021788:	4023f980 	call	4023f98 <__muldf3>
 402178c:	003f7f06 	br	402158c <__flash_rwdata_start+0xfffeecb8>
 4021790:	200d883a 	mov	r6,r4
 4021794:	280f883a 	mov	r7,r5
 4021798:	4022b4c0 	call	4022b4c <__adddf3>
 402179c:	003f7b06 	br	402158c <__flash_rwdata_start+0xfffeecb8>
 40217a0:	8809883a 	mov	r4,r17
 40217a4:	800b883a 	mov	r5,r16
 40217a8:	100d883a 	mov	r6,r2
 40217ac:	180f883a 	mov	r7,r3
 40217b0:	4023f980 	call	4023f98 <__muldf3>
 40217b4:	e009883a 	mov	r4,fp
 40217b8:	b80b883a 	mov	r5,r23
 40217bc:	000d883a 	mov	r6,zero
 40217c0:	01d00034 	movhi	r7,16384
 40217c4:	1027883a 	mov	r19,r2
 40217c8:	1825883a 	mov	r18,r3
 40217cc:	40248040 	call	4024804 <__subdf3>
 40217d0:	9809883a 	mov	r4,r19
 40217d4:	900b883a 	mov	r5,r18
 40217d8:	100d883a 	mov	r6,r2
 40217dc:	180f883a 	mov	r7,r3
 40217e0:	40233f80 	call	40233f8 <__divdf3>
 40217e4:	880d883a 	mov	r6,r17
 40217e8:	800f883a 	mov	r7,r16
 40217ec:	1009883a 	mov	r4,r2
 40217f0:	180b883a 	mov	r5,r3
 40217f4:	40248040 	call	4024804 <__subdf3>
 40217f8:	100d883a 	mov	r6,r2
 40217fc:	180f883a 	mov	r7,r3
 4021800:	0009883a 	mov	r4,zero
 4021804:	014ffc34 	movhi	r5,16368
 4021808:	40248040 	call	4024804 <__subdf3>
 402180c:	003f5f06 	br	402158c <__flash_rwdata_start+0xfffeecb8>
 4021810:	0005883a 	mov	r2,zero
 4021814:	0007883a 	mov	r3,zero
 4021818:	003f5c06 	br	402158c <__flash_rwdata_start+0xfffeecb8>

0402181c <finite>:
 402181c:	00a00034 	movhi	r2,32768
 4021820:	10bfffc4 	addi	r2,r2,-1
 4021824:	288a703a 	and	r5,r5,r2
 4021828:	00e00434 	movhi	r3,32784
 402182c:	28c5883a 	add	r2,r5,r3
 4021830:	1004d7fa 	srli	r2,r2,31
 4021834:	f800283a 	ret

04021838 <matherr>:
 4021838:	0005883a 	mov	r2,zero
 402183c:	f800283a 	ret

04021840 <__addsf3>:
 4021840:	defffc04 	addi	sp,sp,-16
 4021844:	2004d7fa 	srli	r2,r4,31
 4021848:	280cd5fa 	srli	r6,r5,23
 402184c:	dc000015 	stw	r16,0(sp)
 4021850:	00c02034 	movhi	r3,128
 4021854:	2020d5fa 	srli	r16,r4,23
 4021858:	280ed7fa 	srli	r7,r5,31
 402185c:	18ffffc4 	addi	r3,r3,-1
 4021860:	dc400115 	stw	r17,4(sp)
 4021864:	1908703a 	and	r4,r3,r4
 4021868:	194a703a 	and	r5,r3,r5
 402186c:	dfc00315 	stw	ra,12(sp)
 4021870:	dc800215 	stw	r18,8(sp)
 4021874:	14403fcc 	andi	r17,r2,255
 4021878:	84003fcc 	andi	r16,r16,255
 402187c:	200890fa 	slli	r4,r4,3
 4021880:	31803fcc 	andi	r6,r6,255
 4021884:	280a90fa 	slli	r5,r5,3
 4021888:	89c05026 	beq	r17,r7,40219cc <__addsf3+0x18c>
 402188c:	8185c83a 	sub	r2,r16,r6
 4021890:	00807a0e 	bge	zero,r2,4021a7c <__addsf3+0x23c>
 4021894:	30001e1e 	bne	r6,zero,4021910 <__addsf3+0xd0>
 4021898:	28006d1e 	bne	r5,zero,4021a50 <__addsf3+0x210>
 402189c:	208001cc 	andi	r2,r4,7
 40218a0:	10000426 	beq	r2,zero,40218b4 <__addsf3+0x74>
 40218a4:	208003cc 	andi	r2,r4,15
 40218a8:	00c00104 	movi	r3,4
 40218ac:	10c00126 	beq	r2,r3,40218b4 <__addsf3+0x74>
 40218b0:	20c9883a 	add	r4,r4,r3
 40218b4:	2081002c 	andhi	r2,r4,1024
 40218b8:	10003926 	beq	r2,zero,40219a0 <__addsf3+0x160>
 40218bc:	84000044 	addi	r16,r16,1
 40218c0:	00803fc4 	movi	r2,255
 40218c4:	80807826 	beq	r16,r2,4021aa8 <__addsf3+0x268>
 40218c8:	200891ba 	slli	r4,r4,6
 40218cc:	8805883a 	mov	r2,r17
 40218d0:	2008d27a 	srli	r4,r4,9
 40218d4:	84003fcc 	andi	r16,r16,255
 40218d8:	800695fa 	slli	r3,r16,23
 40218dc:	10803fcc 	andi	r2,r2,255
 40218e0:	04002034 	movhi	r16,128
 40218e4:	843fffc4 	addi	r16,r16,-1
 40218e8:	100497fa 	slli	r2,r2,31
 40218ec:	2408703a 	and	r4,r4,r16
 40218f0:	20e0b03a 	or	r16,r4,r3
 40218f4:	8084b03a 	or	r2,r16,r2
 40218f8:	dfc00317 	ldw	ra,12(sp)
 40218fc:	dc800217 	ldw	r18,8(sp)
 4021900:	dc400117 	ldw	r17,4(sp)
 4021904:	dc000017 	ldw	r16,0(sp)
 4021908:	dec00404 	addi	sp,sp,16
 402190c:	f800283a 	ret
 4021910:	00c03fc4 	movi	r3,255
 4021914:	80ffe126 	beq	r16,r3,402189c <__flash_rwdata_start+0xfffeefc8>
 4021918:	29410034 	orhi	r5,r5,1024
 402191c:	00c006c4 	movi	r3,27
 4021920:	18807516 	blt	r3,r2,4021af8 <__addsf3+0x2b8>
 4021924:	00c00804 	movi	r3,32
 4021928:	1887c83a 	sub	r3,r3,r2
 402192c:	28c6983a 	sll	r3,r5,r3
 4021930:	288ad83a 	srl	r5,r5,r2
 4021934:	1804c03a 	cmpne	r2,r3,zero
 4021938:	288ab03a 	or	r5,r5,r2
 402193c:	2149c83a 	sub	r4,r4,r5
 4021940:	2081002c 	andhi	r2,r4,1024
 4021944:	10001426 	beq	r2,zero,4021998 <__addsf3+0x158>
 4021948:	04810034 	movhi	r18,1024
 402194c:	94bfffc4 	addi	r18,r18,-1
 4021950:	24a4703a 	and	r18,r4,r18
 4021954:	9009883a 	mov	r4,r18
 4021958:	40255140 	call	4025514 <__clzsi2>
 402195c:	10bffec4 	addi	r2,r2,-5
 4021960:	90a4983a 	sll	r18,r18,r2
 4021964:	14005416 	blt	r2,r16,4021ab8 <__addsf3+0x278>
 4021968:	1405c83a 	sub	r2,r2,r16
 402196c:	11000044 	addi	r4,r2,1
 4021970:	00800804 	movi	r2,32
 4021974:	1105c83a 	sub	r2,r2,r4
 4021978:	9084983a 	sll	r2,r18,r2
 402197c:	9124d83a 	srl	r18,r18,r4
 4021980:	0021883a 	mov	r16,zero
 4021984:	1008c03a 	cmpne	r4,r2,zero
 4021988:	9108b03a 	or	r4,r18,r4
 402198c:	003fc306 	br	402189c <__flash_rwdata_start+0xfffeefc8>
 4021990:	1000db26 	beq	r2,zero,4021d00 <__addsf3+0x4c0>
 4021994:	1009883a 	mov	r4,r2
 4021998:	208001cc 	andi	r2,r4,7
 402199c:	103fc11e 	bne	r2,zero,40218a4 <__flash_rwdata_start+0xfffeefd0>
 40219a0:	2006d0fa 	srli	r3,r4,3
 40219a4:	01003fc4 	movi	r4,255
 40219a8:	8805883a 	mov	r2,r17
 40219ac:	8100241e 	bne	r16,r4,4021a40 <__addsf3+0x200>
 40219b0:	18006e26 	beq	r3,zero,4021b6c <__addsf3+0x32c>
 40219b4:	19001034 	orhi	r4,r3,64
 40219b8:	00c02034 	movhi	r3,128
 40219bc:	18ffffc4 	addi	r3,r3,-1
 40219c0:	043fffc4 	movi	r16,-1
 40219c4:	20c8703a 	and	r4,r4,r3
 40219c8:	003fc206 	br	40218d4 <__flash_rwdata_start+0xfffef000>
 40219cc:	8187c83a 	sub	r3,r16,r6
 40219d0:	00c03e0e 	bge	zero,r3,4021acc <__addsf3+0x28c>
 40219d4:	30002326 	beq	r6,zero,4021a64 <__addsf3+0x224>
 40219d8:	01803fc4 	movi	r6,255
 40219dc:	81bfaf26 	beq	r16,r6,402189c <__flash_rwdata_start+0xfffeefc8>
 40219e0:	29410034 	orhi	r5,r5,1024
 40219e4:	018006c4 	movi	r6,27
 40219e8:	30c07416 	blt	r6,r3,4021bbc <__addsf3+0x37c>
 40219ec:	01800804 	movi	r6,32
 40219f0:	30cdc83a 	sub	r6,r6,r3
 40219f4:	298c983a 	sll	r6,r5,r6
 40219f8:	28cad83a 	srl	r5,r5,r3
 40219fc:	3006c03a 	cmpne	r3,r6,zero
 4021a00:	28cab03a 	or	r5,r5,r3
 4021a04:	2149883a 	add	r4,r4,r5
 4021a08:	20c1002c 	andhi	r3,r4,1024
 4021a0c:	183fe226 	beq	r3,zero,4021998 <__flash_rwdata_start+0xfffef0c4>
 4021a10:	84000044 	addi	r16,r16,1
 4021a14:	00c03fc4 	movi	r3,255
 4021a18:	80c05426 	beq	r16,r3,4021b6c <__addsf3+0x32c>
 4021a1c:	00bf0034 	movhi	r2,64512
 4021a20:	10bfffc4 	addi	r2,r2,-1
 4021a24:	20c0004c 	andi	r3,r4,1
 4021a28:	2088703a 	and	r4,r4,r2
 4021a2c:	2008d07a 	srli	r4,r4,1
 4021a30:	20c8b03a 	or	r4,r4,r3
 4021a34:	003f9906 	br	402189c <__flash_rwdata_start+0xfffeefc8>
 4021a38:	0007883a 	mov	r3,zero
 4021a3c:	0005883a 	mov	r2,zero
 4021a40:	01002034 	movhi	r4,128
 4021a44:	213fffc4 	addi	r4,r4,-1
 4021a48:	1908703a 	and	r4,r3,r4
 4021a4c:	003fa106 	br	40218d4 <__flash_rwdata_start+0xfffef000>
 4021a50:	10bfffc4 	addi	r2,r2,-1
 4021a54:	103fb926 	beq	r2,zero,402193c <__flash_rwdata_start+0xfffef068>
 4021a58:	00c03fc4 	movi	r3,255
 4021a5c:	80ffaf1e 	bne	r16,r3,402191c <__flash_rwdata_start+0xfffef048>
 4021a60:	003f8e06 	br	402189c <__flash_rwdata_start+0xfffeefc8>
 4021a64:	283f8d26 	beq	r5,zero,402189c <__flash_rwdata_start+0xfffeefc8>
 4021a68:	18ffffc4 	addi	r3,r3,-1
 4021a6c:	183fe526 	beq	r3,zero,4021a04 <__flash_rwdata_start+0xfffef130>
 4021a70:	01803fc4 	movi	r6,255
 4021a74:	81bfdb1e 	bne	r16,r6,40219e4 <__flash_rwdata_start+0xfffef110>
 4021a78:	003f8806 	br	402189c <__flash_rwdata_start+0xfffeefc8>
 4021a7c:	1000201e 	bne	r2,zero,4021b00 <__addsf3+0x2c0>
 4021a80:	80800044 	addi	r2,r16,1
 4021a84:	10803fcc 	andi	r2,r2,255
 4021a88:	01800044 	movi	r6,1
 4021a8c:	3080450e 	bge	r6,r2,4021ba4 <__addsf3+0x364>
 4021a90:	2165c83a 	sub	r18,r4,r5
 4021a94:	90c1002c 	andhi	r3,r18,1024
 4021a98:	18002b26 	beq	r3,zero,4021b48 <__addsf3+0x308>
 4021a9c:	2925c83a 	sub	r18,r5,r4
 4021aa0:	3823883a 	mov	r17,r7
 4021aa4:	003fab06 	br	4021954 <__flash_rwdata_start+0xfffef080>
 4021aa8:	8805883a 	mov	r2,r17
 4021aac:	043fffc4 	movi	r16,-1
 4021ab0:	0009883a 	mov	r4,zero
 4021ab4:	003f8706 	br	40218d4 <__flash_rwdata_start+0xfffef000>
 4021ab8:	013f0034 	movhi	r4,64512
 4021abc:	213fffc4 	addi	r4,r4,-1
 4021ac0:	80a1c83a 	sub	r16,r16,r2
 4021ac4:	9108703a 	and	r4,r18,r4
 4021ac8:	003f7406 	br	402189c <__flash_rwdata_start+0xfffeefc8>
 4021acc:	1800411e 	bne	r3,zero,4021bd4 <__addsf3+0x394>
 4021ad0:	80c00044 	addi	r3,r16,1
 4021ad4:	19c03fcc 	andi	r7,r3,255
 4021ad8:	01800044 	movi	r6,1
 4021adc:	31c0260e 	bge	r6,r7,4021b78 <__addsf3+0x338>
 4021ae0:	01803fc4 	movi	r6,255
 4021ae4:	19802126 	beq	r3,r6,4021b6c <__addsf3+0x32c>
 4021ae8:	2149883a 	add	r4,r4,r5
 4021aec:	2008d07a 	srli	r4,r4,1
 4021af0:	1821883a 	mov	r16,r3
 4021af4:	003f6906 	br	402189c <__flash_rwdata_start+0xfffeefc8>
 4021af8:	01400044 	movi	r5,1
 4021afc:	003f8f06 	br	402193c <__flash_rwdata_start+0xfffef068>
 4021b00:	8000151e 	bne	r16,zero,4021b58 <__addsf3+0x318>
 4021b04:	20002f26 	beq	r4,zero,4021bc4 <__addsf3+0x384>
 4021b08:	0084303a 	nor	r2,zero,r2
 4021b0c:	10000a26 	beq	r2,zero,4021b38 <__addsf3+0x2f8>
 4021b10:	00c03fc4 	movi	r3,255
 4021b14:	30c02b26 	beq	r6,r3,4021bc4 <__addsf3+0x384>
 4021b18:	00c006c4 	movi	r3,27
 4021b1c:	18806d16 	blt	r3,r2,4021cd4 <__addsf3+0x494>
 4021b20:	00c00804 	movi	r3,32
 4021b24:	1887c83a 	sub	r3,r3,r2
 4021b28:	20c6983a 	sll	r3,r4,r3
 4021b2c:	2084d83a 	srl	r2,r4,r2
 4021b30:	1808c03a 	cmpne	r4,r3,zero
 4021b34:	1108b03a 	or	r4,r2,r4
 4021b38:	2909c83a 	sub	r4,r5,r4
 4021b3c:	3021883a 	mov	r16,r6
 4021b40:	3823883a 	mov	r17,r7
 4021b44:	003f7e06 	br	4021940 <__flash_rwdata_start+0xfffef06c>
 4021b48:	903f821e 	bne	r18,zero,4021954 <__flash_rwdata_start+0xfffef080>
 4021b4c:	0005883a 	mov	r2,zero
 4021b50:	0021883a 	mov	r16,zero
 4021b54:	003fba06 	br	4021a40 <__flash_rwdata_start+0xfffef16c>
 4021b58:	00c03fc4 	movi	r3,255
 4021b5c:	30c01926 	beq	r6,r3,4021bc4 <__addsf3+0x384>
 4021b60:	0085c83a 	sub	r2,zero,r2
 4021b64:	21010034 	orhi	r4,r4,1024
 4021b68:	003feb06 	br	4021b18 <__flash_rwdata_start+0xfffef244>
 4021b6c:	043fffc4 	movi	r16,-1
 4021b70:	0009883a 	mov	r4,zero
 4021b74:	003f5706 	br	40218d4 <__flash_rwdata_start+0xfffef000>
 4021b78:	80004a1e 	bne	r16,zero,4021ca4 <__addsf3+0x464>
 4021b7c:	20005926 	beq	r4,zero,4021ce4 <__addsf3+0x4a4>
 4021b80:	283f4626 	beq	r5,zero,402189c <__flash_rwdata_start+0xfffeefc8>
 4021b84:	2149883a 	add	r4,r4,r5
 4021b88:	2081002c 	andhi	r2,r4,1024
 4021b8c:	103f8226 	beq	r2,zero,4021998 <__flash_rwdata_start+0xfffef0c4>
 4021b90:	00bf0034 	movhi	r2,64512
 4021b94:	10bfffc4 	addi	r2,r2,-1
 4021b98:	3021883a 	mov	r16,r6
 4021b9c:	2088703a 	and	r4,r4,r2
 4021ba0:	003f3e06 	br	402189c <__flash_rwdata_start+0xfffeefc8>
 4021ba4:	8000121e 	bne	r16,zero,4021bf0 <__addsf3+0x3b0>
 4021ba8:	2000261e 	bne	r4,zero,4021c44 <__addsf3+0x404>
 4021bac:	283fa226 	beq	r5,zero,4021a38 <__flash_rwdata_start+0xfffef164>
 4021bb0:	2809883a 	mov	r4,r5
 4021bb4:	3823883a 	mov	r17,r7
 4021bb8:	003f3806 	br	402189c <__flash_rwdata_start+0xfffeefc8>
 4021bbc:	01400044 	movi	r5,1
 4021bc0:	003f9006 	br	4021a04 <__flash_rwdata_start+0xfffef130>
 4021bc4:	2809883a 	mov	r4,r5
 4021bc8:	3021883a 	mov	r16,r6
 4021bcc:	3823883a 	mov	r17,r7
 4021bd0:	003f3206 	br	402189c <__flash_rwdata_start+0xfffeefc8>
 4021bd4:	80000c1e 	bne	r16,zero,4021c08 <__addsf3+0x3c8>
 4021bd8:	20002f26 	beq	r4,zero,4021c98 <__addsf3+0x458>
 4021bdc:	00c6303a 	nor	r3,zero,r3
 4021be0:	18002b1e 	bne	r3,zero,4021c90 <__addsf3+0x450>
 4021be4:	2149883a 	add	r4,r4,r5
 4021be8:	3021883a 	mov	r16,r6
 4021bec:	003f8606 	br	4021a08 <__flash_rwdata_start+0xfffef134>
 4021bf0:	20001b1e 	bne	r4,zero,4021c60 <__addsf3+0x420>
 4021bf4:	28003926 	beq	r5,zero,4021cdc <__addsf3+0x49c>
 4021bf8:	2809883a 	mov	r4,r5
 4021bfc:	3823883a 	mov	r17,r7
 4021c00:	04003fc4 	movi	r16,255
 4021c04:	003f2506 	br	402189c <__flash_rwdata_start+0xfffeefc8>
 4021c08:	01c03fc4 	movi	r7,255
 4021c0c:	31c02226 	beq	r6,r7,4021c98 <__addsf3+0x458>
 4021c10:	00c7c83a 	sub	r3,zero,r3
 4021c14:	21010034 	orhi	r4,r4,1024
 4021c18:	01c006c4 	movi	r7,27
 4021c1c:	38c03616 	blt	r7,r3,4021cf8 <__addsf3+0x4b8>
 4021c20:	01c00804 	movi	r7,32
 4021c24:	38cfc83a 	sub	r7,r7,r3
 4021c28:	21ce983a 	sll	r7,r4,r7
 4021c2c:	20c6d83a 	srl	r3,r4,r3
 4021c30:	3808c03a 	cmpne	r4,r7,zero
 4021c34:	1906b03a 	or	r3,r3,r4
 4021c38:	1949883a 	add	r4,r3,r5
 4021c3c:	3021883a 	mov	r16,r6
 4021c40:	003f7106 	br	4021a08 <__flash_rwdata_start+0xfffef134>
 4021c44:	283f1526 	beq	r5,zero,402189c <__flash_rwdata_start+0xfffeefc8>
 4021c48:	2145c83a 	sub	r2,r4,r5
 4021c4c:	10c1002c 	andhi	r3,r2,1024
 4021c50:	183f4f26 	beq	r3,zero,4021990 <__flash_rwdata_start+0xfffef0bc>
 4021c54:	2909c83a 	sub	r4,r5,r4
 4021c58:	3823883a 	mov	r17,r7
 4021c5c:	003f0f06 	br	402189c <__flash_rwdata_start+0xfffeefc8>
 4021c60:	28001a26 	beq	r5,zero,4021ccc <__addsf3+0x48c>
 4021c64:	2008d0fa 	srli	r4,r4,3
 4021c68:	2080102c 	andhi	r2,r4,64
 4021c6c:	10000526 	beq	r2,zero,4021c84 <__addsf3+0x444>
 4021c70:	280ad0fa 	srli	r5,r5,3
 4021c74:	2880102c 	andhi	r2,r5,64
 4021c78:	1000021e 	bne	r2,zero,4021c84 <__addsf3+0x444>
 4021c7c:	2809883a 	mov	r4,r5
 4021c80:	3823883a 	mov	r17,r7
 4021c84:	200890fa 	slli	r4,r4,3
 4021c88:	04003fc4 	movi	r16,255
 4021c8c:	003f0306 	br	402189c <__flash_rwdata_start+0xfffeefc8>
 4021c90:	01c03fc4 	movi	r7,255
 4021c94:	31ffe01e 	bne	r6,r7,4021c18 <__flash_rwdata_start+0xfffef344>
 4021c98:	2809883a 	mov	r4,r5
 4021c9c:	3021883a 	mov	r16,r6
 4021ca0:	003efe06 	br	402189c <__flash_rwdata_start+0xfffeefc8>
 4021ca4:	20001126 	beq	r4,zero,4021cec <__addsf3+0x4ac>
 4021ca8:	28000826 	beq	r5,zero,4021ccc <__addsf3+0x48c>
 4021cac:	2008d0fa 	srli	r4,r4,3
 4021cb0:	2080102c 	andhi	r2,r4,64
 4021cb4:	103ff326 	beq	r2,zero,4021c84 <__flash_rwdata_start+0xfffef3b0>
 4021cb8:	280ad0fa 	srli	r5,r5,3
 4021cbc:	2880102c 	andhi	r2,r5,64
 4021cc0:	103ff01e 	bne	r2,zero,4021c84 <__flash_rwdata_start+0xfffef3b0>
 4021cc4:	2809883a 	mov	r4,r5
 4021cc8:	003fee06 	br	4021c84 <__flash_rwdata_start+0xfffef3b0>
 4021ccc:	04003fc4 	movi	r16,255
 4021cd0:	003ef206 	br	402189c <__flash_rwdata_start+0xfffeefc8>
 4021cd4:	01000044 	movi	r4,1
 4021cd8:	003f9706 	br	4021b38 <__flash_rwdata_start+0xfffef264>
 4021cdc:	0005883a 	mov	r2,zero
 4021ce0:	003f3406 	br	40219b4 <__flash_rwdata_start+0xfffef0e0>
 4021ce4:	2809883a 	mov	r4,r5
 4021ce8:	003eec06 	br	402189c <__flash_rwdata_start+0xfffeefc8>
 4021cec:	2809883a 	mov	r4,r5
 4021cf0:	04003fc4 	movi	r16,255
 4021cf4:	003ee906 	br	402189c <__flash_rwdata_start+0xfffeefc8>
 4021cf8:	00c00044 	movi	r3,1
 4021cfc:	003fce06 	br	4021c38 <__flash_rwdata_start+0xfffef364>
 4021d00:	0005883a 	mov	r2,zero
 4021d04:	003f4e06 	br	4021a40 <__flash_rwdata_start+0xfffef16c>

04021d08 <__divsf3>:
 4021d08:	defff504 	addi	sp,sp,-44
 4021d0c:	200cd5fa 	srli	r6,r4,23
 4021d10:	dcc00415 	stw	r19,16(sp)
 4021d14:	2026d7fa 	srli	r19,r4,31
 4021d18:	00c02034 	movhi	r3,128
 4021d1c:	dd800715 	stw	r22,28(sp)
 4021d20:	dd000515 	stw	r20,20(sp)
 4021d24:	dc800315 	stw	r18,12(sp)
 4021d28:	18ffffc4 	addi	r3,r3,-1
 4021d2c:	dfc00a15 	stw	ra,40(sp)
 4021d30:	df000915 	stw	fp,36(sp)
 4021d34:	ddc00815 	stw	r23,32(sp)
 4021d38:	dd400615 	stw	r21,24(sp)
 4021d3c:	dc400215 	stw	r17,8(sp)
 4021d40:	dc000115 	stw	r16,4(sp)
 4021d44:	35003fcc 	andi	r20,r6,255
 4021d48:	1924703a 	and	r18,r3,r4
 4021d4c:	9d803fcc 	andi	r22,r19,255
 4021d50:	a0005226 	beq	r20,zero,4021e9c <__divsf3+0x194>
 4021d54:	00803fc4 	movi	r2,255
 4021d58:	a0802e26 	beq	r20,r2,4021e14 <__divsf3+0x10c>
 4021d5c:	91002034 	orhi	r4,r18,128
 4021d60:	202490fa 	slli	r18,r4,3
 4021d64:	a53fe044 	addi	r20,r20,-127
 4021d68:	0021883a 	mov	r16,zero
 4021d6c:	002f883a 	mov	r23,zero
 4021d70:	280cd5fa 	srli	r6,r5,23
 4021d74:	282ad7fa 	srli	r21,r5,31
 4021d78:	00c02034 	movhi	r3,128
 4021d7c:	18ffffc4 	addi	r3,r3,-1
 4021d80:	31803fcc 	andi	r6,r6,255
 4021d84:	1962703a 	and	r17,r3,r5
 4021d88:	af003fcc 	andi	fp,r21,255
 4021d8c:	30004a26 	beq	r6,zero,4021eb8 <__divsf3+0x1b0>
 4021d90:	00803fc4 	movi	r2,255
 4021d94:	30804526 	beq	r6,r2,4021eac <__divsf3+0x1a4>
 4021d98:	89402034 	orhi	r5,r17,128
 4021d9c:	282290fa 	slli	r17,r5,3
 4021da0:	31bfe044 	addi	r6,r6,-127
 4021da4:	000b883a 	mov	r5,zero
 4021da8:	2c20b03a 	or	r16,r5,r16
 4021dac:	802090ba 	slli	r16,r16,2
 4021db0:	008100b4 	movhi	r2,1026
 4021db4:	10877504 	addi	r2,r2,7636
 4021db8:	80a1883a 	add	r16,r16,r2
 4021dbc:	81000017 	ldw	r4,0(r16)
 4021dc0:	9d46f03a 	xor	r3,r19,r21
 4021dc4:	180f883a 	mov	r7,r3
 4021dc8:	18803fcc 	andi	r2,r3,255
 4021dcc:	a18dc83a 	sub	r6,r20,r6
 4021dd0:	2000683a 	jmp	r4
 4021dd4:	04021fb8 	rdprs	r16,zero,2174
 4021dd8:	04021e3c 	xorhi	r16,zero,2168
 4021ddc:	04021fac 	andhi	r16,zero,2174
 4021de0:	04021e28 	cmpgeui	r16,zero,2168
 4021de4:	04021fac 	andhi	r16,zero,2174
 4021de8:	04021f84 	movi	r16,2174
 4021dec:	04021fac 	andhi	r16,zero,2174
 4021df0:	04021e28 	cmpgeui	r16,zero,2168
 4021df4:	04021e3c 	xorhi	r16,zero,2168
 4021df8:	04021e3c 	xorhi	r16,zero,2168
 4021dfc:	04021f84 	movi	r16,2174
 4021e00:	04021e28 	cmpgeui	r16,zero,2168
 4021e04:	04022098 	cmpnei	r16,zero,2178
 4021e08:	04022098 	cmpnei	r16,zero,2178
 4021e0c:	04022098 	cmpnei	r16,zero,2178
 4021e10:	0402204c 	andi	r16,zero,2177
 4021e14:	9000581e 	bne	r18,zero,4021f78 <__divsf3+0x270>
 4021e18:	04000204 	movi	r16,8
 4021e1c:	05c00084 	movi	r23,2
 4021e20:	003fd306 	br	4021d70 <__flash_rwdata_start+0xfffef49c>
 4021e24:	0023883a 	mov	r17,zero
 4021e28:	e02d883a 	mov	r22,fp
 4021e2c:	282f883a 	mov	r23,r5
 4021e30:	00800084 	movi	r2,2
 4021e34:	b8808f1e 	bne	r23,r2,4022074 <__divsf3+0x36c>
 4021e38:	b005883a 	mov	r2,r22
 4021e3c:	11c0004c 	andi	r7,r2,1
 4021e40:	013fffc4 	movi	r4,-1
 4021e44:	000d883a 	mov	r6,zero
 4021e48:	21003fcc 	andi	r4,r4,255
 4021e4c:	200895fa 	slli	r4,r4,23
 4021e50:	38803fcc 	andi	r2,r7,255
 4021e54:	00c02034 	movhi	r3,128
 4021e58:	100497fa 	slli	r2,r2,31
 4021e5c:	18ffffc4 	addi	r3,r3,-1
 4021e60:	30c6703a 	and	r3,r6,r3
 4021e64:	1906b03a 	or	r3,r3,r4
 4021e68:	1884b03a 	or	r2,r3,r2
 4021e6c:	dfc00a17 	ldw	ra,40(sp)
 4021e70:	df000917 	ldw	fp,36(sp)
 4021e74:	ddc00817 	ldw	r23,32(sp)
 4021e78:	dd800717 	ldw	r22,28(sp)
 4021e7c:	dd400617 	ldw	r21,24(sp)
 4021e80:	dd000517 	ldw	r20,20(sp)
 4021e84:	dcc00417 	ldw	r19,16(sp)
 4021e88:	dc800317 	ldw	r18,12(sp)
 4021e8c:	dc400217 	ldw	r17,8(sp)
 4021e90:	dc000117 	ldw	r16,4(sp)
 4021e94:	dec00b04 	addi	sp,sp,44
 4021e98:	f800283a 	ret
 4021e9c:	90002b1e 	bne	r18,zero,4021f4c <__divsf3+0x244>
 4021ea0:	04000104 	movi	r16,4
 4021ea4:	05c00044 	movi	r23,1
 4021ea8:	003fb106 	br	4021d70 <__flash_rwdata_start+0xfffef49c>
 4021eac:	8800251e 	bne	r17,zero,4021f44 <__divsf3+0x23c>
 4021eb0:	01400084 	movi	r5,2
 4021eb4:	00000206 	br	4021ec0 <__divsf3+0x1b8>
 4021eb8:	88001a1e 	bne	r17,zero,4021f24 <__divsf3+0x21c>
 4021ebc:	01400044 	movi	r5,1
 4021ec0:	8160b03a 	or	r16,r16,r5
 4021ec4:	802090ba 	slli	r16,r16,2
 4021ec8:	00c100b4 	movhi	r3,1026
 4021ecc:	18c7b904 	addi	r3,r3,7908
 4021ed0:	80e1883a 	add	r16,r16,r3
 4021ed4:	80c00017 	ldw	r3,0(r16)
 4021ed8:	9d44f03a 	xor	r2,r19,r21
 4021edc:	a18dc83a 	sub	r6,r20,r6
 4021ee0:	1800683a 	jmp	r3
 4021ee4:	04021e3c 	xorhi	r16,zero,2168
 4021ee8:	04021e3c 	xorhi	r16,zero,2168
 4021eec:	04022088 	cmpgei	r16,zero,2178
 4021ef0:	04021e24 	muli	r16,zero,2168
 4021ef4:	04022088 	cmpgei	r16,zero,2178
 4021ef8:	04021f84 	movi	r16,2174
 4021efc:	04022088 	cmpgei	r16,zero,2178
 4021f00:	04021e24 	muli	r16,zero,2168
 4021f04:	04021e3c 	xorhi	r16,zero,2168
 4021f08:	04021e3c 	xorhi	r16,zero,2168
 4021f0c:	04021f84 	movi	r16,2174
 4021f10:	04021e24 	muli	r16,zero,2168
 4021f14:	04022098 	cmpnei	r16,zero,2178
 4021f18:	04022098 	cmpnei	r16,zero,2178
 4021f1c:	04022098 	cmpnei	r16,zero,2178
 4021f20:	040220b0 	cmpltui	r16,zero,2178
 4021f24:	8809883a 	mov	r4,r17
 4021f28:	40255140 	call	4025514 <__clzsi2>
 4021f2c:	10fffec4 	addi	r3,r2,-5
 4021f30:	10801d84 	addi	r2,r2,118
 4021f34:	88e2983a 	sll	r17,r17,r3
 4021f38:	008dc83a 	sub	r6,zero,r2
 4021f3c:	000b883a 	mov	r5,zero
 4021f40:	003f9906 	br	4021da8 <__flash_rwdata_start+0xfffef4d4>
 4021f44:	014000c4 	movi	r5,3
 4021f48:	003f9706 	br	4021da8 <__flash_rwdata_start+0xfffef4d4>
 4021f4c:	9009883a 	mov	r4,r18
 4021f50:	d9400015 	stw	r5,0(sp)
 4021f54:	40255140 	call	4025514 <__clzsi2>
 4021f58:	10fffec4 	addi	r3,r2,-5
 4021f5c:	11801d84 	addi	r6,r2,118
 4021f60:	90e4983a 	sll	r18,r18,r3
 4021f64:	01a9c83a 	sub	r20,zero,r6
 4021f68:	0021883a 	mov	r16,zero
 4021f6c:	002f883a 	mov	r23,zero
 4021f70:	d9400017 	ldw	r5,0(sp)
 4021f74:	003f7e06 	br	4021d70 <__flash_rwdata_start+0xfffef49c>
 4021f78:	04000304 	movi	r16,12
 4021f7c:	05c000c4 	movi	r23,3
 4021f80:	003f7b06 	br	4021d70 <__flash_rwdata_start+0xfffef49c>
 4021f84:	01802034 	movhi	r6,128
 4021f88:	000f883a 	mov	r7,zero
 4021f8c:	31bfffc4 	addi	r6,r6,-1
 4021f90:	013fffc4 	movi	r4,-1
 4021f94:	003fac06 	br	4021e48 <__flash_rwdata_start+0xfffef574>
 4021f98:	01400044 	movi	r5,1
 4021f9c:	2909c83a 	sub	r4,r5,r4
 4021fa0:	00c006c4 	movi	r3,27
 4021fa4:	19004b0e 	bge	r3,r4,40220d4 <__divsf3+0x3cc>
 4021fa8:	114e703a 	and	r7,r2,r5
 4021fac:	0009883a 	mov	r4,zero
 4021fb0:	000d883a 	mov	r6,zero
 4021fb4:	003fa406 	br	4021e48 <__flash_rwdata_start+0xfffef574>
 4021fb8:	9006917a 	slli	r3,r18,5
 4021fbc:	8822917a 	slli	r17,r17,5
 4021fc0:	1c40372e 	bgeu	r3,r17,40220a0 <__divsf3+0x398>
 4021fc4:	31bfffc4 	addi	r6,r6,-1
 4021fc8:	010006c4 	movi	r4,27
 4021fcc:	000b883a 	mov	r5,zero
 4021fd0:	180f883a 	mov	r7,r3
 4021fd4:	294b883a 	add	r5,r5,r5
 4021fd8:	18c7883a 	add	r3,r3,r3
 4021fdc:	38000116 	blt	r7,zero,4021fe4 <__divsf3+0x2dc>
 4021fe0:	1c400236 	bltu	r3,r17,4021fec <__divsf3+0x2e4>
 4021fe4:	1c47c83a 	sub	r3,r3,r17
 4021fe8:	29400054 	ori	r5,r5,1
 4021fec:	213fffc4 	addi	r4,r4,-1
 4021ff0:	203ff71e 	bne	r4,zero,4021fd0 <__flash_rwdata_start+0xfffef6fc>
 4021ff4:	1806c03a 	cmpne	r3,r3,zero
 4021ff8:	1962b03a 	or	r17,r3,r5
 4021ffc:	31001fc4 	addi	r4,r6,127
 4022000:	013fe50e 	bge	zero,r4,4021f98 <__flash_rwdata_start+0xfffef6c4>
 4022004:	88c001cc 	andi	r3,r17,7
 4022008:	18000426 	beq	r3,zero,402201c <__divsf3+0x314>
 402200c:	88c003cc 	andi	r3,r17,15
 4022010:	01400104 	movi	r5,4
 4022014:	19400126 	beq	r3,r5,402201c <__divsf3+0x314>
 4022018:	8963883a 	add	r17,r17,r5
 402201c:	88c2002c 	andhi	r3,r17,2048
 4022020:	18000426 	beq	r3,zero,4022034 <__divsf3+0x32c>
 4022024:	00fe0034 	movhi	r3,63488
 4022028:	18ffffc4 	addi	r3,r3,-1
 402202c:	31002004 	addi	r4,r6,128
 4022030:	88e2703a 	and	r17,r17,r3
 4022034:	00c03f84 	movi	r3,254
 4022038:	193f8016 	blt	r3,r4,4021e3c <__flash_rwdata_start+0xfffef568>
 402203c:	880c91ba 	slli	r6,r17,6
 4022040:	11c0004c 	andi	r7,r2,1
 4022044:	300cd27a 	srli	r6,r6,9
 4022048:	003f7f06 	br	4021e48 <__flash_rwdata_start+0xfffef574>
 402204c:	9080102c 	andhi	r2,r18,64
 4022050:	10000226 	beq	r2,zero,402205c <__divsf3+0x354>
 4022054:	8880102c 	andhi	r2,r17,64
 4022058:	10001826 	beq	r2,zero,40220bc <__divsf3+0x3b4>
 402205c:	00802034 	movhi	r2,128
 4022060:	91801034 	orhi	r6,r18,64
 4022064:	10bfffc4 	addi	r2,r2,-1
 4022068:	980f883a 	mov	r7,r19
 402206c:	308c703a 	and	r6,r6,r2
 4022070:	003fc706 	br	4021f90 <__flash_rwdata_start+0xfffef6bc>
 4022074:	008000c4 	movi	r2,3
 4022078:	b8802d26 	beq	r23,r2,4022130 <__divsf3+0x428>
 402207c:	00c00044 	movi	r3,1
 4022080:	b005883a 	mov	r2,r22
 4022084:	b8ffdd1e 	bne	r23,r3,4021ffc <__flash_rwdata_start+0xfffef728>
 4022088:	11c0004c 	andi	r7,r2,1
 402208c:	0009883a 	mov	r4,zero
 4022090:	000d883a 	mov	r6,zero
 4022094:	003f6c06 	br	4021e48 <__flash_rwdata_start+0xfffef574>
 4022098:	9023883a 	mov	r17,r18
 402209c:	003f6406 	br	4021e30 <__flash_rwdata_start+0xfffef55c>
 40220a0:	1c47c83a 	sub	r3,r3,r17
 40220a4:	01000684 	movi	r4,26
 40220a8:	01400044 	movi	r5,1
 40220ac:	003fc806 	br	4021fd0 <__flash_rwdata_start+0xfffef6fc>
 40220b0:	9080102c 	andhi	r2,r18,64
 40220b4:	103fe926 	beq	r2,zero,402205c <__flash_rwdata_start+0xfffef788>
 40220b8:	0023883a 	mov	r17,zero
 40220bc:	00802034 	movhi	r2,128
 40220c0:	89801034 	orhi	r6,r17,64
 40220c4:	10bfffc4 	addi	r2,r2,-1
 40220c8:	a80f883a 	mov	r7,r21
 40220cc:	308c703a 	and	r6,r6,r2
 40220d0:	003faf06 	br	4021f90 <__flash_rwdata_start+0xfffef6bc>
 40220d4:	01c00804 	movi	r7,32
 40220d8:	390fc83a 	sub	r7,r7,r4
 40220dc:	89ce983a 	sll	r7,r17,r7
 40220e0:	890ad83a 	srl	r5,r17,r4
 40220e4:	380ec03a 	cmpne	r7,r7,zero
 40220e8:	29cab03a 	or	r5,r5,r7
 40220ec:	28c001cc 	andi	r3,r5,7
 40220f0:	18000426 	beq	r3,zero,4022104 <__divsf3+0x3fc>
 40220f4:	28c003cc 	andi	r3,r5,15
 40220f8:	01000104 	movi	r4,4
 40220fc:	19000126 	beq	r3,r4,4022104 <__divsf3+0x3fc>
 4022100:	290b883a 	add	r5,r5,r4
 4022104:	28c1002c 	andhi	r3,r5,1024
 4022108:	18000426 	beq	r3,zero,402211c <__divsf3+0x414>
 402210c:	11c0004c 	andi	r7,r2,1
 4022110:	01000044 	movi	r4,1
 4022114:	000d883a 	mov	r6,zero
 4022118:	003f4b06 	br	4021e48 <__flash_rwdata_start+0xfffef574>
 402211c:	280a91ba 	slli	r5,r5,6
 4022120:	11c0004c 	andi	r7,r2,1
 4022124:	0009883a 	mov	r4,zero
 4022128:	280cd27a 	srli	r6,r5,9
 402212c:	003f4606 	br	4021e48 <__flash_rwdata_start+0xfffef574>
 4022130:	00802034 	movhi	r2,128
 4022134:	89801034 	orhi	r6,r17,64
 4022138:	10bfffc4 	addi	r2,r2,-1
 402213c:	b00f883a 	mov	r7,r22
 4022140:	308c703a 	and	r6,r6,r2
 4022144:	003f9206 	br	4021f90 <__flash_rwdata_start+0xfffef6bc>

04022148 <__mulsf3>:
 4022148:	defff504 	addi	sp,sp,-44
 402214c:	dc000115 	stw	r16,4(sp)
 4022150:	2020d5fa 	srli	r16,r4,23
 4022154:	dd400615 	stw	r21,24(sp)
 4022158:	202ad7fa 	srli	r21,r4,31
 402215c:	dc800315 	stw	r18,12(sp)
 4022160:	04802034 	movhi	r18,128
 4022164:	df000915 	stw	fp,36(sp)
 4022168:	dd000515 	stw	r20,20(sp)
 402216c:	94bfffc4 	addi	r18,r18,-1
 4022170:	dfc00a15 	stw	ra,40(sp)
 4022174:	ddc00815 	stw	r23,32(sp)
 4022178:	dd800715 	stw	r22,28(sp)
 402217c:	dcc00415 	stw	r19,16(sp)
 4022180:	dc400215 	stw	r17,8(sp)
 4022184:	84003fcc 	andi	r16,r16,255
 4022188:	9124703a 	and	r18,r18,r4
 402218c:	a829883a 	mov	r20,r21
 4022190:	af003fcc 	andi	fp,r21,255
 4022194:	80005426 	beq	r16,zero,40222e8 <__mulsf3+0x1a0>
 4022198:	00803fc4 	movi	r2,255
 402219c:	80802f26 	beq	r16,r2,402225c <__mulsf3+0x114>
 40221a0:	91002034 	orhi	r4,r18,128
 40221a4:	202490fa 	slli	r18,r4,3
 40221a8:	843fe044 	addi	r16,r16,-127
 40221ac:	0023883a 	mov	r17,zero
 40221b0:	002f883a 	mov	r23,zero
 40221b4:	2804d5fa 	srli	r2,r5,23
 40221b8:	282cd7fa 	srli	r22,r5,31
 40221bc:	01002034 	movhi	r4,128
 40221c0:	213fffc4 	addi	r4,r4,-1
 40221c4:	10803fcc 	andi	r2,r2,255
 40221c8:	2166703a 	and	r19,r4,r5
 40221cc:	b1803fcc 	andi	r6,r22,255
 40221d0:	10004c26 	beq	r2,zero,4022304 <__mulsf3+0x1bc>
 40221d4:	00c03fc4 	movi	r3,255
 40221d8:	10c04726 	beq	r2,r3,40222f8 <__mulsf3+0x1b0>
 40221dc:	99002034 	orhi	r4,r19,128
 40221e0:	202690fa 	slli	r19,r4,3
 40221e4:	10bfe044 	addi	r2,r2,-127
 40221e8:	0007883a 	mov	r3,zero
 40221ec:	80a1883a 	add	r16,r16,r2
 40221f0:	010003c4 	movi	r4,15
 40221f4:	1c44b03a 	or	r2,r3,r17
 40221f8:	b56af03a 	xor	r21,r22,r21
 40221fc:	81c00044 	addi	r7,r16,1
 4022200:	20806b36 	bltu	r4,r2,40223b0 <__mulsf3+0x268>
 4022204:	100490ba 	slli	r2,r2,2
 4022208:	010100b4 	movhi	r4,1026
 402220c:	21088704 	addi	r4,r4,8732
 4022210:	1105883a 	add	r2,r2,r4
 4022214:	10800017 	ldw	r2,0(r2)
 4022218:	1000683a 	jmp	r2
 402221c:	040223b0 	cmpltui	r16,zero,2190
 4022220:	04022270 	cmpltui	r16,zero,2185
 4022224:	04022270 	cmpltui	r16,zero,2185
 4022228:	0402226c 	andhi	r16,zero,2185
 402222c:	04022394 	movui	r16,2190
 4022230:	04022394 	movui	r16,2190
 4022234:	04022380 	call	402238 <_gp+0x3f8460>
 4022238:	0402226c 	andhi	r16,zero,2185
 402223c:	04022394 	movui	r16,2190
 4022240:	04022380 	call	402238 <_gp+0x3f8460>
 4022244:	04022394 	movui	r16,2190
 4022248:	0402226c 	andhi	r16,zero,2185
 402224c:	040223a0 	cmpeqi	r16,zero,2190
 4022250:	040223a0 	cmpeqi	r16,zero,2190
 4022254:	040223a0 	cmpeqi	r16,zero,2190
 4022258:	040224b0 	cmpltui	r16,zero,2194
 402225c:	90003b1e 	bne	r18,zero,402234c <__mulsf3+0x204>
 4022260:	04400204 	movi	r17,8
 4022264:	05c00084 	movi	r23,2
 4022268:	003fd206 	br	40221b4 <__flash_rwdata_start+0xfffef8e0>
 402226c:	302b883a 	mov	r21,r6
 4022270:	00800084 	movi	r2,2
 4022274:	18802626 	beq	r3,r2,4022310 <__mulsf3+0x1c8>
 4022278:	008000c4 	movi	r2,3
 402227c:	1880b826 	beq	r3,r2,4022560 <__mulsf3+0x418>
 4022280:	00800044 	movi	r2,1
 4022284:	1880af1e 	bne	r3,r2,4022544 <__mulsf3+0x3fc>
 4022288:	a829883a 	mov	r20,r21
 402228c:	0007883a 	mov	r3,zero
 4022290:	0009883a 	mov	r4,zero
 4022294:	18803fcc 	andi	r2,r3,255
 4022298:	100695fa 	slli	r3,r2,23
 402229c:	a0803fcc 	andi	r2,r20,255
 40222a0:	100a97fa 	slli	r5,r2,31
 40222a4:	00802034 	movhi	r2,128
 40222a8:	10bfffc4 	addi	r2,r2,-1
 40222ac:	2084703a 	and	r2,r4,r2
 40222b0:	10c4b03a 	or	r2,r2,r3
 40222b4:	1144b03a 	or	r2,r2,r5
 40222b8:	dfc00a17 	ldw	ra,40(sp)
 40222bc:	df000917 	ldw	fp,36(sp)
 40222c0:	ddc00817 	ldw	r23,32(sp)
 40222c4:	dd800717 	ldw	r22,28(sp)
 40222c8:	dd400617 	ldw	r21,24(sp)
 40222cc:	dd000517 	ldw	r20,20(sp)
 40222d0:	dcc00417 	ldw	r19,16(sp)
 40222d4:	dc800317 	ldw	r18,12(sp)
 40222d8:	dc400217 	ldw	r17,8(sp)
 40222dc:	dc000117 	ldw	r16,4(sp)
 40222e0:	dec00b04 	addi	sp,sp,44
 40222e4:	f800283a 	ret
 40222e8:	90000d1e 	bne	r18,zero,4022320 <__mulsf3+0x1d8>
 40222ec:	04400104 	movi	r17,4
 40222f0:	05c00044 	movi	r23,1
 40222f4:	003faf06 	br	40221b4 <__flash_rwdata_start+0xfffef8e0>
 40222f8:	9806c03a 	cmpne	r3,r19,zero
 40222fc:	18c00084 	addi	r3,r3,2
 4022300:	003fba06 	br	40221ec <__flash_rwdata_start+0xfffef918>
 4022304:	9800141e 	bne	r19,zero,4022358 <__mulsf3+0x210>
 4022308:	00c00044 	movi	r3,1
 402230c:	003fb706 	br	40221ec <__flash_rwdata_start+0xfffef918>
 4022310:	a829883a 	mov	r20,r21
 4022314:	00ffffc4 	movi	r3,-1
 4022318:	0009883a 	mov	r4,zero
 402231c:	003fdd06 	br	4022294 <__flash_rwdata_start+0xfffef9c0>
 4022320:	9009883a 	mov	r4,r18
 4022324:	d9400015 	stw	r5,0(sp)
 4022328:	40255140 	call	4025514 <__clzsi2>
 402232c:	10fffec4 	addi	r3,r2,-5
 4022330:	10801d84 	addi	r2,r2,118
 4022334:	90e4983a 	sll	r18,r18,r3
 4022338:	00a1c83a 	sub	r16,zero,r2
 402233c:	0023883a 	mov	r17,zero
 4022340:	002f883a 	mov	r23,zero
 4022344:	d9400017 	ldw	r5,0(sp)
 4022348:	003f9a06 	br	40221b4 <__flash_rwdata_start+0xfffef8e0>
 402234c:	04400304 	movi	r17,12
 4022350:	05c000c4 	movi	r23,3
 4022354:	003f9706 	br	40221b4 <__flash_rwdata_start+0xfffef8e0>
 4022358:	9809883a 	mov	r4,r19
 402235c:	d9800015 	stw	r6,0(sp)
 4022360:	40255140 	call	4025514 <__clzsi2>
 4022364:	10fffec4 	addi	r3,r2,-5
 4022368:	10801d84 	addi	r2,r2,118
 402236c:	98e6983a 	sll	r19,r19,r3
 4022370:	0085c83a 	sub	r2,zero,r2
 4022374:	0007883a 	mov	r3,zero
 4022378:	d9800017 	ldw	r6,0(sp)
 402237c:	003f9b06 	br	40221ec <__flash_rwdata_start+0xfffef918>
 4022380:	01002034 	movhi	r4,128
 4022384:	0029883a 	mov	r20,zero
 4022388:	213fffc4 	addi	r4,r4,-1
 402238c:	00ffffc4 	movi	r3,-1
 4022390:	003fc006 	br	4022294 <__flash_rwdata_start+0xfffef9c0>
 4022394:	9027883a 	mov	r19,r18
 4022398:	b807883a 	mov	r3,r23
 402239c:	003fb406 	br	4022270 <__flash_rwdata_start+0xfffef99c>
 40223a0:	9027883a 	mov	r19,r18
 40223a4:	e02b883a 	mov	r21,fp
 40223a8:	b807883a 	mov	r3,r23
 40223ac:	003fb006 	br	4022270 <__flash_rwdata_start+0xfffef99c>
 40223b0:	9028d43a 	srli	r20,r18,16
 40223b4:	982cd43a 	srli	r22,r19,16
 40223b8:	94bfffcc 	andi	r18,r18,65535
 40223bc:	9cffffcc 	andi	r19,r19,65535
 40223c0:	980b883a 	mov	r5,r19
 40223c4:	9009883a 	mov	r4,r18
 40223c8:	d9c00015 	stw	r7,0(sp)
 40223cc:	402572c0 	call	402572c <__mulsi3>
 40223d0:	a00b883a 	mov	r5,r20
 40223d4:	9809883a 	mov	r4,r19
 40223d8:	1023883a 	mov	r17,r2
 40223dc:	402572c0 	call	402572c <__mulsi3>
 40223e0:	a009883a 	mov	r4,r20
 40223e4:	b00b883a 	mov	r5,r22
 40223e8:	1027883a 	mov	r19,r2
 40223ec:	402572c0 	call	402572c <__mulsi3>
 40223f0:	b00b883a 	mov	r5,r22
 40223f4:	9009883a 	mov	r4,r18
 40223f8:	1029883a 	mov	r20,r2
 40223fc:	402572c0 	call	402572c <__mulsi3>
 4022400:	8806d43a 	srli	r3,r17,16
 4022404:	14c5883a 	add	r2,r2,r19
 4022408:	d9c00017 	ldw	r7,0(sp)
 402240c:	1885883a 	add	r2,r3,r2
 4022410:	14c0022e 	bgeu	r2,r19,402241c <__mulsf3+0x2d4>
 4022414:	00c00074 	movhi	r3,1
 4022418:	a0e9883a 	add	r20,r20,r3
 402241c:	1026943a 	slli	r19,r2,16
 4022420:	8c7fffcc 	andi	r17,r17,65535
 4022424:	1004d43a 	srli	r2,r2,16
 4022428:	9c63883a 	add	r17,r19,r17
 402242c:	882691ba 	slli	r19,r17,6
 4022430:	1505883a 	add	r2,r2,r20
 4022434:	8822d6ba 	srli	r17,r17,26
 4022438:	100891ba 	slli	r4,r2,6
 402243c:	9826c03a 	cmpne	r19,r19,zero
 4022440:	9c62b03a 	or	r17,r19,r17
 4022444:	8926b03a 	or	r19,r17,r4
 4022448:	9882002c 	andhi	r2,r19,2048
 402244c:	10000426 	beq	r2,zero,4022460 <__mulsf3+0x318>
 4022450:	9804d07a 	srli	r2,r19,1
 4022454:	9900004c 	andi	r4,r19,1
 4022458:	3821883a 	mov	r16,r7
 402245c:	1126b03a 	or	r19,r2,r4
 4022460:	80c01fc4 	addi	r3,r16,127
 4022464:	00c0210e 	bge	zero,r3,40224ec <__mulsf3+0x3a4>
 4022468:	988001cc 	andi	r2,r19,7
 402246c:	10000426 	beq	r2,zero,4022480 <__mulsf3+0x338>
 4022470:	988003cc 	andi	r2,r19,15
 4022474:	01000104 	movi	r4,4
 4022478:	11000126 	beq	r2,r4,4022480 <__mulsf3+0x338>
 402247c:	9927883a 	add	r19,r19,r4
 4022480:	9882002c 	andhi	r2,r19,2048
 4022484:	10000426 	beq	r2,zero,4022498 <__mulsf3+0x350>
 4022488:	00be0034 	movhi	r2,63488
 402248c:	10bfffc4 	addi	r2,r2,-1
 4022490:	80c02004 	addi	r3,r16,128
 4022494:	98a6703a 	and	r19,r19,r2
 4022498:	00803f84 	movi	r2,254
 402249c:	10ff9c16 	blt	r2,r3,4022310 <__flash_rwdata_start+0xfffefa3c>
 40224a0:	980891ba 	slli	r4,r19,6
 40224a4:	a829883a 	mov	r20,r21
 40224a8:	2008d27a 	srli	r4,r4,9
 40224ac:	003f7906 	br	4022294 <__flash_rwdata_start+0xfffef9c0>
 40224b0:	9080102c 	andhi	r2,r18,64
 40224b4:	10000826 	beq	r2,zero,40224d8 <__mulsf3+0x390>
 40224b8:	9880102c 	andhi	r2,r19,64
 40224bc:	1000061e 	bne	r2,zero,40224d8 <__mulsf3+0x390>
 40224c0:	00802034 	movhi	r2,128
 40224c4:	99001034 	orhi	r4,r19,64
 40224c8:	10bfffc4 	addi	r2,r2,-1
 40224cc:	b029883a 	mov	r20,r22
 40224d0:	2088703a 	and	r4,r4,r2
 40224d4:	003fad06 	br	402238c <__flash_rwdata_start+0xfffefab8>
 40224d8:	00802034 	movhi	r2,128
 40224dc:	91001034 	orhi	r4,r18,64
 40224e0:	10bfffc4 	addi	r2,r2,-1
 40224e4:	2088703a 	and	r4,r4,r2
 40224e8:	003fa806 	br	402238c <__flash_rwdata_start+0xfffefab8>
 40224ec:	00800044 	movi	r2,1
 40224f0:	10c7c83a 	sub	r3,r2,r3
 40224f4:	008006c4 	movi	r2,27
 40224f8:	10ff6316 	blt	r2,r3,4022288 <__flash_rwdata_start+0xfffef9b4>
 40224fc:	00800804 	movi	r2,32
 4022500:	10c5c83a 	sub	r2,r2,r3
 4022504:	9884983a 	sll	r2,r19,r2
 4022508:	98c6d83a 	srl	r3,r19,r3
 402250c:	1004c03a 	cmpne	r2,r2,zero
 4022510:	1884b03a 	or	r2,r3,r2
 4022514:	10c001cc 	andi	r3,r2,7
 4022518:	18000426 	beq	r3,zero,402252c <__mulsf3+0x3e4>
 402251c:	10c003cc 	andi	r3,r2,15
 4022520:	01000104 	movi	r4,4
 4022524:	19000126 	beq	r3,r4,402252c <__mulsf3+0x3e4>
 4022528:	1105883a 	add	r2,r2,r4
 402252c:	10c1002c 	andhi	r3,r2,1024
 4022530:	18000626 	beq	r3,zero,402254c <__mulsf3+0x404>
 4022534:	a829883a 	mov	r20,r21
 4022538:	00c00044 	movi	r3,1
 402253c:	0009883a 	mov	r4,zero
 4022540:	003f5406 	br	4022294 <__flash_rwdata_start+0xfffef9c0>
 4022544:	3821883a 	mov	r16,r7
 4022548:	003fc506 	br	4022460 <__flash_rwdata_start+0xfffefb8c>
 402254c:	100491ba 	slli	r2,r2,6
 4022550:	a829883a 	mov	r20,r21
 4022554:	0007883a 	mov	r3,zero
 4022558:	1008d27a 	srli	r4,r2,9
 402255c:	003f4d06 	br	4022294 <__flash_rwdata_start+0xfffef9c0>
 4022560:	00802034 	movhi	r2,128
 4022564:	99001034 	orhi	r4,r19,64
 4022568:	10bfffc4 	addi	r2,r2,-1
 402256c:	a829883a 	mov	r20,r21
 4022570:	2088703a 	and	r4,r4,r2
 4022574:	003f8506 	br	402238c <__flash_rwdata_start+0xfffefab8>

04022578 <__subsf3>:
 4022578:	defffc04 	addi	sp,sp,-16
 402257c:	280cd5fa 	srli	r6,r5,23
 4022580:	dc000015 	stw	r16,0(sp)
 4022584:	01c02034 	movhi	r7,128
 4022588:	2020d5fa 	srli	r16,r4,23
 402258c:	39ffffc4 	addi	r7,r7,-1
 4022590:	3906703a 	and	r3,r7,r4
 4022594:	dc400115 	stw	r17,4(sp)
 4022598:	394e703a 	and	r7,r7,r5
 402259c:	2022d7fa 	srli	r17,r4,31
 40225a0:	dfc00315 	stw	ra,12(sp)
 40225a4:	dc800215 	stw	r18,8(sp)
 40225a8:	31803fcc 	andi	r6,r6,255
 40225ac:	01003fc4 	movi	r4,255
 40225b0:	84003fcc 	andi	r16,r16,255
 40225b4:	180690fa 	slli	r3,r3,3
 40225b8:	2804d7fa 	srli	r2,r5,31
 40225bc:	380e90fa 	slli	r7,r7,3
 40225c0:	31006d26 	beq	r6,r4,4022778 <__subsf3+0x200>
 40225c4:	1080005c 	xori	r2,r2,1
 40225c8:	8189c83a 	sub	r4,r16,r6
 40225cc:	14404f26 	beq	r2,r17,402270c <__subsf3+0x194>
 40225d0:	0100770e 	bge	zero,r4,40227b0 <__subsf3+0x238>
 40225d4:	30001e1e 	bne	r6,zero,4022650 <__subsf3+0xd8>
 40225d8:	38006a1e 	bne	r7,zero,4022784 <__subsf3+0x20c>
 40225dc:	188001cc 	andi	r2,r3,7
 40225e0:	10000426 	beq	r2,zero,40225f4 <__subsf3+0x7c>
 40225e4:	188003cc 	andi	r2,r3,15
 40225e8:	01000104 	movi	r4,4
 40225ec:	11000126 	beq	r2,r4,40225f4 <__subsf3+0x7c>
 40225f0:	1907883a 	add	r3,r3,r4
 40225f4:	1881002c 	andhi	r2,r3,1024
 40225f8:	10003926 	beq	r2,zero,40226e0 <__subsf3+0x168>
 40225fc:	84000044 	addi	r16,r16,1
 4022600:	00803fc4 	movi	r2,255
 4022604:	80807526 	beq	r16,r2,40227dc <__subsf3+0x264>
 4022608:	180691ba 	slli	r3,r3,6
 402260c:	8880004c 	andi	r2,r17,1
 4022610:	180ad27a 	srli	r5,r3,9
 4022614:	84003fcc 	andi	r16,r16,255
 4022618:	800695fa 	slli	r3,r16,23
 402261c:	10803fcc 	andi	r2,r2,255
 4022620:	01002034 	movhi	r4,128
 4022624:	213fffc4 	addi	r4,r4,-1
 4022628:	100497fa 	slli	r2,r2,31
 402262c:	2920703a 	and	r16,r5,r4
 4022630:	80e0b03a 	or	r16,r16,r3
 4022634:	8084b03a 	or	r2,r16,r2
 4022638:	dfc00317 	ldw	ra,12(sp)
 402263c:	dc800217 	ldw	r18,8(sp)
 4022640:	dc400117 	ldw	r17,4(sp)
 4022644:	dc000017 	ldw	r16,0(sp)
 4022648:	dec00404 	addi	sp,sp,16
 402264c:	f800283a 	ret
 4022650:	00803fc4 	movi	r2,255
 4022654:	80bfe126 	beq	r16,r2,40225dc <__flash_rwdata_start+0xfffefd08>
 4022658:	39c10034 	orhi	r7,r7,1024
 402265c:	008006c4 	movi	r2,27
 4022660:	11007416 	blt	r2,r4,4022834 <__subsf3+0x2bc>
 4022664:	00800804 	movi	r2,32
 4022668:	1105c83a 	sub	r2,r2,r4
 402266c:	3884983a 	sll	r2,r7,r2
 4022670:	390ed83a 	srl	r7,r7,r4
 4022674:	1008c03a 	cmpne	r4,r2,zero
 4022678:	390eb03a 	or	r7,r7,r4
 402267c:	19c7c83a 	sub	r3,r3,r7
 4022680:	1881002c 	andhi	r2,r3,1024
 4022684:	10001426 	beq	r2,zero,40226d8 <__subsf3+0x160>
 4022688:	04810034 	movhi	r18,1024
 402268c:	94bfffc4 	addi	r18,r18,-1
 4022690:	1ca4703a 	and	r18,r3,r18
 4022694:	9009883a 	mov	r4,r18
 4022698:	40255140 	call	4025514 <__clzsi2>
 402269c:	10bffec4 	addi	r2,r2,-5
 40226a0:	90a4983a 	sll	r18,r18,r2
 40226a4:	14005116 	blt	r2,r16,40227ec <__subsf3+0x274>
 40226a8:	1405c83a 	sub	r2,r2,r16
 40226ac:	10c00044 	addi	r3,r2,1
 40226b0:	00800804 	movi	r2,32
 40226b4:	10c5c83a 	sub	r2,r2,r3
 40226b8:	9084983a 	sll	r2,r18,r2
 40226bc:	90e4d83a 	srl	r18,r18,r3
 40226c0:	0021883a 	mov	r16,zero
 40226c4:	1006c03a 	cmpne	r3,r2,zero
 40226c8:	90c6b03a 	or	r3,r18,r3
 40226cc:	003fc306 	br	40225dc <__flash_rwdata_start+0xfffefd08>
 40226d0:	2000e026 	beq	r4,zero,4022a54 <__subsf3+0x4dc>
 40226d4:	2007883a 	mov	r3,r4
 40226d8:	188001cc 	andi	r2,r3,7
 40226dc:	103fc11e 	bne	r2,zero,40225e4 <__flash_rwdata_start+0xfffefd10>
 40226e0:	180ad0fa 	srli	r5,r3,3
 40226e4:	00c03fc4 	movi	r3,255
 40226e8:	8880004c 	andi	r2,r17,1
 40226ec:	80c0031e 	bne	r16,r3,40226fc <__subsf3+0x184>
 40226f0:	28006d26 	beq	r5,zero,40228a8 <__subsf3+0x330>
 40226f4:	29401034 	orhi	r5,r5,64
 40226f8:	043fffc4 	movi	r16,-1
 40226fc:	00c02034 	movhi	r3,128
 4022700:	18ffffc4 	addi	r3,r3,-1
 4022704:	28ca703a 	and	r5,r5,r3
 4022708:	003fc206 	br	4022614 <__flash_rwdata_start+0xfffefd40>
 402270c:	01003c0e 	bge	zero,r4,4022800 <__subsf3+0x288>
 4022710:	30002126 	beq	r6,zero,4022798 <__subsf3+0x220>
 4022714:	01403fc4 	movi	r5,255
 4022718:	817fb026 	beq	r16,r5,40225dc <__flash_rwdata_start+0xfffefd08>
 402271c:	39c10034 	orhi	r7,r7,1024
 4022720:	014006c4 	movi	r5,27
 4022724:	29007416 	blt	r5,r4,40228f8 <__subsf3+0x380>
 4022728:	01400804 	movi	r5,32
 402272c:	290bc83a 	sub	r5,r5,r4
 4022730:	394a983a 	sll	r5,r7,r5
 4022734:	390ed83a 	srl	r7,r7,r4
 4022738:	2808c03a 	cmpne	r4,r5,zero
 402273c:	390eb03a 	or	r7,r7,r4
 4022740:	19c7883a 	add	r3,r3,r7
 4022744:	1901002c 	andhi	r4,r3,1024
 4022748:	20003826 	beq	r4,zero,402282c <__subsf3+0x2b4>
 402274c:	84000044 	addi	r16,r16,1
 4022750:	01003fc4 	movi	r4,255
 4022754:	81005426 	beq	r16,r4,40228a8 <__subsf3+0x330>
 4022758:	1023883a 	mov	r17,r2
 402275c:	00bf0034 	movhi	r2,64512
 4022760:	10bfffc4 	addi	r2,r2,-1
 4022764:	1900004c 	andi	r4,r3,1
 4022768:	1886703a 	and	r3,r3,r2
 402276c:	1806d07a 	srli	r3,r3,1
 4022770:	1906b03a 	or	r3,r3,r4
 4022774:	003f9906 	br	40225dc <__flash_rwdata_start+0xfffefd08>
 4022778:	383f9226 	beq	r7,zero,40225c4 <__flash_rwdata_start+0xfffefcf0>
 402277c:	10803fcc 	andi	r2,r2,255
 4022780:	003f9106 	br	40225c8 <__flash_rwdata_start+0xfffefcf4>
 4022784:	213fffc4 	addi	r4,r4,-1
 4022788:	203fbc26 	beq	r4,zero,402267c <__flash_rwdata_start+0xfffefda8>
 402278c:	00803fc4 	movi	r2,255
 4022790:	80bfb21e 	bne	r16,r2,402265c <__flash_rwdata_start+0xfffefd88>
 4022794:	003f9106 	br	40225dc <__flash_rwdata_start+0xfffefd08>
 4022798:	383f9026 	beq	r7,zero,40225dc <__flash_rwdata_start+0xfffefd08>
 402279c:	213fffc4 	addi	r4,r4,-1
 40227a0:	203fe726 	beq	r4,zero,4022740 <__flash_rwdata_start+0xfffefe6c>
 40227a4:	01403fc4 	movi	r5,255
 40227a8:	817fdd1e 	bne	r16,r5,4022720 <__flash_rwdata_start+0xfffefe4c>
 40227ac:	003f8b06 	br	40225dc <__flash_rwdata_start+0xfffefd08>
 40227b0:	2000221e 	bne	r4,zero,402283c <__subsf3+0x2c4>
 40227b4:	81000044 	addi	r4,r16,1
 40227b8:	21003fcc 	andi	r4,r4,255
 40227bc:	01400044 	movi	r5,1
 40227c0:	2900470e 	bge	r5,r4,40228e0 <__subsf3+0x368>
 40227c4:	19e5c83a 	sub	r18,r3,r7
 40227c8:	9141002c 	andhi	r5,r18,1024
 40227cc:	28002d26 	beq	r5,zero,4022884 <__subsf3+0x30c>
 40227d0:	38e5c83a 	sub	r18,r7,r3
 40227d4:	1023883a 	mov	r17,r2
 40227d8:	003fae06 	br	4022694 <__flash_rwdata_start+0xfffefdc0>
 40227dc:	8880004c 	andi	r2,r17,1
 40227e0:	043fffc4 	movi	r16,-1
 40227e4:	000b883a 	mov	r5,zero
 40227e8:	003f8a06 	br	4022614 <__flash_rwdata_start+0xfffefd40>
 40227ec:	00ff0034 	movhi	r3,64512
 40227f0:	18ffffc4 	addi	r3,r3,-1
 40227f4:	80a1c83a 	sub	r16,r16,r2
 40227f8:	90c6703a 	and	r3,r18,r3
 40227fc:	003f7706 	br	40225dc <__flash_rwdata_start+0xfffefd08>
 4022800:	2000431e 	bne	r4,zero,4022910 <__subsf3+0x398>
 4022804:	81000044 	addi	r4,r16,1
 4022808:	21803fcc 	andi	r6,r4,255
 402280c:	01400044 	movi	r5,1
 4022810:	2980280e 	bge	r5,r6,40228b4 <__subsf3+0x33c>
 4022814:	01403fc4 	movi	r5,255
 4022818:	21402326 	beq	r4,r5,40228a8 <__subsf3+0x330>
 402281c:	19c7883a 	add	r3,r3,r7
 4022820:	1806d07a 	srli	r3,r3,1
 4022824:	2021883a 	mov	r16,r4
 4022828:	003f6c06 	br	40225dc <__flash_rwdata_start+0xfffefd08>
 402282c:	1023883a 	mov	r17,r2
 4022830:	003fa906 	br	40226d8 <__flash_rwdata_start+0xfffefe04>
 4022834:	01c00044 	movi	r7,1
 4022838:	003f9006 	br	402267c <__flash_rwdata_start+0xfffefda8>
 402283c:	8000151e 	bne	r16,zero,4022894 <__subsf3+0x31c>
 4022840:	18002f26 	beq	r3,zero,4022900 <__subsf3+0x388>
 4022844:	0108303a 	nor	r4,zero,r4
 4022848:	20000a26 	beq	r4,zero,4022874 <__subsf3+0x2fc>
 402284c:	01403fc4 	movi	r5,255
 4022850:	31402b26 	beq	r6,r5,4022900 <__subsf3+0x388>
 4022854:	014006c4 	movi	r5,27
 4022858:	29006e16 	blt	r5,r4,4022a14 <__subsf3+0x49c>
 402285c:	01400804 	movi	r5,32
 4022860:	290bc83a 	sub	r5,r5,r4
 4022864:	194a983a 	sll	r5,r3,r5
 4022868:	1908d83a 	srl	r4,r3,r4
 402286c:	2806c03a 	cmpne	r3,r5,zero
 4022870:	20c6b03a 	or	r3,r4,r3
 4022874:	38c7c83a 	sub	r3,r7,r3
 4022878:	3021883a 	mov	r16,r6
 402287c:	1023883a 	mov	r17,r2
 4022880:	003f7f06 	br	4022680 <__flash_rwdata_start+0xfffefdac>
 4022884:	903f831e 	bne	r18,zero,4022694 <__flash_rwdata_start+0xfffefdc0>
 4022888:	0005883a 	mov	r2,zero
 402288c:	0021883a 	mov	r16,zero
 4022890:	003f9a06 	br	40226fc <__flash_rwdata_start+0xfffefe28>
 4022894:	01403fc4 	movi	r5,255
 4022898:	31401926 	beq	r6,r5,4022900 <__subsf3+0x388>
 402289c:	0109c83a 	sub	r4,zero,r4
 40228a0:	18c10034 	orhi	r3,r3,1024
 40228a4:	003feb06 	br	4022854 <__flash_rwdata_start+0xfffeff80>
 40228a8:	043fffc4 	movi	r16,-1
 40228ac:	000b883a 	mov	r5,zero
 40228b0:	003f5806 	br	4022614 <__flash_rwdata_start+0xfffefd40>
 40228b4:	8000481e 	bne	r16,zero,40229d8 <__subsf3+0x460>
 40228b8:	18006226 	beq	r3,zero,4022a44 <__subsf3+0x4cc>
 40228bc:	383f4726 	beq	r7,zero,40225dc <__flash_rwdata_start+0xfffefd08>
 40228c0:	19c7883a 	add	r3,r3,r7
 40228c4:	1881002c 	andhi	r2,r3,1024
 40228c8:	103f8326 	beq	r2,zero,40226d8 <__flash_rwdata_start+0xfffefe04>
 40228cc:	00bf0034 	movhi	r2,64512
 40228d0:	10bfffc4 	addi	r2,r2,-1
 40228d4:	2821883a 	mov	r16,r5
 40228d8:	1886703a 	and	r3,r3,r2
 40228dc:	003f3f06 	br	40225dc <__flash_rwdata_start+0xfffefd08>
 40228e0:	80001c1e 	bne	r16,zero,4022954 <__subsf3+0x3dc>
 40228e4:	1800261e 	bne	r3,zero,4022980 <__subsf3+0x408>
 40228e8:	38004c26 	beq	r7,zero,4022a1c <__subsf3+0x4a4>
 40228ec:	3807883a 	mov	r3,r7
 40228f0:	1023883a 	mov	r17,r2
 40228f4:	003f3906 	br	40225dc <__flash_rwdata_start+0xfffefd08>
 40228f8:	01c00044 	movi	r7,1
 40228fc:	003f9006 	br	4022740 <__flash_rwdata_start+0xfffefe6c>
 4022900:	3807883a 	mov	r3,r7
 4022904:	3021883a 	mov	r16,r6
 4022908:	1023883a 	mov	r17,r2
 402290c:	003f3306 	br	40225dc <__flash_rwdata_start+0xfffefd08>
 4022910:	8000161e 	bne	r16,zero,402296c <__subsf3+0x3f4>
 4022914:	18002d26 	beq	r3,zero,40229cc <__subsf3+0x454>
 4022918:	0108303a 	nor	r4,zero,r4
 402291c:	20000a26 	beq	r4,zero,4022948 <__subsf3+0x3d0>
 4022920:	01403fc4 	movi	r5,255
 4022924:	31402926 	beq	r6,r5,40229cc <__subsf3+0x454>
 4022928:	014006c4 	movi	r5,27
 402292c:	29004716 	blt	r5,r4,4022a4c <__subsf3+0x4d4>
 4022930:	01400804 	movi	r5,32
 4022934:	290bc83a 	sub	r5,r5,r4
 4022938:	194a983a 	sll	r5,r3,r5
 402293c:	1908d83a 	srl	r4,r3,r4
 4022940:	2806c03a 	cmpne	r3,r5,zero
 4022944:	20c6b03a 	or	r3,r4,r3
 4022948:	19c7883a 	add	r3,r3,r7
 402294c:	3021883a 	mov	r16,r6
 4022950:	003f7c06 	br	4022744 <__flash_rwdata_start+0xfffefe70>
 4022954:	1800111e 	bne	r3,zero,402299c <__subsf3+0x424>
 4022958:	38003326 	beq	r7,zero,4022a28 <__subsf3+0x4b0>
 402295c:	3807883a 	mov	r3,r7
 4022960:	1023883a 	mov	r17,r2
 4022964:	04003fc4 	movi	r16,255
 4022968:	003f1c06 	br	40225dc <__flash_rwdata_start+0xfffefd08>
 402296c:	01403fc4 	movi	r5,255
 4022970:	31401626 	beq	r6,r5,40229cc <__subsf3+0x454>
 4022974:	0109c83a 	sub	r4,zero,r4
 4022978:	18c10034 	orhi	r3,r3,1024
 402297c:	003fea06 	br	4022928 <__flash_rwdata_start+0xffff0054>
 4022980:	383f1626 	beq	r7,zero,40225dc <__flash_rwdata_start+0xfffefd08>
 4022984:	19c9c83a 	sub	r4,r3,r7
 4022988:	2141002c 	andhi	r5,r4,1024
 402298c:	283f5026 	beq	r5,zero,40226d0 <__flash_rwdata_start+0xfffefdfc>
 4022990:	38c7c83a 	sub	r3,r7,r3
 4022994:	1023883a 	mov	r17,r2
 4022998:	003f1006 	br	40225dc <__flash_rwdata_start+0xfffefd08>
 402299c:	38001b26 	beq	r7,zero,4022a0c <__subsf3+0x494>
 40229a0:	1806d0fa 	srli	r3,r3,3
 40229a4:	1900102c 	andhi	r4,r3,64
 40229a8:	20000526 	beq	r4,zero,40229c0 <__subsf3+0x448>
 40229ac:	380ed0fa 	srli	r7,r7,3
 40229b0:	3900102c 	andhi	r4,r7,64
 40229b4:	2000021e 	bne	r4,zero,40229c0 <__subsf3+0x448>
 40229b8:	3807883a 	mov	r3,r7
 40229bc:	1023883a 	mov	r17,r2
 40229c0:	180690fa 	slli	r3,r3,3
 40229c4:	04003fc4 	movi	r16,255
 40229c8:	003f0406 	br	40225dc <__flash_rwdata_start+0xfffefd08>
 40229cc:	3807883a 	mov	r3,r7
 40229d0:	3021883a 	mov	r16,r6
 40229d4:	003f0106 	br	40225dc <__flash_rwdata_start+0xfffefd08>
 40229d8:	18001726 	beq	r3,zero,4022a38 <__subsf3+0x4c0>
 40229dc:	38000b26 	beq	r7,zero,4022a0c <__subsf3+0x494>
 40229e0:	1806d0fa 	srli	r3,r3,3
 40229e4:	1900102c 	andhi	r4,r3,64
 40229e8:	20000426 	beq	r4,zero,40229fc <__subsf3+0x484>
 40229ec:	380ed0fa 	srli	r7,r7,3
 40229f0:	3900102c 	andhi	r4,r7,64
 40229f4:	2000011e 	bne	r4,zero,40229fc <__subsf3+0x484>
 40229f8:	3807883a 	mov	r3,r7
 40229fc:	180690fa 	slli	r3,r3,3
 4022a00:	1023883a 	mov	r17,r2
 4022a04:	04003fc4 	movi	r16,255
 4022a08:	003ef406 	br	40225dc <__flash_rwdata_start+0xfffefd08>
 4022a0c:	04003fc4 	movi	r16,255
 4022a10:	003ef206 	br	40225dc <__flash_rwdata_start+0xfffefd08>
 4022a14:	00c00044 	movi	r3,1
 4022a18:	003f9606 	br	4022874 <__flash_rwdata_start+0xfffeffa0>
 4022a1c:	000b883a 	mov	r5,zero
 4022a20:	0005883a 	mov	r2,zero
 4022a24:	003f3506 	br	40226fc <__flash_rwdata_start+0xfffefe28>
 4022a28:	01402034 	movhi	r5,128
 4022a2c:	297fffc4 	addi	r5,r5,-1
 4022a30:	0005883a 	mov	r2,zero
 4022a34:	003f2f06 	br	40226f4 <__flash_rwdata_start+0xfffefe20>
 4022a38:	3807883a 	mov	r3,r7
 4022a3c:	04003fc4 	movi	r16,255
 4022a40:	003ee606 	br	40225dc <__flash_rwdata_start+0xfffefd08>
 4022a44:	3807883a 	mov	r3,r7
 4022a48:	003ee406 	br	40225dc <__flash_rwdata_start+0xfffefd08>
 4022a4c:	00c00044 	movi	r3,1
 4022a50:	003fbd06 	br	4022948 <__flash_rwdata_start+0xffff0074>
 4022a54:	0005883a 	mov	r2,zero
 4022a58:	003f2806 	br	40226fc <__flash_rwdata_start+0xfffefe28>

04022a5c <__floatunsisf>:
 4022a5c:	defffe04 	addi	sp,sp,-8
 4022a60:	dfc00115 	stw	ra,4(sp)
 4022a64:	dc000015 	stw	r16,0(sp)
 4022a68:	20002c26 	beq	r4,zero,4022b1c <__floatunsisf+0xc0>
 4022a6c:	2021883a 	mov	r16,r4
 4022a70:	40255140 	call	4025514 <__clzsi2>
 4022a74:	00c02784 	movi	r3,158
 4022a78:	1887c83a 	sub	r3,r3,r2
 4022a7c:	01002584 	movi	r4,150
 4022a80:	20c00f16 	blt	r4,r3,4022ac0 <__floatunsisf+0x64>
 4022a84:	20c9c83a 	sub	r4,r4,r3
 4022a88:	8108983a 	sll	r4,r16,r4
 4022a8c:	00802034 	movhi	r2,128
 4022a90:	10bfffc4 	addi	r2,r2,-1
 4022a94:	2088703a 	and	r4,r4,r2
 4022a98:	18803fcc 	andi	r2,r3,255
 4022a9c:	100695fa 	slli	r3,r2,23
 4022aa0:	00802034 	movhi	r2,128
 4022aa4:	10bfffc4 	addi	r2,r2,-1
 4022aa8:	2084703a 	and	r2,r4,r2
 4022aac:	10c4b03a 	or	r2,r2,r3
 4022ab0:	dfc00117 	ldw	ra,4(sp)
 4022ab4:	dc000017 	ldw	r16,0(sp)
 4022ab8:	dec00204 	addi	sp,sp,8
 4022abc:	f800283a 	ret
 4022ac0:	01002644 	movi	r4,153
 4022ac4:	20c01816 	blt	r4,r3,4022b28 <__floatunsisf+0xcc>
 4022ac8:	20c9c83a 	sub	r4,r4,r3
 4022acc:	8108983a 	sll	r4,r16,r4
 4022ad0:	017f0034 	movhi	r5,64512
 4022ad4:	297fffc4 	addi	r5,r5,-1
 4022ad8:	218001cc 	andi	r6,r4,7
 4022adc:	214a703a 	and	r5,r4,r5
 4022ae0:	30000426 	beq	r6,zero,4022af4 <__floatunsisf+0x98>
 4022ae4:	210003cc 	andi	r4,r4,15
 4022ae8:	01800104 	movi	r6,4
 4022aec:	21800126 	beq	r4,r6,4022af4 <__floatunsisf+0x98>
 4022af0:	298b883a 	add	r5,r5,r6
 4022af4:	2901002c 	andhi	r4,r5,1024
 4022af8:	20000526 	beq	r4,zero,4022b10 <__floatunsisf+0xb4>
 4022afc:	00c027c4 	movi	r3,159
 4022b00:	1887c83a 	sub	r3,r3,r2
 4022b04:	00bf0034 	movhi	r2,64512
 4022b08:	10bfffc4 	addi	r2,r2,-1
 4022b0c:	288a703a 	and	r5,r5,r2
 4022b10:	280891ba 	slli	r4,r5,6
 4022b14:	2008d27a 	srli	r4,r4,9
 4022b18:	003fdf06 	br	4022a98 <__flash_rwdata_start+0xffff01c4>
 4022b1c:	0007883a 	mov	r3,zero
 4022b20:	0009883a 	mov	r4,zero
 4022b24:	003fdc06 	br	4022a98 <__flash_rwdata_start+0xffff01c4>
 4022b28:	01402e44 	movi	r5,185
 4022b2c:	28cbc83a 	sub	r5,r5,r3
 4022b30:	01000144 	movi	r4,5
 4022b34:	2089c83a 	sub	r4,r4,r2
 4022b38:	814a983a 	sll	r5,r16,r5
 4022b3c:	8108d83a 	srl	r4,r16,r4
 4022b40:	2820c03a 	cmpne	r16,r5,zero
 4022b44:	2408b03a 	or	r4,r4,r16
 4022b48:	003fe106 	br	4022ad0 <__flash_rwdata_start+0xffff01fc>

04022b4c <__adddf3>:
 4022b4c:	02c00434 	movhi	r11,16
 4022b50:	5affffc4 	addi	r11,r11,-1
 4022b54:	2806d7fa 	srli	r3,r5,31
 4022b58:	2ad4703a 	and	r10,r5,r11
 4022b5c:	3ad2703a 	and	r9,r7,r11
 4022b60:	3804d53a 	srli	r2,r7,20
 4022b64:	3018d77a 	srli	r12,r6,29
 4022b68:	280ad53a 	srli	r5,r5,20
 4022b6c:	501490fa 	slli	r10,r10,3
 4022b70:	2010d77a 	srli	r8,r4,29
 4022b74:	481290fa 	slli	r9,r9,3
 4022b78:	380ed7fa 	srli	r7,r7,31
 4022b7c:	defffb04 	addi	sp,sp,-20
 4022b80:	dc800215 	stw	r18,8(sp)
 4022b84:	dc400115 	stw	r17,4(sp)
 4022b88:	dc000015 	stw	r16,0(sp)
 4022b8c:	dfc00415 	stw	ra,16(sp)
 4022b90:	dcc00315 	stw	r19,12(sp)
 4022b94:	1c803fcc 	andi	r18,r3,255
 4022b98:	2c01ffcc 	andi	r16,r5,2047
 4022b9c:	5210b03a 	or	r8,r10,r8
 4022ba0:	202290fa 	slli	r17,r4,3
 4022ba4:	1081ffcc 	andi	r2,r2,2047
 4022ba8:	4b12b03a 	or	r9,r9,r12
 4022bac:	300c90fa 	slli	r6,r6,3
 4022bb0:	91c07526 	beq	r18,r7,4022d88 <__adddf3+0x23c>
 4022bb4:	8087c83a 	sub	r3,r16,r2
 4022bb8:	00c0ab0e 	bge	zero,r3,4022e68 <__adddf3+0x31c>
 4022bbc:	10002a1e 	bne	r2,zero,4022c68 <__adddf3+0x11c>
 4022bc0:	4984b03a 	or	r2,r9,r6
 4022bc4:	1000961e 	bne	r2,zero,4022e20 <__adddf3+0x2d4>
 4022bc8:	888001cc 	andi	r2,r17,7
 4022bcc:	10000726 	beq	r2,zero,4022bec <__adddf3+0xa0>
 4022bd0:	888003cc 	andi	r2,r17,15
 4022bd4:	00c00104 	movi	r3,4
 4022bd8:	10c00426 	beq	r2,r3,4022bec <__adddf3+0xa0>
 4022bdc:	88c7883a 	add	r3,r17,r3
 4022be0:	1c63803a 	cmpltu	r17,r3,r17
 4022be4:	4451883a 	add	r8,r8,r17
 4022be8:	1823883a 	mov	r17,r3
 4022bec:	4080202c 	andhi	r2,r8,128
 4022bf0:	10005926 	beq	r2,zero,4022d58 <__adddf3+0x20c>
 4022bf4:	84000044 	addi	r16,r16,1
 4022bf8:	0081ffc4 	movi	r2,2047
 4022bfc:	8080ba26 	beq	r16,r2,4022ee8 <__adddf3+0x39c>
 4022c00:	00bfe034 	movhi	r2,65408
 4022c04:	10bfffc4 	addi	r2,r2,-1
 4022c08:	4090703a 	and	r8,r8,r2
 4022c0c:	4004977a 	slli	r2,r8,29
 4022c10:	4010927a 	slli	r8,r8,9
 4022c14:	8822d0fa 	srli	r17,r17,3
 4022c18:	8401ffcc 	andi	r16,r16,2047
 4022c1c:	4010d33a 	srli	r8,r8,12
 4022c20:	9007883a 	mov	r3,r18
 4022c24:	1444b03a 	or	r2,r2,r17
 4022c28:	8401ffcc 	andi	r16,r16,2047
 4022c2c:	8020953a 	slli	r16,r16,20
 4022c30:	18c03fcc 	andi	r3,r3,255
 4022c34:	01000434 	movhi	r4,16
 4022c38:	213fffc4 	addi	r4,r4,-1
 4022c3c:	180697fa 	slli	r3,r3,31
 4022c40:	4110703a 	and	r8,r8,r4
 4022c44:	4410b03a 	or	r8,r8,r16
 4022c48:	40c6b03a 	or	r3,r8,r3
 4022c4c:	dfc00417 	ldw	ra,16(sp)
 4022c50:	dcc00317 	ldw	r19,12(sp)
 4022c54:	dc800217 	ldw	r18,8(sp)
 4022c58:	dc400117 	ldw	r17,4(sp)
 4022c5c:	dc000017 	ldw	r16,0(sp)
 4022c60:	dec00504 	addi	sp,sp,20
 4022c64:	f800283a 	ret
 4022c68:	0081ffc4 	movi	r2,2047
 4022c6c:	80bfd626 	beq	r16,r2,4022bc8 <__flash_rwdata_start+0xffff02f4>
 4022c70:	4a402034 	orhi	r9,r9,128
 4022c74:	00800e04 	movi	r2,56
 4022c78:	10c09f16 	blt	r2,r3,4022ef8 <__adddf3+0x3ac>
 4022c7c:	008007c4 	movi	r2,31
 4022c80:	10c0c216 	blt	r2,r3,4022f8c <__adddf3+0x440>
 4022c84:	00800804 	movi	r2,32
 4022c88:	10c5c83a 	sub	r2,r2,r3
 4022c8c:	488a983a 	sll	r5,r9,r2
 4022c90:	30c8d83a 	srl	r4,r6,r3
 4022c94:	3084983a 	sll	r2,r6,r2
 4022c98:	48c6d83a 	srl	r3,r9,r3
 4022c9c:	290cb03a 	or	r6,r5,r4
 4022ca0:	1004c03a 	cmpne	r2,r2,zero
 4022ca4:	308cb03a 	or	r6,r6,r2
 4022ca8:	898dc83a 	sub	r6,r17,r6
 4022cac:	89a3803a 	cmpltu	r17,r17,r6
 4022cb0:	40d1c83a 	sub	r8,r8,r3
 4022cb4:	4451c83a 	sub	r8,r8,r17
 4022cb8:	3023883a 	mov	r17,r6
 4022cbc:	4080202c 	andhi	r2,r8,128
 4022cc0:	10002326 	beq	r2,zero,4022d50 <__adddf3+0x204>
 4022cc4:	04c02034 	movhi	r19,128
 4022cc8:	9cffffc4 	addi	r19,r19,-1
 4022ccc:	44e6703a 	and	r19,r8,r19
 4022cd0:	98007626 	beq	r19,zero,4022eac <__adddf3+0x360>
 4022cd4:	9809883a 	mov	r4,r19
 4022cd8:	40255140 	call	4025514 <__clzsi2>
 4022cdc:	10fffe04 	addi	r3,r2,-8
 4022ce0:	010007c4 	movi	r4,31
 4022ce4:	20c07716 	blt	r4,r3,4022ec4 <__adddf3+0x378>
 4022ce8:	00800804 	movi	r2,32
 4022cec:	10c5c83a 	sub	r2,r2,r3
 4022cf0:	8884d83a 	srl	r2,r17,r2
 4022cf4:	98d0983a 	sll	r8,r19,r3
 4022cf8:	88e2983a 	sll	r17,r17,r3
 4022cfc:	1204b03a 	or	r2,r2,r8
 4022d00:	1c007416 	blt	r3,r16,4022ed4 <__adddf3+0x388>
 4022d04:	1c21c83a 	sub	r16,r3,r16
 4022d08:	82000044 	addi	r8,r16,1
 4022d0c:	00c007c4 	movi	r3,31
 4022d10:	1a009116 	blt	r3,r8,4022f58 <__adddf3+0x40c>
 4022d14:	00c00804 	movi	r3,32
 4022d18:	1a07c83a 	sub	r3,r3,r8
 4022d1c:	8a08d83a 	srl	r4,r17,r8
 4022d20:	88e2983a 	sll	r17,r17,r3
 4022d24:	10c6983a 	sll	r3,r2,r3
 4022d28:	1210d83a 	srl	r8,r2,r8
 4022d2c:	8804c03a 	cmpne	r2,r17,zero
 4022d30:	1906b03a 	or	r3,r3,r4
 4022d34:	18a2b03a 	or	r17,r3,r2
 4022d38:	0021883a 	mov	r16,zero
 4022d3c:	003fa206 	br	4022bc8 <__flash_rwdata_start+0xffff02f4>
 4022d40:	1890b03a 	or	r8,r3,r2
 4022d44:	40017d26 	beq	r8,zero,402333c <__adddf3+0x7f0>
 4022d48:	1011883a 	mov	r8,r2
 4022d4c:	1823883a 	mov	r17,r3
 4022d50:	888001cc 	andi	r2,r17,7
 4022d54:	103f9e1e 	bne	r2,zero,4022bd0 <__flash_rwdata_start+0xffff02fc>
 4022d58:	4004977a 	slli	r2,r8,29
 4022d5c:	8822d0fa 	srli	r17,r17,3
 4022d60:	4010d0fa 	srli	r8,r8,3
 4022d64:	9007883a 	mov	r3,r18
 4022d68:	1444b03a 	or	r2,r2,r17
 4022d6c:	0101ffc4 	movi	r4,2047
 4022d70:	81002426 	beq	r16,r4,4022e04 <__adddf3+0x2b8>
 4022d74:	8120703a 	and	r16,r16,r4
 4022d78:	01000434 	movhi	r4,16
 4022d7c:	213fffc4 	addi	r4,r4,-1
 4022d80:	4110703a 	and	r8,r8,r4
 4022d84:	003fa806 	br	4022c28 <__flash_rwdata_start+0xffff0354>
 4022d88:	8089c83a 	sub	r4,r16,r2
 4022d8c:	01005e0e 	bge	zero,r4,4022f08 <__adddf3+0x3bc>
 4022d90:	10002b26 	beq	r2,zero,4022e40 <__adddf3+0x2f4>
 4022d94:	0081ffc4 	movi	r2,2047
 4022d98:	80bf8b26 	beq	r16,r2,4022bc8 <__flash_rwdata_start+0xffff02f4>
 4022d9c:	4a402034 	orhi	r9,r9,128
 4022da0:	00800e04 	movi	r2,56
 4022da4:	1100a40e 	bge	r2,r4,4023038 <__adddf3+0x4ec>
 4022da8:	498cb03a 	or	r6,r9,r6
 4022dac:	300ac03a 	cmpne	r5,r6,zero
 4022db0:	0013883a 	mov	r9,zero
 4022db4:	2c4b883a 	add	r5,r5,r17
 4022db8:	2c63803a 	cmpltu	r17,r5,r17
 4022dbc:	4a11883a 	add	r8,r9,r8
 4022dc0:	8a11883a 	add	r8,r17,r8
 4022dc4:	2823883a 	mov	r17,r5
 4022dc8:	4080202c 	andhi	r2,r8,128
 4022dcc:	103fe026 	beq	r2,zero,4022d50 <__flash_rwdata_start+0xffff047c>
 4022dd0:	84000044 	addi	r16,r16,1
 4022dd4:	0081ffc4 	movi	r2,2047
 4022dd8:	8080d226 	beq	r16,r2,4023124 <__adddf3+0x5d8>
 4022ddc:	00bfe034 	movhi	r2,65408
 4022de0:	10bfffc4 	addi	r2,r2,-1
 4022de4:	4090703a 	and	r8,r8,r2
 4022de8:	880ad07a 	srli	r5,r17,1
 4022dec:	400897fa 	slli	r4,r8,31
 4022df0:	88c0004c 	andi	r3,r17,1
 4022df4:	28e2b03a 	or	r17,r5,r3
 4022df8:	4010d07a 	srli	r8,r8,1
 4022dfc:	2462b03a 	or	r17,r4,r17
 4022e00:	003f7106 	br	4022bc8 <__flash_rwdata_start+0xffff02f4>
 4022e04:	4088b03a 	or	r4,r8,r2
 4022e08:	20014526 	beq	r4,zero,4023320 <__adddf3+0x7d4>
 4022e0c:	01000434 	movhi	r4,16
 4022e10:	42000234 	orhi	r8,r8,8
 4022e14:	213fffc4 	addi	r4,r4,-1
 4022e18:	4110703a 	and	r8,r8,r4
 4022e1c:	003f8206 	br	4022c28 <__flash_rwdata_start+0xffff0354>
 4022e20:	18ffffc4 	addi	r3,r3,-1
 4022e24:	1800491e 	bne	r3,zero,4022f4c <__adddf3+0x400>
 4022e28:	898bc83a 	sub	r5,r17,r6
 4022e2c:	8963803a 	cmpltu	r17,r17,r5
 4022e30:	4251c83a 	sub	r8,r8,r9
 4022e34:	4451c83a 	sub	r8,r8,r17
 4022e38:	2823883a 	mov	r17,r5
 4022e3c:	003f9f06 	br	4022cbc <__flash_rwdata_start+0xffff03e8>
 4022e40:	4984b03a 	or	r2,r9,r6
 4022e44:	103f6026 	beq	r2,zero,4022bc8 <__flash_rwdata_start+0xffff02f4>
 4022e48:	213fffc4 	addi	r4,r4,-1
 4022e4c:	2000931e 	bne	r4,zero,402309c <__adddf3+0x550>
 4022e50:	898d883a 	add	r6,r17,r6
 4022e54:	3463803a 	cmpltu	r17,r6,r17
 4022e58:	4251883a 	add	r8,r8,r9
 4022e5c:	8a11883a 	add	r8,r17,r8
 4022e60:	3023883a 	mov	r17,r6
 4022e64:	003fd806 	br	4022dc8 <__flash_rwdata_start+0xffff04f4>
 4022e68:	1800541e 	bne	r3,zero,4022fbc <__adddf3+0x470>
 4022e6c:	80800044 	addi	r2,r16,1
 4022e70:	1081ffcc 	andi	r2,r2,2047
 4022e74:	00c00044 	movi	r3,1
 4022e78:	1880a00e 	bge	r3,r2,40230fc <__adddf3+0x5b0>
 4022e7c:	8989c83a 	sub	r4,r17,r6
 4022e80:	8905803a 	cmpltu	r2,r17,r4
 4022e84:	4267c83a 	sub	r19,r8,r9
 4022e88:	98a7c83a 	sub	r19,r19,r2
 4022e8c:	9880202c 	andhi	r2,r19,128
 4022e90:	10006326 	beq	r2,zero,4023020 <__adddf3+0x4d4>
 4022e94:	3463c83a 	sub	r17,r6,r17
 4022e98:	4a07c83a 	sub	r3,r9,r8
 4022e9c:	344d803a 	cmpltu	r6,r6,r17
 4022ea0:	19a7c83a 	sub	r19,r3,r6
 4022ea4:	3825883a 	mov	r18,r7
 4022ea8:	983f8a1e 	bne	r19,zero,4022cd4 <__flash_rwdata_start+0xffff0400>
 4022eac:	8809883a 	mov	r4,r17
 4022eb0:	40255140 	call	4025514 <__clzsi2>
 4022eb4:	10800804 	addi	r2,r2,32
 4022eb8:	10fffe04 	addi	r3,r2,-8
 4022ebc:	010007c4 	movi	r4,31
 4022ec0:	20ff890e 	bge	r4,r3,4022ce8 <__flash_rwdata_start+0xffff0414>
 4022ec4:	10bff604 	addi	r2,r2,-40
 4022ec8:	8884983a 	sll	r2,r17,r2
 4022ecc:	0023883a 	mov	r17,zero
 4022ed0:	1c3f8c0e 	bge	r3,r16,4022d04 <__flash_rwdata_start+0xffff0430>
 4022ed4:	023fe034 	movhi	r8,65408
 4022ed8:	423fffc4 	addi	r8,r8,-1
 4022edc:	80e1c83a 	sub	r16,r16,r3
 4022ee0:	1210703a 	and	r8,r2,r8
 4022ee4:	003f3806 	br	4022bc8 <__flash_rwdata_start+0xffff02f4>
 4022ee8:	9007883a 	mov	r3,r18
 4022eec:	0011883a 	mov	r8,zero
 4022ef0:	0005883a 	mov	r2,zero
 4022ef4:	003f4c06 	br	4022c28 <__flash_rwdata_start+0xffff0354>
 4022ef8:	498cb03a 	or	r6,r9,r6
 4022efc:	300cc03a 	cmpne	r6,r6,zero
 4022f00:	0007883a 	mov	r3,zero
 4022f04:	003f6806 	br	4022ca8 <__flash_rwdata_start+0xffff03d4>
 4022f08:	20009c1e 	bne	r4,zero,402317c <__adddf3+0x630>
 4022f0c:	80800044 	addi	r2,r16,1
 4022f10:	1141ffcc 	andi	r5,r2,2047
 4022f14:	01000044 	movi	r4,1
 4022f18:	2140670e 	bge	r4,r5,40230b8 <__adddf3+0x56c>
 4022f1c:	0101ffc4 	movi	r4,2047
 4022f20:	11007f26 	beq	r2,r4,4023120 <__adddf3+0x5d4>
 4022f24:	898d883a 	add	r6,r17,r6
 4022f28:	4247883a 	add	r3,r8,r9
 4022f2c:	3451803a 	cmpltu	r8,r6,r17
 4022f30:	40d1883a 	add	r8,r8,r3
 4022f34:	402297fa 	slli	r17,r8,31
 4022f38:	300cd07a 	srli	r6,r6,1
 4022f3c:	4010d07a 	srli	r8,r8,1
 4022f40:	1021883a 	mov	r16,r2
 4022f44:	89a2b03a 	or	r17,r17,r6
 4022f48:	003f1f06 	br	4022bc8 <__flash_rwdata_start+0xffff02f4>
 4022f4c:	0081ffc4 	movi	r2,2047
 4022f50:	80bf481e 	bne	r16,r2,4022c74 <__flash_rwdata_start+0xffff03a0>
 4022f54:	003f1c06 	br	4022bc8 <__flash_rwdata_start+0xffff02f4>
 4022f58:	843ff844 	addi	r16,r16,-31
 4022f5c:	01000804 	movi	r4,32
 4022f60:	1406d83a 	srl	r3,r2,r16
 4022f64:	41005026 	beq	r8,r4,40230a8 <__adddf3+0x55c>
 4022f68:	01001004 	movi	r4,64
 4022f6c:	2211c83a 	sub	r8,r4,r8
 4022f70:	1204983a 	sll	r2,r2,r8
 4022f74:	88a2b03a 	or	r17,r17,r2
 4022f78:	8822c03a 	cmpne	r17,r17,zero
 4022f7c:	1c62b03a 	or	r17,r3,r17
 4022f80:	0011883a 	mov	r8,zero
 4022f84:	0021883a 	mov	r16,zero
 4022f88:	003f7106 	br	4022d50 <__flash_rwdata_start+0xffff047c>
 4022f8c:	193ff804 	addi	r4,r3,-32
 4022f90:	00800804 	movi	r2,32
 4022f94:	4908d83a 	srl	r4,r9,r4
 4022f98:	18804526 	beq	r3,r2,40230b0 <__adddf3+0x564>
 4022f9c:	00801004 	movi	r2,64
 4022fa0:	10c5c83a 	sub	r2,r2,r3
 4022fa4:	4886983a 	sll	r3,r9,r2
 4022fa8:	198cb03a 	or	r6,r3,r6
 4022fac:	300cc03a 	cmpne	r6,r6,zero
 4022fb0:	218cb03a 	or	r6,r4,r6
 4022fb4:	0007883a 	mov	r3,zero
 4022fb8:	003f3b06 	br	4022ca8 <__flash_rwdata_start+0xffff03d4>
 4022fbc:	80002a26 	beq	r16,zero,4023068 <__adddf3+0x51c>
 4022fc0:	0101ffc4 	movi	r4,2047
 4022fc4:	11006826 	beq	r2,r4,4023168 <__adddf3+0x61c>
 4022fc8:	00c7c83a 	sub	r3,zero,r3
 4022fcc:	42002034 	orhi	r8,r8,128
 4022fd0:	01000e04 	movi	r4,56
 4022fd4:	20c07c16 	blt	r4,r3,40231c8 <__adddf3+0x67c>
 4022fd8:	010007c4 	movi	r4,31
 4022fdc:	20c0da16 	blt	r4,r3,4023348 <__adddf3+0x7fc>
 4022fe0:	01000804 	movi	r4,32
 4022fe4:	20c9c83a 	sub	r4,r4,r3
 4022fe8:	4114983a 	sll	r10,r8,r4
 4022fec:	88cad83a 	srl	r5,r17,r3
 4022ff0:	8908983a 	sll	r4,r17,r4
 4022ff4:	40c6d83a 	srl	r3,r8,r3
 4022ff8:	5162b03a 	or	r17,r10,r5
 4022ffc:	2008c03a 	cmpne	r4,r4,zero
 4023000:	8922b03a 	or	r17,r17,r4
 4023004:	3463c83a 	sub	r17,r6,r17
 4023008:	48c7c83a 	sub	r3,r9,r3
 402300c:	344d803a 	cmpltu	r6,r6,r17
 4023010:	1991c83a 	sub	r8,r3,r6
 4023014:	1021883a 	mov	r16,r2
 4023018:	3825883a 	mov	r18,r7
 402301c:	003f2706 	br	4022cbc <__flash_rwdata_start+0xffff03e8>
 4023020:	24d0b03a 	or	r8,r4,r19
 4023024:	40001b1e 	bne	r8,zero,4023094 <__adddf3+0x548>
 4023028:	0005883a 	mov	r2,zero
 402302c:	0007883a 	mov	r3,zero
 4023030:	0021883a 	mov	r16,zero
 4023034:	003f4d06 	br	4022d6c <__flash_rwdata_start+0xffff0498>
 4023038:	008007c4 	movi	r2,31
 402303c:	11003c16 	blt	r2,r4,4023130 <__adddf3+0x5e4>
 4023040:	00800804 	movi	r2,32
 4023044:	1105c83a 	sub	r2,r2,r4
 4023048:	488e983a 	sll	r7,r9,r2
 402304c:	310ad83a 	srl	r5,r6,r4
 4023050:	3084983a 	sll	r2,r6,r2
 4023054:	4912d83a 	srl	r9,r9,r4
 4023058:	394ab03a 	or	r5,r7,r5
 402305c:	1004c03a 	cmpne	r2,r2,zero
 4023060:	288ab03a 	or	r5,r5,r2
 4023064:	003f5306 	br	4022db4 <__flash_rwdata_start+0xffff04e0>
 4023068:	4448b03a 	or	r4,r8,r17
 402306c:	20003e26 	beq	r4,zero,4023168 <__adddf3+0x61c>
 4023070:	00c6303a 	nor	r3,zero,r3
 4023074:	18003a1e 	bne	r3,zero,4023160 <__adddf3+0x614>
 4023078:	3463c83a 	sub	r17,r6,r17
 402307c:	4a07c83a 	sub	r3,r9,r8
 4023080:	344d803a 	cmpltu	r6,r6,r17
 4023084:	1991c83a 	sub	r8,r3,r6
 4023088:	1021883a 	mov	r16,r2
 402308c:	3825883a 	mov	r18,r7
 4023090:	003f0a06 	br	4022cbc <__flash_rwdata_start+0xffff03e8>
 4023094:	2023883a 	mov	r17,r4
 4023098:	003f0d06 	br	4022cd0 <__flash_rwdata_start+0xffff03fc>
 402309c:	0081ffc4 	movi	r2,2047
 40230a0:	80bf3f1e 	bne	r16,r2,4022da0 <__flash_rwdata_start+0xffff04cc>
 40230a4:	003ec806 	br	4022bc8 <__flash_rwdata_start+0xffff02f4>
 40230a8:	0005883a 	mov	r2,zero
 40230ac:	003fb106 	br	4022f74 <__flash_rwdata_start+0xffff06a0>
 40230b0:	0007883a 	mov	r3,zero
 40230b4:	003fbc06 	br	4022fa8 <__flash_rwdata_start+0xffff06d4>
 40230b8:	4444b03a 	or	r2,r8,r17
 40230bc:	8000871e 	bne	r16,zero,40232dc <__adddf3+0x790>
 40230c0:	1000ba26 	beq	r2,zero,40233ac <__adddf3+0x860>
 40230c4:	4984b03a 	or	r2,r9,r6
 40230c8:	103ebf26 	beq	r2,zero,4022bc8 <__flash_rwdata_start+0xffff02f4>
 40230cc:	8985883a 	add	r2,r17,r6
 40230d0:	4247883a 	add	r3,r8,r9
 40230d4:	1451803a 	cmpltu	r8,r2,r17
 40230d8:	40d1883a 	add	r8,r8,r3
 40230dc:	40c0202c 	andhi	r3,r8,128
 40230e0:	1023883a 	mov	r17,r2
 40230e4:	183f1a26 	beq	r3,zero,4022d50 <__flash_rwdata_start+0xffff047c>
 40230e8:	00bfe034 	movhi	r2,65408
 40230ec:	10bfffc4 	addi	r2,r2,-1
 40230f0:	2021883a 	mov	r16,r4
 40230f4:	4090703a 	and	r8,r8,r2
 40230f8:	003eb306 	br	4022bc8 <__flash_rwdata_start+0xffff02f4>
 40230fc:	4444b03a 	or	r2,r8,r17
 4023100:	8000291e 	bne	r16,zero,40231a8 <__adddf3+0x65c>
 4023104:	10004b1e 	bne	r2,zero,4023234 <__adddf3+0x6e8>
 4023108:	4990b03a 	or	r8,r9,r6
 402310c:	40008b26 	beq	r8,zero,402333c <__adddf3+0x7f0>
 4023110:	4811883a 	mov	r8,r9
 4023114:	3023883a 	mov	r17,r6
 4023118:	3825883a 	mov	r18,r7
 402311c:	003eaa06 	br	4022bc8 <__flash_rwdata_start+0xffff02f4>
 4023120:	1021883a 	mov	r16,r2
 4023124:	0011883a 	mov	r8,zero
 4023128:	0005883a 	mov	r2,zero
 402312c:	003f0f06 	br	4022d6c <__flash_rwdata_start+0xffff0498>
 4023130:	217ff804 	addi	r5,r4,-32
 4023134:	00800804 	movi	r2,32
 4023138:	494ad83a 	srl	r5,r9,r5
 402313c:	20807d26 	beq	r4,r2,4023334 <__adddf3+0x7e8>
 4023140:	00801004 	movi	r2,64
 4023144:	1109c83a 	sub	r4,r2,r4
 4023148:	4912983a 	sll	r9,r9,r4
 402314c:	498cb03a 	or	r6,r9,r6
 4023150:	300cc03a 	cmpne	r6,r6,zero
 4023154:	298ab03a 	or	r5,r5,r6
 4023158:	0013883a 	mov	r9,zero
 402315c:	003f1506 	br	4022db4 <__flash_rwdata_start+0xffff04e0>
 4023160:	0101ffc4 	movi	r4,2047
 4023164:	113f9a1e 	bne	r2,r4,4022fd0 <__flash_rwdata_start+0xffff06fc>
 4023168:	4811883a 	mov	r8,r9
 402316c:	3023883a 	mov	r17,r6
 4023170:	1021883a 	mov	r16,r2
 4023174:	3825883a 	mov	r18,r7
 4023178:	003e9306 	br	4022bc8 <__flash_rwdata_start+0xffff02f4>
 402317c:	8000161e 	bne	r16,zero,40231d8 <__adddf3+0x68c>
 4023180:	444ab03a 	or	r5,r8,r17
 4023184:	28005126 	beq	r5,zero,40232cc <__adddf3+0x780>
 4023188:	0108303a 	nor	r4,zero,r4
 402318c:	20004d1e 	bne	r4,zero,40232c4 <__adddf3+0x778>
 4023190:	89a3883a 	add	r17,r17,r6
 4023194:	4253883a 	add	r9,r8,r9
 4023198:	898d803a 	cmpltu	r6,r17,r6
 402319c:	3251883a 	add	r8,r6,r9
 40231a0:	1021883a 	mov	r16,r2
 40231a4:	003f0806 	br	4022dc8 <__flash_rwdata_start+0xffff04f4>
 40231a8:	1000301e 	bne	r2,zero,402326c <__adddf3+0x720>
 40231ac:	4984b03a 	or	r2,r9,r6
 40231b0:	10007126 	beq	r2,zero,4023378 <__adddf3+0x82c>
 40231b4:	4811883a 	mov	r8,r9
 40231b8:	3023883a 	mov	r17,r6
 40231bc:	3825883a 	mov	r18,r7
 40231c0:	0401ffc4 	movi	r16,2047
 40231c4:	003e8006 	br	4022bc8 <__flash_rwdata_start+0xffff02f4>
 40231c8:	4462b03a 	or	r17,r8,r17
 40231cc:	8822c03a 	cmpne	r17,r17,zero
 40231d0:	0007883a 	mov	r3,zero
 40231d4:	003f8b06 	br	4023004 <__flash_rwdata_start+0xffff0730>
 40231d8:	0141ffc4 	movi	r5,2047
 40231dc:	11403b26 	beq	r2,r5,40232cc <__adddf3+0x780>
 40231e0:	0109c83a 	sub	r4,zero,r4
 40231e4:	42002034 	orhi	r8,r8,128
 40231e8:	01400e04 	movi	r5,56
 40231ec:	29006716 	blt	r5,r4,402338c <__adddf3+0x840>
 40231f0:	014007c4 	movi	r5,31
 40231f4:	29007016 	blt	r5,r4,40233b8 <__adddf3+0x86c>
 40231f8:	01400804 	movi	r5,32
 40231fc:	290bc83a 	sub	r5,r5,r4
 4023200:	4154983a 	sll	r10,r8,r5
 4023204:	890ed83a 	srl	r7,r17,r4
 4023208:	894a983a 	sll	r5,r17,r5
 402320c:	4108d83a 	srl	r4,r8,r4
 4023210:	51e2b03a 	or	r17,r10,r7
 4023214:	280ac03a 	cmpne	r5,r5,zero
 4023218:	8962b03a 	or	r17,r17,r5
 402321c:	89a3883a 	add	r17,r17,r6
 4023220:	2253883a 	add	r9,r4,r9
 4023224:	898d803a 	cmpltu	r6,r17,r6
 4023228:	3251883a 	add	r8,r6,r9
 402322c:	1021883a 	mov	r16,r2
 4023230:	003ee506 	br	4022dc8 <__flash_rwdata_start+0xffff04f4>
 4023234:	4984b03a 	or	r2,r9,r6
 4023238:	103e6326 	beq	r2,zero,4022bc8 <__flash_rwdata_start+0xffff02f4>
 402323c:	8987c83a 	sub	r3,r17,r6
 4023240:	88c9803a 	cmpltu	r4,r17,r3
 4023244:	4245c83a 	sub	r2,r8,r9
 4023248:	1105c83a 	sub	r2,r2,r4
 402324c:	1100202c 	andhi	r4,r2,128
 4023250:	203ebb26 	beq	r4,zero,4022d40 <__flash_rwdata_start+0xffff046c>
 4023254:	3463c83a 	sub	r17,r6,r17
 4023258:	4a07c83a 	sub	r3,r9,r8
 402325c:	344d803a 	cmpltu	r6,r6,r17
 4023260:	1991c83a 	sub	r8,r3,r6
 4023264:	3825883a 	mov	r18,r7
 4023268:	003e5706 	br	4022bc8 <__flash_rwdata_start+0xffff02f4>
 402326c:	4984b03a 	or	r2,r9,r6
 4023270:	10002e26 	beq	r2,zero,402332c <__adddf3+0x7e0>
 4023274:	4004d0fa 	srli	r2,r8,3
 4023278:	8822d0fa 	srli	r17,r17,3
 402327c:	4010977a 	slli	r8,r8,29
 4023280:	10c0022c 	andhi	r3,r2,8
 4023284:	4462b03a 	or	r17,r8,r17
 4023288:	18000826 	beq	r3,zero,40232ac <__adddf3+0x760>
 402328c:	4808d0fa 	srli	r4,r9,3
 4023290:	20c0022c 	andhi	r3,r4,8
 4023294:	1800051e 	bne	r3,zero,40232ac <__adddf3+0x760>
 4023298:	300cd0fa 	srli	r6,r6,3
 402329c:	4806977a 	slli	r3,r9,29
 40232a0:	2005883a 	mov	r2,r4
 40232a4:	3825883a 	mov	r18,r7
 40232a8:	19a2b03a 	or	r17,r3,r6
 40232ac:	8810d77a 	srli	r8,r17,29
 40232b0:	100490fa 	slli	r2,r2,3
 40232b4:	882290fa 	slli	r17,r17,3
 40232b8:	0401ffc4 	movi	r16,2047
 40232bc:	4090b03a 	or	r8,r8,r2
 40232c0:	003e4106 	br	4022bc8 <__flash_rwdata_start+0xffff02f4>
 40232c4:	0141ffc4 	movi	r5,2047
 40232c8:	117fc71e 	bne	r2,r5,40231e8 <__flash_rwdata_start+0xffff0914>
 40232cc:	4811883a 	mov	r8,r9
 40232d0:	3023883a 	mov	r17,r6
 40232d4:	1021883a 	mov	r16,r2
 40232d8:	003e3b06 	br	4022bc8 <__flash_rwdata_start+0xffff02f4>
 40232dc:	10002f26 	beq	r2,zero,402339c <__adddf3+0x850>
 40232e0:	4984b03a 	or	r2,r9,r6
 40232e4:	10001126 	beq	r2,zero,402332c <__adddf3+0x7e0>
 40232e8:	4004d0fa 	srli	r2,r8,3
 40232ec:	8822d0fa 	srli	r17,r17,3
 40232f0:	4010977a 	slli	r8,r8,29
 40232f4:	10c0022c 	andhi	r3,r2,8
 40232f8:	4462b03a 	or	r17,r8,r17
 40232fc:	183feb26 	beq	r3,zero,40232ac <__flash_rwdata_start+0xffff09d8>
 4023300:	4808d0fa 	srli	r4,r9,3
 4023304:	20c0022c 	andhi	r3,r4,8
 4023308:	183fe81e 	bne	r3,zero,40232ac <__flash_rwdata_start+0xffff09d8>
 402330c:	300cd0fa 	srli	r6,r6,3
 4023310:	4806977a 	slli	r3,r9,29
 4023314:	2005883a 	mov	r2,r4
 4023318:	19a2b03a 	or	r17,r3,r6
 402331c:	003fe306 	br	40232ac <__flash_rwdata_start+0xffff09d8>
 4023320:	0011883a 	mov	r8,zero
 4023324:	0005883a 	mov	r2,zero
 4023328:	003e3f06 	br	4022c28 <__flash_rwdata_start+0xffff0354>
 402332c:	0401ffc4 	movi	r16,2047
 4023330:	003e2506 	br	4022bc8 <__flash_rwdata_start+0xffff02f4>
 4023334:	0013883a 	mov	r9,zero
 4023338:	003f8406 	br	402314c <__flash_rwdata_start+0xffff0878>
 402333c:	0005883a 	mov	r2,zero
 4023340:	0007883a 	mov	r3,zero
 4023344:	003e8906 	br	4022d6c <__flash_rwdata_start+0xffff0498>
 4023348:	197ff804 	addi	r5,r3,-32
 402334c:	01000804 	movi	r4,32
 4023350:	414ad83a 	srl	r5,r8,r5
 4023354:	19002426 	beq	r3,r4,40233e8 <__adddf3+0x89c>
 4023358:	01001004 	movi	r4,64
 402335c:	20c7c83a 	sub	r3,r4,r3
 4023360:	40c6983a 	sll	r3,r8,r3
 4023364:	1c46b03a 	or	r3,r3,r17
 4023368:	1806c03a 	cmpne	r3,r3,zero
 402336c:	28e2b03a 	or	r17,r5,r3
 4023370:	0007883a 	mov	r3,zero
 4023374:	003f2306 	br	4023004 <__flash_rwdata_start+0xffff0730>
 4023378:	0007883a 	mov	r3,zero
 402337c:	5811883a 	mov	r8,r11
 4023380:	00bfffc4 	movi	r2,-1
 4023384:	0401ffc4 	movi	r16,2047
 4023388:	003e7806 	br	4022d6c <__flash_rwdata_start+0xffff0498>
 402338c:	4462b03a 	or	r17,r8,r17
 4023390:	8822c03a 	cmpne	r17,r17,zero
 4023394:	0009883a 	mov	r4,zero
 4023398:	003fa006 	br	402321c <__flash_rwdata_start+0xffff0948>
 402339c:	4811883a 	mov	r8,r9
 40233a0:	3023883a 	mov	r17,r6
 40233a4:	0401ffc4 	movi	r16,2047
 40233a8:	003e0706 	br	4022bc8 <__flash_rwdata_start+0xffff02f4>
 40233ac:	4811883a 	mov	r8,r9
 40233b0:	3023883a 	mov	r17,r6
 40233b4:	003e0406 	br	4022bc8 <__flash_rwdata_start+0xffff02f4>
 40233b8:	21fff804 	addi	r7,r4,-32
 40233bc:	01400804 	movi	r5,32
 40233c0:	41ced83a 	srl	r7,r8,r7
 40233c4:	21400a26 	beq	r4,r5,40233f0 <__adddf3+0x8a4>
 40233c8:	01401004 	movi	r5,64
 40233cc:	2909c83a 	sub	r4,r5,r4
 40233d0:	4108983a 	sll	r4,r8,r4
 40233d4:	2448b03a 	or	r4,r4,r17
 40233d8:	2008c03a 	cmpne	r4,r4,zero
 40233dc:	3922b03a 	or	r17,r7,r4
 40233e0:	0009883a 	mov	r4,zero
 40233e4:	003f8d06 	br	402321c <__flash_rwdata_start+0xffff0948>
 40233e8:	0007883a 	mov	r3,zero
 40233ec:	003fdd06 	br	4023364 <__flash_rwdata_start+0xffff0a90>
 40233f0:	0009883a 	mov	r4,zero
 40233f4:	003ff706 	br	40233d4 <__flash_rwdata_start+0xffff0b00>

040233f8 <__divdf3>:
 40233f8:	defff004 	addi	sp,sp,-64
 40233fc:	dc800815 	stw	r18,32(sp)
 4023400:	2824d53a 	srli	r18,r5,20
 4023404:	dd800c15 	stw	r22,48(sp)
 4023408:	282cd7fa 	srli	r22,r5,31
 402340c:	dc000615 	stw	r16,24(sp)
 4023410:	04000434 	movhi	r16,16
 4023414:	843fffc4 	addi	r16,r16,-1
 4023418:	dfc00f15 	stw	ra,60(sp)
 402341c:	df000e15 	stw	fp,56(sp)
 4023420:	ddc00d15 	stw	r23,52(sp)
 4023424:	dd400b15 	stw	r21,44(sp)
 4023428:	dd000a15 	stw	r20,40(sp)
 402342c:	dcc00915 	stw	r19,36(sp)
 4023430:	dc400715 	stw	r17,28(sp)
 4023434:	9481ffcc 	andi	r18,r18,2047
 4023438:	2c20703a 	and	r16,r5,r16
 402343c:	b2003fcc 	andi	r8,r22,255
 4023440:	90006126 	beq	r18,zero,40235c8 <__divdf3+0x1d0>
 4023444:	0081ffc4 	movi	r2,2047
 4023448:	202b883a 	mov	r21,r4
 402344c:	90803726 	beq	r18,r2,402352c <__divdf3+0x134>
 4023450:	80800434 	orhi	r2,r16,16
 4023454:	100490fa 	slli	r2,r2,3
 4023458:	2020d77a 	srli	r16,r4,29
 402345c:	202a90fa 	slli	r21,r4,3
 4023460:	94bf0044 	addi	r18,r18,-1023
 4023464:	80a0b03a 	or	r16,r16,r2
 4023468:	0013883a 	mov	r9,zero
 402346c:	000b883a 	mov	r5,zero
 4023470:	3806d53a 	srli	r3,r7,20
 4023474:	382ed7fa 	srli	r23,r7,31
 4023478:	04400434 	movhi	r17,16
 402347c:	8c7fffc4 	addi	r17,r17,-1
 4023480:	18c1ffcc 	andi	r3,r3,2047
 4023484:	3029883a 	mov	r20,r6
 4023488:	3c62703a 	and	r17,r7,r17
 402348c:	bf003fcc 	andi	fp,r23,255
 4023490:	18006e26 	beq	r3,zero,402364c <__divdf3+0x254>
 4023494:	0081ffc4 	movi	r2,2047
 4023498:	18806626 	beq	r3,r2,4023634 <__divdf3+0x23c>
 402349c:	88800434 	orhi	r2,r17,16
 40234a0:	100490fa 	slli	r2,r2,3
 40234a4:	3022d77a 	srli	r17,r6,29
 40234a8:	302890fa 	slli	r20,r6,3
 40234ac:	18ff0044 	addi	r3,r3,-1023
 40234b0:	88a2b03a 	or	r17,r17,r2
 40234b4:	000f883a 	mov	r7,zero
 40234b8:	b5e6f03a 	xor	r19,r22,r23
 40234bc:	3a4cb03a 	or	r6,r7,r9
 40234c0:	008003c4 	movi	r2,15
 40234c4:	9809883a 	mov	r4,r19
 40234c8:	90c7c83a 	sub	r3,r18,r3
 40234cc:	9cc03fcc 	andi	r19,r19,255
 40234d0:	11809636 	bltu	r2,r6,402372c <__divdf3+0x334>
 40234d4:	300c90ba 	slli	r6,r6,2
 40234d8:	008100b4 	movhi	r2,1026
 40234dc:	108d3b04 	addi	r2,r2,13548
 40234e0:	308d883a 	add	r6,r6,r2
 40234e4:	30800017 	ldw	r2,0(r6)
 40234e8:	1000683a 	jmp	r2
 40234ec:	0402372c 	andhi	r16,zero,2268
 40234f0:	04023564 	muli	r16,zero,2261
 40234f4:	0402371c 	xori	r16,zero,2268
 40234f8:	04023558 	cmpnei	r16,zero,2261
 40234fc:	0402371c 	xori	r16,zero,2268
 4023500:	040236f0 	cmpltui	r16,zero,2267
 4023504:	0402371c 	xori	r16,zero,2268
 4023508:	04023558 	cmpnei	r16,zero,2261
 402350c:	04023564 	muli	r16,zero,2261
 4023510:	04023564 	muli	r16,zero,2261
 4023514:	040236f0 	cmpltui	r16,zero,2267
 4023518:	04023558 	cmpnei	r16,zero,2261
 402351c:	04023548 	cmpgei	r16,zero,2261
 4023520:	04023548 	cmpgei	r16,zero,2261
 4023524:	04023548 	cmpgei	r16,zero,2261
 4023528:	04023ab4 	movhi	r16,2282
 402352c:	2404b03a 	or	r2,r4,r16
 4023530:	10006c1e 	bne	r2,zero,40236e4 <__divdf3+0x2ec>
 4023534:	02400204 	movi	r9,8
 4023538:	0021883a 	mov	r16,zero
 402353c:	002b883a 	mov	r21,zero
 4023540:	01400084 	movi	r5,2
 4023544:	003fca06 	br	4023470 <__flash_rwdata_start+0xffff0b9c>
 4023548:	8023883a 	mov	r17,r16
 402354c:	a829883a 	mov	r20,r21
 4023550:	4039883a 	mov	fp,r8
 4023554:	280f883a 	mov	r7,r5
 4023558:	00800084 	movi	r2,2
 402355c:	3881601e 	bne	r7,r2,4023ae0 <__divdf3+0x6e8>
 4023560:	e027883a 	mov	r19,fp
 4023564:	9900004c 	andi	r4,r19,1
 4023568:	0081ffc4 	movi	r2,2047
 402356c:	0021883a 	mov	r16,zero
 4023570:	002b883a 	mov	r21,zero
 4023574:	1004953a 	slli	r2,r2,20
 4023578:	20c03fcc 	andi	r3,r4,255
 402357c:	01400434 	movhi	r5,16
 4023580:	297fffc4 	addi	r5,r5,-1
 4023584:	180697fa 	slli	r3,r3,31
 4023588:	8160703a 	and	r16,r16,r5
 402358c:	80a0b03a 	or	r16,r16,r2
 4023590:	80c6b03a 	or	r3,r16,r3
 4023594:	a805883a 	mov	r2,r21
 4023598:	dfc00f17 	ldw	ra,60(sp)
 402359c:	df000e17 	ldw	fp,56(sp)
 40235a0:	ddc00d17 	ldw	r23,52(sp)
 40235a4:	dd800c17 	ldw	r22,48(sp)
 40235a8:	dd400b17 	ldw	r21,44(sp)
 40235ac:	dd000a17 	ldw	r20,40(sp)
 40235b0:	dcc00917 	ldw	r19,36(sp)
 40235b4:	dc800817 	ldw	r18,32(sp)
 40235b8:	dc400717 	ldw	r17,28(sp)
 40235bc:	dc000617 	ldw	r16,24(sp)
 40235c0:	dec01004 	addi	sp,sp,64
 40235c4:	f800283a 	ret
 40235c8:	2404b03a 	or	r2,r4,r16
 40235cc:	2023883a 	mov	r17,r4
 40235d0:	10003f26 	beq	r2,zero,40236d0 <__divdf3+0x2d8>
 40235d4:	80015e26 	beq	r16,zero,4023b50 <__divdf3+0x758>
 40235d8:	8009883a 	mov	r4,r16
 40235dc:	d9800215 	stw	r6,8(sp)
 40235e0:	d9c00515 	stw	r7,20(sp)
 40235e4:	da000415 	stw	r8,16(sp)
 40235e8:	40255140 	call	4025514 <__clzsi2>
 40235ec:	d9800217 	ldw	r6,8(sp)
 40235f0:	d9c00517 	ldw	r7,20(sp)
 40235f4:	da000417 	ldw	r8,16(sp)
 40235f8:	113ffd44 	addi	r4,r2,-11
 40235fc:	00c00704 	movi	r3,28
 4023600:	19014f16 	blt	r3,r4,4023b40 <__divdf3+0x748>
 4023604:	00c00744 	movi	r3,29
 4023608:	157ffe04 	addi	r21,r2,-8
 402360c:	1907c83a 	sub	r3,r3,r4
 4023610:	8560983a 	sll	r16,r16,r21
 4023614:	88c6d83a 	srl	r3,r17,r3
 4023618:	8d6a983a 	sll	r21,r17,r21
 402361c:	1c20b03a 	or	r16,r3,r16
 4023620:	1080fcc4 	addi	r2,r2,1011
 4023624:	00a5c83a 	sub	r18,zero,r2
 4023628:	0013883a 	mov	r9,zero
 402362c:	000b883a 	mov	r5,zero
 4023630:	003f8f06 	br	4023470 <__flash_rwdata_start+0xffff0b9c>
 4023634:	3444b03a 	or	r2,r6,r17
 4023638:	1000231e 	bne	r2,zero,40236c8 <__divdf3+0x2d0>
 402363c:	0023883a 	mov	r17,zero
 4023640:	0029883a 	mov	r20,zero
 4023644:	01c00084 	movi	r7,2
 4023648:	003f9b06 	br	40234b8 <__flash_rwdata_start+0xffff0be4>
 402364c:	3444b03a 	or	r2,r6,r17
 4023650:	10001926 	beq	r2,zero,40236b8 <__divdf3+0x2c0>
 4023654:	88014b26 	beq	r17,zero,4023b84 <__divdf3+0x78c>
 4023658:	8809883a 	mov	r4,r17
 402365c:	d9400115 	stw	r5,4(sp)
 4023660:	d9800215 	stw	r6,8(sp)
 4023664:	da000415 	stw	r8,16(sp)
 4023668:	da400315 	stw	r9,12(sp)
 402366c:	40255140 	call	4025514 <__clzsi2>
 4023670:	d9400117 	ldw	r5,4(sp)
 4023674:	d9800217 	ldw	r6,8(sp)
 4023678:	da000417 	ldw	r8,16(sp)
 402367c:	da400317 	ldw	r9,12(sp)
 4023680:	113ffd44 	addi	r4,r2,-11
 4023684:	00c00704 	movi	r3,28
 4023688:	19013a16 	blt	r3,r4,4023b74 <__divdf3+0x77c>
 402368c:	00c00744 	movi	r3,29
 4023690:	153ffe04 	addi	r20,r2,-8
 4023694:	1907c83a 	sub	r3,r3,r4
 4023698:	8d22983a 	sll	r17,r17,r20
 402369c:	30c6d83a 	srl	r3,r6,r3
 40236a0:	3528983a 	sll	r20,r6,r20
 40236a4:	1c62b03a 	or	r17,r3,r17
 40236a8:	1080fcc4 	addi	r2,r2,1011
 40236ac:	0087c83a 	sub	r3,zero,r2
 40236b0:	000f883a 	mov	r7,zero
 40236b4:	003f8006 	br	40234b8 <__flash_rwdata_start+0xffff0be4>
 40236b8:	0023883a 	mov	r17,zero
 40236bc:	0029883a 	mov	r20,zero
 40236c0:	01c00044 	movi	r7,1
 40236c4:	003f7c06 	br	40234b8 <__flash_rwdata_start+0xffff0be4>
 40236c8:	01c000c4 	movi	r7,3
 40236cc:	003f7a06 	br	40234b8 <__flash_rwdata_start+0xffff0be4>
 40236d0:	02400104 	movi	r9,4
 40236d4:	0021883a 	mov	r16,zero
 40236d8:	002b883a 	mov	r21,zero
 40236dc:	01400044 	movi	r5,1
 40236e0:	003f6306 	br	4023470 <__flash_rwdata_start+0xffff0b9c>
 40236e4:	02400304 	movi	r9,12
 40236e8:	014000c4 	movi	r5,3
 40236ec:	003f6006 	br	4023470 <__flash_rwdata_start+0xffff0b9c>
 40236f0:	04000434 	movhi	r16,16
 40236f4:	0009883a 	mov	r4,zero
 40236f8:	843fffc4 	addi	r16,r16,-1
 40236fc:	057fffc4 	movi	r21,-1
 4023700:	0081ffc4 	movi	r2,2047
 4023704:	003f9b06 	br	4023574 <__flash_rwdata_start+0xffff0ca0>
 4023708:	00c00044 	movi	r3,1
 402370c:	1887c83a 	sub	r3,r3,r2
 4023710:	01000e04 	movi	r4,56
 4023714:	20c1530e 	bge	r4,r3,4023c64 <__divdf3+0x86c>
 4023718:	9900004c 	andi	r4,r19,1
 402371c:	0005883a 	mov	r2,zero
 4023720:	0021883a 	mov	r16,zero
 4023724:	002b883a 	mov	r21,zero
 4023728:	003f9206 	br	4023574 <__flash_rwdata_start+0xffff0ca0>
 402372c:	8c012e36 	bltu	r17,r16,4023be8 <__divdf3+0x7f0>
 4023730:	84412c26 	beq	r16,r17,4023be4 <__divdf3+0x7ec>
 4023734:	a82f883a 	mov	r23,r21
 4023738:	18ffffc4 	addi	r3,r3,-1
 402373c:	002b883a 	mov	r21,zero
 4023740:	a004d63a 	srli	r2,r20,24
 4023744:	8822923a 	slli	r17,r17,8
 4023748:	a028923a 	slli	r20,r20,8
 402374c:	8009883a 	mov	r4,r16
 4023750:	88acb03a 	or	r22,r17,r2
 4023754:	dd000015 	stw	r20,0(sp)
 4023758:	b028d43a 	srli	r20,r22,16
 402375c:	d8c00215 	stw	r3,8(sp)
 4023760:	b4bfffcc 	andi	r18,r22,65535
 4023764:	a00b883a 	mov	r5,r20
 4023768:	40256700 	call	4025670 <__udivsi3>
 402376c:	100b883a 	mov	r5,r2
 4023770:	9009883a 	mov	r4,r18
 4023774:	1023883a 	mov	r17,r2
 4023778:	402572c0 	call	402572c <__mulsi3>
 402377c:	8009883a 	mov	r4,r16
 4023780:	a00b883a 	mov	r5,r20
 4023784:	1039883a 	mov	fp,r2
 4023788:	40256d40 	call	40256d4 <__umodsi3>
 402378c:	1004943a 	slli	r2,r2,16
 4023790:	b808d43a 	srli	r4,r23,16
 4023794:	d8c00217 	ldw	r3,8(sp)
 4023798:	2084b03a 	or	r2,r4,r2
 402379c:	1700062e 	bgeu	r2,fp,40237b8 <__divdf3+0x3c0>
 40237a0:	1585883a 	add	r2,r2,r22
 40237a4:	893fffc4 	addi	r4,r17,-1
 40237a8:	15811d36 	bltu	r2,r22,4023c20 <__divdf3+0x828>
 40237ac:	17011c2e 	bgeu	r2,fp,4023c20 <__divdf3+0x828>
 40237b0:	8c7fff84 	addi	r17,r17,-2
 40237b4:	1585883a 	add	r2,r2,r22
 40237b8:	1739c83a 	sub	fp,r2,fp
 40237bc:	a00b883a 	mov	r5,r20
 40237c0:	e009883a 	mov	r4,fp
 40237c4:	d8c00215 	stw	r3,8(sp)
 40237c8:	40256700 	call	4025670 <__udivsi3>
 40237cc:	100b883a 	mov	r5,r2
 40237d0:	9009883a 	mov	r4,r18
 40237d4:	1021883a 	mov	r16,r2
 40237d8:	402572c0 	call	402572c <__mulsi3>
 40237dc:	a00b883a 	mov	r5,r20
 40237e0:	e009883a 	mov	r4,fp
 40237e4:	d8800415 	stw	r2,16(sp)
 40237e8:	40256d40 	call	40256d4 <__umodsi3>
 40237ec:	1004943a 	slli	r2,r2,16
 40237f0:	da000417 	ldw	r8,16(sp)
 40237f4:	bdffffcc 	andi	r23,r23,65535
 40237f8:	b884b03a 	or	r2,r23,r2
 40237fc:	d8c00217 	ldw	r3,8(sp)
 4023800:	1200062e 	bgeu	r2,r8,402381c <__divdf3+0x424>
 4023804:	1585883a 	add	r2,r2,r22
 4023808:	813fffc4 	addi	r4,r16,-1
 402380c:	15810236 	bltu	r2,r22,4023c18 <__divdf3+0x820>
 4023810:	1201012e 	bgeu	r2,r8,4023c18 <__divdf3+0x820>
 4023814:	843fff84 	addi	r16,r16,-2
 4023818:	1585883a 	add	r2,r2,r22
 402381c:	8822943a 	slli	r17,r17,16
 4023820:	d9800017 	ldw	r6,0(sp)
 4023824:	1211c83a 	sub	r8,r2,r8
 4023828:	8c22b03a 	or	r17,r17,r16
 402382c:	373fffcc 	andi	fp,r6,65535
 4023830:	8abfffcc 	andi	r10,r17,65535
 4023834:	8820d43a 	srli	r16,r17,16
 4023838:	5009883a 	mov	r4,r10
 402383c:	e00b883a 	mov	r5,fp
 4023840:	302ed43a 	srli	r23,r6,16
 4023844:	d8c00215 	stw	r3,8(sp)
 4023848:	da000415 	stw	r8,16(sp)
 402384c:	da800115 	stw	r10,4(sp)
 4023850:	402572c0 	call	402572c <__mulsi3>
 4023854:	800b883a 	mov	r5,r16
 4023858:	e009883a 	mov	r4,fp
 402385c:	d8800515 	stw	r2,20(sp)
 4023860:	402572c0 	call	402572c <__mulsi3>
 4023864:	8009883a 	mov	r4,r16
 4023868:	b80b883a 	mov	r5,r23
 402386c:	d8800315 	stw	r2,12(sp)
 4023870:	402572c0 	call	402572c <__mulsi3>
 4023874:	da800117 	ldw	r10,4(sp)
 4023878:	b80b883a 	mov	r5,r23
 402387c:	1021883a 	mov	r16,r2
 4023880:	5009883a 	mov	r4,r10
 4023884:	402572c0 	call	402572c <__mulsi3>
 4023888:	d9c00517 	ldw	r7,20(sp)
 402388c:	da400317 	ldw	r9,12(sp)
 4023890:	d8c00217 	ldw	r3,8(sp)
 4023894:	3808d43a 	srli	r4,r7,16
 4023898:	1245883a 	add	r2,r2,r9
 402389c:	da000417 	ldw	r8,16(sp)
 40238a0:	2085883a 	add	r2,r4,r2
 40238a4:	1240022e 	bgeu	r2,r9,40238b0 <__divdf3+0x4b8>
 40238a8:	01000074 	movhi	r4,1
 40238ac:	8121883a 	add	r16,r16,r4
 40238b0:	1008d43a 	srli	r4,r2,16
 40238b4:	1004943a 	slli	r2,r2,16
 40238b8:	39ffffcc 	andi	r7,r7,65535
 40238bc:	2409883a 	add	r4,r4,r16
 40238c0:	11c5883a 	add	r2,r2,r7
 40238c4:	4100bb36 	bltu	r8,r4,4023bb4 <__divdf3+0x7bc>
 40238c8:	4100d726 	beq	r8,r4,4023c28 <__divdf3+0x830>
 40238cc:	4109c83a 	sub	r4,r8,r4
 40238d0:	a8a1c83a 	sub	r16,r21,r2
 40238d4:	ac2b803a 	cmpltu	r21,r21,r16
 40238d8:	256bc83a 	sub	r21,r4,r21
 40238dc:	b540d926 	beq	r22,r21,4023c44 <__divdf3+0x84c>
 40238e0:	a00b883a 	mov	r5,r20
 40238e4:	a809883a 	mov	r4,r21
 40238e8:	d8c00215 	stw	r3,8(sp)
 40238ec:	40256700 	call	4025670 <__udivsi3>
 40238f0:	100b883a 	mov	r5,r2
 40238f4:	9009883a 	mov	r4,r18
 40238f8:	d8800515 	stw	r2,20(sp)
 40238fc:	402572c0 	call	402572c <__mulsi3>
 4023900:	a809883a 	mov	r4,r21
 4023904:	a00b883a 	mov	r5,r20
 4023908:	d8800415 	stw	r2,16(sp)
 402390c:	40256d40 	call	40256d4 <__umodsi3>
 4023910:	1004943a 	slli	r2,r2,16
 4023914:	8008d43a 	srli	r4,r16,16
 4023918:	da000417 	ldw	r8,16(sp)
 402391c:	d8c00217 	ldw	r3,8(sp)
 4023920:	2084b03a 	or	r2,r4,r2
 4023924:	d9c00517 	ldw	r7,20(sp)
 4023928:	1200062e 	bgeu	r2,r8,4023944 <__divdf3+0x54c>
 402392c:	1585883a 	add	r2,r2,r22
 4023930:	393fffc4 	addi	r4,r7,-1
 4023934:	1580c536 	bltu	r2,r22,4023c4c <__divdf3+0x854>
 4023938:	1200c42e 	bgeu	r2,r8,4023c4c <__divdf3+0x854>
 402393c:	39ffff84 	addi	r7,r7,-2
 4023940:	1585883a 	add	r2,r2,r22
 4023944:	122bc83a 	sub	r21,r2,r8
 4023948:	a00b883a 	mov	r5,r20
 402394c:	a809883a 	mov	r4,r21
 4023950:	d8c00215 	stw	r3,8(sp)
 4023954:	d9c00515 	stw	r7,20(sp)
 4023958:	40256700 	call	4025670 <__udivsi3>
 402395c:	9009883a 	mov	r4,r18
 4023960:	100b883a 	mov	r5,r2
 4023964:	d8800415 	stw	r2,16(sp)
 4023968:	402572c0 	call	402572c <__mulsi3>
 402396c:	a809883a 	mov	r4,r21
 4023970:	a00b883a 	mov	r5,r20
 4023974:	1025883a 	mov	r18,r2
 4023978:	40256d40 	call	40256d4 <__umodsi3>
 402397c:	1004943a 	slli	r2,r2,16
 4023980:	813fffcc 	andi	r4,r16,65535
 4023984:	d8c00217 	ldw	r3,8(sp)
 4023988:	20a0b03a 	or	r16,r4,r2
 402398c:	d9c00517 	ldw	r7,20(sp)
 4023990:	da000417 	ldw	r8,16(sp)
 4023994:	8480062e 	bgeu	r16,r18,40239b0 <__divdf3+0x5b8>
 4023998:	85a1883a 	add	r16,r16,r22
 402399c:	40bfffc4 	addi	r2,r8,-1
 40239a0:	8580ac36 	bltu	r16,r22,4023c54 <__divdf3+0x85c>
 40239a4:	8480ab2e 	bgeu	r16,r18,4023c54 <__divdf3+0x85c>
 40239a8:	423fff84 	addi	r8,r8,-2
 40239ac:	85a1883a 	add	r16,r16,r22
 40239b0:	3804943a 	slli	r2,r7,16
 40239b4:	84a1c83a 	sub	r16,r16,r18
 40239b8:	e009883a 	mov	r4,fp
 40239bc:	1228b03a 	or	r20,r2,r8
 40239c0:	a1ffffcc 	andi	r7,r20,65535
 40239c4:	a024d43a 	srli	r18,r20,16
 40239c8:	380b883a 	mov	r5,r7
 40239cc:	d8c00215 	stw	r3,8(sp)
 40239d0:	d9c00515 	stw	r7,20(sp)
 40239d4:	402572c0 	call	402572c <__mulsi3>
 40239d8:	900b883a 	mov	r5,r18
 40239dc:	e009883a 	mov	r4,fp
 40239e0:	102b883a 	mov	r21,r2
 40239e4:	402572c0 	call	402572c <__mulsi3>
 40239e8:	900b883a 	mov	r5,r18
 40239ec:	b809883a 	mov	r4,r23
 40239f0:	1039883a 	mov	fp,r2
 40239f4:	402572c0 	call	402572c <__mulsi3>
 40239f8:	d9c00517 	ldw	r7,20(sp)
 40239fc:	b80b883a 	mov	r5,r23
 4023a00:	1025883a 	mov	r18,r2
 4023a04:	3809883a 	mov	r4,r7
 4023a08:	402572c0 	call	402572c <__mulsi3>
 4023a0c:	a808d43a 	srli	r4,r21,16
 4023a10:	1705883a 	add	r2,r2,fp
 4023a14:	d8c00217 	ldw	r3,8(sp)
 4023a18:	2085883a 	add	r2,r4,r2
 4023a1c:	1700022e 	bgeu	r2,fp,4023a28 <__divdf3+0x630>
 4023a20:	01000074 	movhi	r4,1
 4023a24:	9125883a 	add	r18,r18,r4
 4023a28:	1008d43a 	srli	r4,r2,16
 4023a2c:	1004943a 	slli	r2,r2,16
 4023a30:	ad7fffcc 	andi	r21,r21,65535
 4023a34:	2489883a 	add	r4,r4,r18
 4023a38:	1545883a 	add	r2,r2,r21
 4023a3c:	81003836 	bltu	r16,r4,4023b20 <__divdf3+0x728>
 4023a40:	81003626 	beq	r16,r4,4023b1c <__divdf3+0x724>
 4023a44:	a5000054 	ori	r20,r20,1
 4023a48:	1880ffc4 	addi	r2,r3,1023
 4023a4c:	00bf2e0e 	bge	zero,r2,4023708 <__flash_rwdata_start+0xffff0e34>
 4023a50:	a10001cc 	andi	r4,r20,7
 4023a54:	20000726 	beq	r4,zero,4023a74 <__divdf3+0x67c>
 4023a58:	a10003cc 	andi	r4,r20,15
 4023a5c:	01400104 	movi	r5,4
 4023a60:	21400426 	beq	r4,r5,4023a74 <__divdf3+0x67c>
 4023a64:	a149883a 	add	r4,r20,r5
 4023a68:	2529803a 	cmpltu	r20,r4,r20
 4023a6c:	8d23883a 	add	r17,r17,r20
 4023a70:	2029883a 	mov	r20,r4
 4023a74:	8900402c 	andhi	r4,r17,256
 4023a78:	20000426 	beq	r4,zero,4023a8c <__divdf3+0x694>
 4023a7c:	18810004 	addi	r2,r3,1024
 4023a80:	00ffc034 	movhi	r3,65280
 4023a84:	18ffffc4 	addi	r3,r3,-1
 4023a88:	88e2703a 	and	r17,r17,r3
 4023a8c:	00c1ff84 	movi	r3,2046
 4023a90:	18beb416 	blt	r3,r2,4023564 <__flash_rwdata_start+0xffff0c90>
 4023a94:	a028d0fa 	srli	r20,r20,3
 4023a98:	882a977a 	slli	r21,r17,29
 4023a9c:	8820927a 	slli	r16,r17,9
 4023aa0:	1081ffcc 	andi	r2,r2,2047
 4023aa4:	ad2ab03a 	or	r21,r21,r20
 4023aa8:	8020d33a 	srli	r16,r16,12
 4023aac:	9900004c 	andi	r4,r19,1
 4023ab0:	003eb006 	br	4023574 <__flash_rwdata_start+0xffff0ca0>
 4023ab4:	8080022c 	andhi	r2,r16,8
 4023ab8:	10001226 	beq	r2,zero,4023b04 <__divdf3+0x70c>
 4023abc:	8880022c 	andhi	r2,r17,8
 4023ac0:	1000101e 	bne	r2,zero,4023b04 <__divdf3+0x70c>
 4023ac4:	00800434 	movhi	r2,16
 4023ac8:	8c000234 	orhi	r16,r17,8
 4023acc:	10bfffc4 	addi	r2,r2,-1
 4023ad0:	b809883a 	mov	r4,r23
 4023ad4:	80a0703a 	and	r16,r16,r2
 4023ad8:	a02b883a 	mov	r21,r20
 4023adc:	003f0806 	br	4023700 <__flash_rwdata_start+0xffff0e2c>
 4023ae0:	008000c4 	movi	r2,3
 4023ae4:	3880b126 	beq	r7,r2,4023dac <__divdf3+0x9b4>
 4023ae8:	00800044 	movi	r2,1
 4023aec:	38805b1e 	bne	r7,r2,4023c5c <__divdf3+0x864>
 4023af0:	e009883a 	mov	r4,fp
 4023af4:	0005883a 	mov	r2,zero
 4023af8:	0021883a 	mov	r16,zero
 4023afc:	002b883a 	mov	r21,zero
 4023b00:	003e9c06 	br	4023574 <__flash_rwdata_start+0xffff0ca0>
 4023b04:	00800434 	movhi	r2,16
 4023b08:	84000234 	orhi	r16,r16,8
 4023b0c:	10bfffc4 	addi	r2,r2,-1
 4023b10:	b009883a 	mov	r4,r22
 4023b14:	80a0703a 	and	r16,r16,r2
 4023b18:	003ef906 	br	4023700 <__flash_rwdata_start+0xffff0e2c>
 4023b1c:	103fca26 	beq	r2,zero,4023a48 <__flash_rwdata_start+0xffff1174>
 4023b20:	b421883a 	add	r16,r22,r16
 4023b24:	a17fffc4 	addi	r5,r20,-1
 4023b28:	8580422e 	bgeu	r16,r22,4023c34 <__divdf3+0x83c>
 4023b2c:	2829883a 	mov	r20,r5
 4023b30:	813fc41e 	bne	r16,r4,4023a44 <__flash_rwdata_start+0xffff1170>
 4023b34:	d9800017 	ldw	r6,0(sp)
 4023b38:	30bfc21e 	bne	r6,r2,4023a44 <__flash_rwdata_start+0xffff1170>
 4023b3c:	003fc206 	br	4023a48 <__flash_rwdata_start+0xffff1174>
 4023b40:	143ff604 	addi	r16,r2,-40
 4023b44:	8c20983a 	sll	r16,r17,r16
 4023b48:	002b883a 	mov	r21,zero
 4023b4c:	003eb406 	br	4023620 <__flash_rwdata_start+0xffff0d4c>
 4023b50:	d9800215 	stw	r6,8(sp)
 4023b54:	d9c00515 	stw	r7,20(sp)
 4023b58:	da000415 	stw	r8,16(sp)
 4023b5c:	40255140 	call	4025514 <__clzsi2>
 4023b60:	10800804 	addi	r2,r2,32
 4023b64:	da000417 	ldw	r8,16(sp)
 4023b68:	d9c00517 	ldw	r7,20(sp)
 4023b6c:	d9800217 	ldw	r6,8(sp)
 4023b70:	003ea106 	br	40235f8 <__flash_rwdata_start+0xffff0d24>
 4023b74:	147ff604 	addi	r17,r2,-40
 4023b78:	3462983a 	sll	r17,r6,r17
 4023b7c:	0029883a 	mov	r20,zero
 4023b80:	003ec906 	br	40236a8 <__flash_rwdata_start+0xffff0dd4>
 4023b84:	3009883a 	mov	r4,r6
 4023b88:	d9400115 	stw	r5,4(sp)
 4023b8c:	d9800215 	stw	r6,8(sp)
 4023b90:	da000415 	stw	r8,16(sp)
 4023b94:	da400315 	stw	r9,12(sp)
 4023b98:	40255140 	call	4025514 <__clzsi2>
 4023b9c:	10800804 	addi	r2,r2,32
 4023ba0:	da400317 	ldw	r9,12(sp)
 4023ba4:	da000417 	ldw	r8,16(sp)
 4023ba8:	d9800217 	ldw	r6,8(sp)
 4023bac:	d9400117 	ldw	r5,4(sp)
 4023bb0:	003eb306 	br	4023680 <__flash_rwdata_start+0xffff0dac>
 4023bb4:	d9800017 	ldw	r6,0(sp)
 4023bb8:	a9ab883a 	add	r21,r21,r6
 4023bbc:	a98b803a 	cmpltu	r5,r21,r6
 4023bc0:	2d8b883a 	add	r5,r5,r22
 4023bc4:	2a11883a 	add	r8,r5,r8
 4023bc8:	897fffc4 	addi	r5,r17,-1
 4023bcc:	b2000c2e 	bgeu	r22,r8,4023c00 <__divdf3+0x808>
 4023bd0:	41003f36 	bltu	r8,r4,4023cd0 <__divdf3+0x8d8>
 4023bd4:	22006c26 	beq	r4,r8,4023d88 <__divdf3+0x990>
 4023bd8:	4109c83a 	sub	r4,r8,r4
 4023bdc:	2823883a 	mov	r17,r5
 4023be0:	003f3b06 	br	40238d0 <__flash_rwdata_start+0xffff0ffc>
 4023be4:	ad3ed336 	bltu	r21,r20,4023734 <__flash_rwdata_start+0xffff0e60>
 4023be8:	a804d07a 	srli	r2,r21,1
 4023bec:	802e97fa 	slli	r23,r16,31
 4023bf0:	a82a97fa 	slli	r21,r21,31
 4023bf4:	8020d07a 	srli	r16,r16,1
 4023bf8:	b8aeb03a 	or	r23,r23,r2
 4023bfc:	003ed006 	br	4023740 <__flash_rwdata_start+0xffff0e6c>
 4023c00:	b23ff51e 	bne	r22,r8,4023bd8 <__flash_rwdata_start+0xffff1304>
 4023c04:	d9800017 	ldw	r6,0(sp)
 4023c08:	a9bff12e 	bgeu	r21,r6,4023bd0 <__flash_rwdata_start+0xffff12fc>
 4023c0c:	b109c83a 	sub	r4,r22,r4
 4023c10:	2823883a 	mov	r17,r5
 4023c14:	003f2e06 	br	40238d0 <__flash_rwdata_start+0xffff0ffc>
 4023c18:	2021883a 	mov	r16,r4
 4023c1c:	003eff06 	br	402381c <__flash_rwdata_start+0xffff0f48>
 4023c20:	2023883a 	mov	r17,r4
 4023c24:	003ee406 	br	40237b8 <__flash_rwdata_start+0xffff0ee4>
 4023c28:	a8bfe236 	bltu	r21,r2,4023bb4 <__flash_rwdata_start+0xffff12e0>
 4023c2c:	0009883a 	mov	r4,zero
 4023c30:	003f2706 	br	40238d0 <__flash_rwdata_start+0xffff0ffc>
 4023c34:	81002d36 	bltu	r16,r4,4023cec <__divdf3+0x8f4>
 4023c38:	24005626 	beq	r4,r16,4023d94 <__divdf3+0x99c>
 4023c3c:	2829883a 	mov	r20,r5
 4023c40:	003f8006 	br	4023a44 <__flash_rwdata_start+0xffff1170>
 4023c44:	053fffc4 	movi	r20,-1
 4023c48:	003f7f06 	br	4023a48 <__flash_rwdata_start+0xffff1174>
 4023c4c:	200f883a 	mov	r7,r4
 4023c50:	003f3c06 	br	4023944 <__flash_rwdata_start+0xffff1070>
 4023c54:	1011883a 	mov	r8,r2
 4023c58:	003f5506 	br	40239b0 <__flash_rwdata_start+0xffff10dc>
 4023c5c:	e027883a 	mov	r19,fp
 4023c60:	003f7906 	br	4023a48 <__flash_rwdata_start+0xffff1174>
 4023c64:	010007c4 	movi	r4,31
 4023c68:	20c02816 	blt	r4,r3,4023d0c <__divdf3+0x914>
 4023c6c:	00800804 	movi	r2,32
 4023c70:	10c5c83a 	sub	r2,r2,r3
 4023c74:	888a983a 	sll	r5,r17,r2
 4023c78:	a0c8d83a 	srl	r4,r20,r3
 4023c7c:	a084983a 	sll	r2,r20,r2
 4023c80:	88e2d83a 	srl	r17,r17,r3
 4023c84:	2906b03a 	or	r3,r5,r4
 4023c88:	1004c03a 	cmpne	r2,r2,zero
 4023c8c:	1886b03a 	or	r3,r3,r2
 4023c90:	188001cc 	andi	r2,r3,7
 4023c94:	10000726 	beq	r2,zero,4023cb4 <__divdf3+0x8bc>
 4023c98:	188003cc 	andi	r2,r3,15
 4023c9c:	01000104 	movi	r4,4
 4023ca0:	11000426 	beq	r2,r4,4023cb4 <__divdf3+0x8bc>
 4023ca4:	1805883a 	mov	r2,r3
 4023ca8:	10c00104 	addi	r3,r2,4
 4023cac:	1885803a 	cmpltu	r2,r3,r2
 4023cb0:	88a3883a 	add	r17,r17,r2
 4023cb4:	8880202c 	andhi	r2,r17,128
 4023cb8:	10002926 	beq	r2,zero,4023d60 <__divdf3+0x968>
 4023cbc:	9900004c 	andi	r4,r19,1
 4023cc0:	00800044 	movi	r2,1
 4023cc4:	0021883a 	mov	r16,zero
 4023cc8:	002b883a 	mov	r21,zero
 4023ccc:	003e2906 	br	4023574 <__flash_rwdata_start+0xffff0ca0>
 4023cd0:	d9800017 	ldw	r6,0(sp)
 4023cd4:	8c7fff84 	addi	r17,r17,-2
 4023cd8:	a9ab883a 	add	r21,r21,r6
 4023cdc:	a98b803a 	cmpltu	r5,r21,r6
 4023ce0:	2d8b883a 	add	r5,r5,r22
 4023ce4:	2a11883a 	add	r8,r5,r8
 4023ce8:	003ef806 	br	40238cc <__flash_rwdata_start+0xffff0ff8>
 4023cec:	d9800017 	ldw	r6,0(sp)
 4023cf0:	318f883a 	add	r7,r6,r6
 4023cf4:	398b803a 	cmpltu	r5,r7,r6
 4023cf8:	2d8d883a 	add	r6,r5,r22
 4023cfc:	81a1883a 	add	r16,r16,r6
 4023d00:	a17fff84 	addi	r5,r20,-2
 4023d04:	d9c00015 	stw	r7,0(sp)
 4023d08:	003f8806 	br	4023b2c <__flash_rwdata_start+0xffff1258>
 4023d0c:	013ff844 	movi	r4,-31
 4023d10:	2085c83a 	sub	r2,r4,r2
 4023d14:	8888d83a 	srl	r4,r17,r2
 4023d18:	00800804 	movi	r2,32
 4023d1c:	18802126 	beq	r3,r2,4023da4 <__divdf3+0x9ac>
 4023d20:	04001004 	movi	r16,64
 4023d24:	80c7c83a 	sub	r3,r16,r3
 4023d28:	88e0983a 	sll	r16,r17,r3
 4023d2c:	8504b03a 	or	r2,r16,r20
 4023d30:	1004c03a 	cmpne	r2,r2,zero
 4023d34:	2084b03a 	or	r2,r4,r2
 4023d38:	144001cc 	andi	r17,r2,7
 4023d3c:	88000d1e 	bne	r17,zero,4023d74 <__divdf3+0x97c>
 4023d40:	0021883a 	mov	r16,zero
 4023d44:	102ad0fa 	srli	r21,r2,3
 4023d48:	9900004c 	andi	r4,r19,1
 4023d4c:	0005883a 	mov	r2,zero
 4023d50:	ac6ab03a 	or	r21,r21,r17
 4023d54:	003e0706 	br	4023574 <__flash_rwdata_start+0xffff0ca0>
 4023d58:	1007883a 	mov	r3,r2
 4023d5c:	0023883a 	mov	r17,zero
 4023d60:	8820927a 	slli	r16,r17,9
 4023d64:	1805883a 	mov	r2,r3
 4023d68:	8822977a 	slli	r17,r17,29
 4023d6c:	8020d33a 	srli	r16,r16,12
 4023d70:	003ff406 	br	4023d44 <__flash_rwdata_start+0xffff1470>
 4023d74:	10c003cc 	andi	r3,r2,15
 4023d78:	01000104 	movi	r4,4
 4023d7c:	193ff626 	beq	r3,r4,4023d58 <__flash_rwdata_start+0xffff1484>
 4023d80:	0023883a 	mov	r17,zero
 4023d84:	003fc806 	br	4023ca8 <__flash_rwdata_start+0xffff13d4>
 4023d88:	a8bfd136 	bltu	r21,r2,4023cd0 <__flash_rwdata_start+0xffff13fc>
 4023d8c:	2823883a 	mov	r17,r5
 4023d90:	003fa606 	br	4023c2c <__flash_rwdata_start+0xffff1358>
 4023d94:	d9800017 	ldw	r6,0(sp)
 4023d98:	30bfd436 	bltu	r6,r2,4023cec <__flash_rwdata_start+0xffff1418>
 4023d9c:	2829883a 	mov	r20,r5
 4023da0:	003f6406 	br	4023b34 <__flash_rwdata_start+0xffff1260>
 4023da4:	0021883a 	mov	r16,zero
 4023da8:	003fe006 	br	4023d2c <__flash_rwdata_start+0xffff1458>
 4023dac:	00800434 	movhi	r2,16
 4023db0:	8c000234 	orhi	r16,r17,8
 4023db4:	10bfffc4 	addi	r2,r2,-1
 4023db8:	e009883a 	mov	r4,fp
 4023dbc:	80a0703a 	and	r16,r16,r2
 4023dc0:	a02b883a 	mov	r21,r20
 4023dc4:	003e4e06 	br	4023700 <__flash_rwdata_start+0xffff0e2c>

04023dc8 <__gedf2>:
 4023dc8:	2804d53a 	srli	r2,r5,20
 4023dcc:	3806d53a 	srli	r3,r7,20
 4023dd0:	02000434 	movhi	r8,16
 4023dd4:	423fffc4 	addi	r8,r8,-1
 4023dd8:	1081ffcc 	andi	r2,r2,2047
 4023ddc:	0241ffc4 	movi	r9,2047
 4023de0:	2a14703a 	and	r10,r5,r8
 4023de4:	18c1ffcc 	andi	r3,r3,2047
 4023de8:	3a10703a 	and	r8,r7,r8
 4023dec:	280ad7fa 	srli	r5,r5,31
 4023df0:	380ed7fa 	srli	r7,r7,31
 4023df4:	12401d26 	beq	r2,r9,4023e6c <__gedf2+0xa4>
 4023df8:	0241ffc4 	movi	r9,2047
 4023dfc:	1a401226 	beq	r3,r9,4023e48 <__gedf2+0x80>
 4023e00:	1000081e 	bne	r2,zero,4023e24 <__gedf2+0x5c>
 4023e04:	2296b03a 	or	r11,r4,r10
 4023e08:	5813003a 	cmpeq	r9,r11,zero
 4023e0c:	1800091e 	bne	r3,zero,4023e34 <__gedf2+0x6c>
 4023e10:	3218b03a 	or	r12,r6,r8
 4023e14:	6000071e 	bne	r12,zero,4023e34 <__gedf2+0x6c>
 4023e18:	0005883a 	mov	r2,zero
 4023e1c:	5800101e 	bne	r11,zero,4023e60 <__gedf2+0x98>
 4023e20:	f800283a 	ret
 4023e24:	18000c1e 	bne	r3,zero,4023e58 <__gedf2+0x90>
 4023e28:	3212b03a 	or	r9,r6,r8
 4023e2c:	48000c26 	beq	r9,zero,4023e60 <__gedf2+0x98>
 4023e30:	0013883a 	mov	r9,zero
 4023e34:	39c03fcc 	andi	r7,r7,255
 4023e38:	48000826 	beq	r9,zero,4023e5c <__gedf2+0x94>
 4023e3c:	38000926 	beq	r7,zero,4023e64 <__gedf2+0x9c>
 4023e40:	00800044 	movi	r2,1
 4023e44:	f800283a 	ret
 4023e48:	3212b03a 	or	r9,r6,r8
 4023e4c:	483fec26 	beq	r9,zero,4023e00 <__flash_rwdata_start+0xffff152c>
 4023e50:	00bfff84 	movi	r2,-2
 4023e54:	f800283a 	ret
 4023e58:	39c03fcc 	andi	r7,r7,255
 4023e5c:	29c00626 	beq	r5,r7,4023e78 <__gedf2+0xb0>
 4023e60:	283ff726 	beq	r5,zero,4023e40 <__flash_rwdata_start+0xffff156c>
 4023e64:	00bfffc4 	movi	r2,-1
 4023e68:	f800283a 	ret
 4023e6c:	2292b03a 	or	r9,r4,r10
 4023e70:	483fe126 	beq	r9,zero,4023df8 <__flash_rwdata_start+0xffff1524>
 4023e74:	003ff606 	br	4023e50 <__flash_rwdata_start+0xffff157c>
 4023e78:	18bff916 	blt	r3,r2,4023e60 <__flash_rwdata_start+0xffff158c>
 4023e7c:	10c00316 	blt	r2,r3,4023e8c <__gedf2+0xc4>
 4023e80:	42bff736 	bltu	r8,r10,4023e60 <__flash_rwdata_start+0xffff158c>
 4023e84:	52000326 	beq	r10,r8,4023e94 <__gedf2+0xcc>
 4023e88:	5200042e 	bgeu	r10,r8,4023e9c <__gedf2+0xd4>
 4023e8c:	283fec1e 	bne	r5,zero,4023e40 <__flash_rwdata_start+0xffff156c>
 4023e90:	003ff406 	br	4023e64 <__flash_rwdata_start+0xffff1590>
 4023e94:	313ff236 	bltu	r6,r4,4023e60 <__flash_rwdata_start+0xffff158c>
 4023e98:	21bffc36 	bltu	r4,r6,4023e8c <__flash_rwdata_start+0xffff15b8>
 4023e9c:	0005883a 	mov	r2,zero
 4023ea0:	f800283a 	ret

04023ea4 <__ledf2>:
 4023ea4:	2804d53a 	srli	r2,r5,20
 4023ea8:	3810d53a 	srli	r8,r7,20
 4023eac:	00c00434 	movhi	r3,16
 4023eb0:	18ffffc4 	addi	r3,r3,-1
 4023eb4:	1081ffcc 	andi	r2,r2,2047
 4023eb8:	0241ffc4 	movi	r9,2047
 4023ebc:	28d4703a 	and	r10,r5,r3
 4023ec0:	4201ffcc 	andi	r8,r8,2047
 4023ec4:	38c6703a 	and	r3,r7,r3
 4023ec8:	280ad7fa 	srli	r5,r5,31
 4023ecc:	380ed7fa 	srli	r7,r7,31
 4023ed0:	12401f26 	beq	r2,r9,4023f50 <__ledf2+0xac>
 4023ed4:	0241ffc4 	movi	r9,2047
 4023ed8:	42401426 	beq	r8,r9,4023f2c <__ledf2+0x88>
 4023edc:	1000091e 	bne	r2,zero,4023f04 <__ledf2+0x60>
 4023ee0:	2296b03a 	or	r11,r4,r10
 4023ee4:	5813003a 	cmpeq	r9,r11,zero
 4023ee8:	29403fcc 	andi	r5,r5,255
 4023eec:	40000a1e 	bne	r8,zero,4023f18 <__ledf2+0x74>
 4023ef0:	30d8b03a 	or	r12,r6,r3
 4023ef4:	6000081e 	bne	r12,zero,4023f18 <__ledf2+0x74>
 4023ef8:	0005883a 	mov	r2,zero
 4023efc:	5800111e 	bne	r11,zero,4023f44 <__ledf2+0xa0>
 4023f00:	f800283a 	ret
 4023f04:	29403fcc 	andi	r5,r5,255
 4023f08:	40000c1e 	bne	r8,zero,4023f3c <__ledf2+0x98>
 4023f0c:	30d2b03a 	or	r9,r6,r3
 4023f10:	48000c26 	beq	r9,zero,4023f44 <__ledf2+0xa0>
 4023f14:	0013883a 	mov	r9,zero
 4023f18:	39c03fcc 	andi	r7,r7,255
 4023f1c:	48000826 	beq	r9,zero,4023f40 <__ledf2+0x9c>
 4023f20:	38001126 	beq	r7,zero,4023f68 <__ledf2+0xc4>
 4023f24:	00800044 	movi	r2,1
 4023f28:	f800283a 	ret
 4023f2c:	30d2b03a 	or	r9,r6,r3
 4023f30:	483fea26 	beq	r9,zero,4023edc <__flash_rwdata_start+0xffff1608>
 4023f34:	00800084 	movi	r2,2
 4023f38:	f800283a 	ret
 4023f3c:	39c03fcc 	andi	r7,r7,255
 4023f40:	39400726 	beq	r7,r5,4023f60 <__ledf2+0xbc>
 4023f44:	2800081e 	bne	r5,zero,4023f68 <__ledf2+0xc4>
 4023f48:	00800044 	movi	r2,1
 4023f4c:	f800283a 	ret
 4023f50:	2292b03a 	or	r9,r4,r10
 4023f54:	483fdf26 	beq	r9,zero,4023ed4 <__flash_rwdata_start+0xffff1600>
 4023f58:	00800084 	movi	r2,2
 4023f5c:	f800283a 	ret
 4023f60:	4080030e 	bge	r8,r2,4023f70 <__ledf2+0xcc>
 4023f64:	383fef26 	beq	r7,zero,4023f24 <__flash_rwdata_start+0xffff1650>
 4023f68:	00bfffc4 	movi	r2,-1
 4023f6c:	f800283a 	ret
 4023f70:	123feb16 	blt	r2,r8,4023f20 <__flash_rwdata_start+0xffff164c>
 4023f74:	1abff336 	bltu	r3,r10,4023f44 <__flash_rwdata_start+0xffff1670>
 4023f78:	50c00326 	beq	r10,r3,4023f88 <__ledf2+0xe4>
 4023f7c:	50c0042e 	bgeu	r10,r3,4023f90 <__ledf2+0xec>
 4023f80:	283fe81e 	bne	r5,zero,4023f24 <__flash_rwdata_start+0xffff1650>
 4023f84:	003ff806 	br	4023f68 <__flash_rwdata_start+0xffff1694>
 4023f88:	313fee36 	bltu	r6,r4,4023f44 <__flash_rwdata_start+0xffff1670>
 4023f8c:	21bffc36 	bltu	r4,r6,4023f80 <__flash_rwdata_start+0xffff16ac>
 4023f90:	0005883a 	mov	r2,zero
 4023f94:	f800283a 	ret

04023f98 <__muldf3>:
 4023f98:	deffee04 	addi	sp,sp,-72
 4023f9c:	dd000c15 	stw	r20,48(sp)
 4023fa0:	2828d53a 	srli	r20,r5,20
 4023fa4:	ddc00f15 	stw	r23,60(sp)
 4023fa8:	282ed7fa 	srli	r23,r5,31
 4023fac:	dc000815 	stw	r16,32(sp)
 4023fb0:	04000434 	movhi	r16,16
 4023fb4:	dcc00b15 	stw	r19,44(sp)
 4023fb8:	843fffc4 	addi	r16,r16,-1
 4023fbc:	dfc01115 	stw	ra,68(sp)
 4023fc0:	df001015 	stw	fp,64(sp)
 4023fc4:	dd800e15 	stw	r22,56(sp)
 4023fc8:	dd400d15 	stw	r21,52(sp)
 4023fcc:	dc800a15 	stw	r18,40(sp)
 4023fd0:	dc400915 	stw	r17,36(sp)
 4023fd4:	a501ffcc 	andi	r20,r20,2047
 4023fd8:	2c20703a 	and	r16,r5,r16
 4023fdc:	b827883a 	mov	r19,r23
 4023fe0:	ba403fcc 	andi	r9,r23,255
 4023fe4:	a0006026 	beq	r20,zero,4024168 <__muldf3+0x1d0>
 4023fe8:	0081ffc4 	movi	r2,2047
 4023fec:	202d883a 	mov	r22,r4
 4023ff0:	a0803626 	beq	r20,r2,40240cc <__muldf3+0x134>
 4023ff4:	84000434 	orhi	r16,r16,16
 4023ff8:	200ad77a 	srli	r5,r4,29
 4023ffc:	800490fa 	slli	r2,r16,3
 4024000:	202c90fa 	slli	r22,r4,3
 4024004:	a53f0044 	addi	r20,r20,-1023
 4024008:	28a0b03a 	or	r16,r5,r2
 402400c:	002b883a 	mov	r21,zero
 4024010:	000b883a 	mov	r5,zero
 4024014:	3804d53a 	srli	r2,r7,20
 4024018:	3838d7fa 	srli	fp,r7,31
 402401c:	04400434 	movhi	r17,16
 4024020:	8c7fffc4 	addi	r17,r17,-1
 4024024:	1081ffcc 	andi	r2,r2,2047
 4024028:	3025883a 	mov	r18,r6
 402402c:	3c62703a 	and	r17,r7,r17
 4024030:	e2803fcc 	andi	r10,fp,255
 4024034:	10006d26 	beq	r2,zero,40241ec <__muldf3+0x254>
 4024038:	00c1ffc4 	movi	r3,2047
 402403c:	10c06526 	beq	r2,r3,40241d4 <__muldf3+0x23c>
 4024040:	8c400434 	orhi	r17,r17,16
 4024044:	300ed77a 	srli	r7,r6,29
 4024048:	880690fa 	slli	r3,r17,3
 402404c:	302490fa 	slli	r18,r6,3
 4024050:	10bf0044 	addi	r2,r2,-1023
 4024054:	38e2b03a 	or	r17,r7,r3
 4024058:	000f883a 	mov	r7,zero
 402405c:	a087883a 	add	r3,r20,r2
 4024060:	010003c4 	movi	r4,15
 4024064:	3d44b03a 	or	r2,r7,r21
 4024068:	e5ccf03a 	xor	r6,fp,r23
 402406c:	1a000044 	addi	r8,r3,1
 4024070:	20809b36 	bltu	r4,r2,40242e0 <__muldf3+0x348>
 4024074:	100490ba 	slli	r2,r2,2
 4024078:	010100b4 	movhi	r4,1026
 402407c:	21102304 	addi	r4,r4,16524
 4024080:	1105883a 	add	r2,r2,r4
 4024084:	10800017 	ldw	r2,0(r2)
 4024088:	1000683a 	jmp	r2
 402408c:	040242e0 	cmpeqi	r16,zero,2315
 4024090:	040240ec 	andhi	r16,zero,2307
 4024094:	040240ec 	andhi	r16,zero,2307
 4024098:	040240e8 	cmpgeui	r16,zero,2307
 402409c:	040242bc 	xorhi	r16,zero,2314
 40240a0:	040242bc 	xorhi	r16,zero,2314
 40240a4:	040242a4 	muli	r16,zero,2314
 40240a8:	040240e8 	cmpgeui	r16,zero,2307
 40240ac:	040242bc 	xorhi	r16,zero,2314
 40240b0:	040242a4 	muli	r16,zero,2314
 40240b4:	040242bc 	xorhi	r16,zero,2314
 40240b8:	040240e8 	cmpgeui	r16,zero,2307
 40240bc:	040242cc 	andi	r16,zero,2315
 40240c0:	040242cc 	andi	r16,zero,2315
 40240c4:	040242cc 	andi	r16,zero,2315
 40240c8:	0402462c 	andhi	r16,zero,2328
 40240cc:	2404b03a 	or	r2,r4,r16
 40240d0:	1000711e 	bne	r2,zero,4024298 <__muldf3+0x300>
 40240d4:	05400204 	movi	r21,8
 40240d8:	0021883a 	mov	r16,zero
 40240dc:	002d883a 	mov	r22,zero
 40240e0:	01400084 	movi	r5,2
 40240e4:	003fcb06 	br	4024014 <__flash_rwdata_start+0xffff1740>
 40240e8:	500d883a 	mov	r6,r10
 40240ec:	00800084 	movi	r2,2
 40240f0:	38805926 	beq	r7,r2,4024258 <__muldf3+0x2c0>
 40240f4:	008000c4 	movi	r2,3
 40240f8:	3881bb26 	beq	r7,r2,40247e8 <__muldf3+0x850>
 40240fc:	00800044 	movi	r2,1
 4024100:	3881961e 	bne	r7,r2,402475c <__muldf3+0x7c4>
 4024104:	3027883a 	mov	r19,r6
 4024108:	0005883a 	mov	r2,zero
 402410c:	0021883a 	mov	r16,zero
 4024110:	002d883a 	mov	r22,zero
 4024114:	1004953a 	slli	r2,r2,20
 4024118:	98c03fcc 	andi	r3,r19,255
 402411c:	04400434 	movhi	r17,16
 4024120:	8c7fffc4 	addi	r17,r17,-1
 4024124:	180697fa 	slli	r3,r3,31
 4024128:	8460703a 	and	r16,r16,r17
 402412c:	80a0b03a 	or	r16,r16,r2
 4024130:	80c6b03a 	or	r3,r16,r3
 4024134:	b005883a 	mov	r2,r22
 4024138:	dfc01117 	ldw	ra,68(sp)
 402413c:	df001017 	ldw	fp,64(sp)
 4024140:	ddc00f17 	ldw	r23,60(sp)
 4024144:	dd800e17 	ldw	r22,56(sp)
 4024148:	dd400d17 	ldw	r21,52(sp)
 402414c:	dd000c17 	ldw	r20,48(sp)
 4024150:	dcc00b17 	ldw	r19,44(sp)
 4024154:	dc800a17 	ldw	r18,40(sp)
 4024158:	dc400917 	ldw	r17,36(sp)
 402415c:	dc000817 	ldw	r16,32(sp)
 4024160:	dec01204 	addi	sp,sp,72
 4024164:	f800283a 	ret
 4024168:	2404b03a 	or	r2,r4,r16
 402416c:	202b883a 	mov	r21,r4
 4024170:	10004426 	beq	r2,zero,4024284 <__muldf3+0x2ec>
 4024174:	80015126 	beq	r16,zero,40246bc <__muldf3+0x724>
 4024178:	8009883a 	mov	r4,r16
 402417c:	d9800715 	stw	r6,28(sp)
 4024180:	d9c00215 	stw	r7,8(sp)
 4024184:	da400415 	stw	r9,16(sp)
 4024188:	40255140 	call	4025514 <__clzsi2>
 402418c:	d9800717 	ldw	r6,28(sp)
 4024190:	d9c00217 	ldw	r7,8(sp)
 4024194:	da400417 	ldw	r9,16(sp)
 4024198:	113ffd44 	addi	r4,r2,-11
 402419c:	00c00704 	movi	r3,28
 40241a0:	19014216 	blt	r3,r4,40246ac <__muldf3+0x714>
 40241a4:	00c00744 	movi	r3,29
 40241a8:	15bffe04 	addi	r22,r2,-8
 40241ac:	1907c83a 	sub	r3,r3,r4
 40241b0:	85a0983a 	sll	r16,r16,r22
 40241b4:	a8c6d83a 	srl	r3,r21,r3
 40241b8:	adac983a 	sll	r22,r21,r22
 40241bc:	1c20b03a 	or	r16,r3,r16
 40241c0:	1080fcc4 	addi	r2,r2,1011
 40241c4:	00a9c83a 	sub	r20,zero,r2
 40241c8:	002b883a 	mov	r21,zero
 40241cc:	000b883a 	mov	r5,zero
 40241d0:	003f9006 	br	4024014 <__flash_rwdata_start+0xffff1740>
 40241d4:	3446b03a 	or	r3,r6,r17
 40241d8:	1800281e 	bne	r3,zero,402427c <__muldf3+0x2e4>
 40241dc:	0023883a 	mov	r17,zero
 40241e0:	0025883a 	mov	r18,zero
 40241e4:	01c00084 	movi	r7,2
 40241e8:	003f9c06 	br	402405c <__flash_rwdata_start+0xffff1788>
 40241ec:	3446b03a 	or	r3,r6,r17
 40241f0:	18001e26 	beq	r3,zero,402426c <__muldf3+0x2d4>
 40241f4:	88012126 	beq	r17,zero,402467c <__muldf3+0x6e4>
 40241f8:	8809883a 	mov	r4,r17
 40241fc:	d9400215 	stw	r5,8(sp)
 4024200:	d9800715 	stw	r6,28(sp)
 4024204:	da400415 	stw	r9,16(sp)
 4024208:	da800315 	stw	r10,12(sp)
 402420c:	40255140 	call	4025514 <__clzsi2>
 4024210:	d9400217 	ldw	r5,8(sp)
 4024214:	d9800717 	ldw	r6,28(sp)
 4024218:	da400417 	ldw	r9,16(sp)
 402421c:	da800317 	ldw	r10,12(sp)
 4024220:	113ffd44 	addi	r4,r2,-11
 4024224:	00c00704 	movi	r3,28
 4024228:	19011016 	blt	r3,r4,402466c <__muldf3+0x6d4>
 402422c:	00c00744 	movi	r3,29
 4024230:	14bffe04 	addi	r18,r2,-8
 4024234:	1907c83a 	sub	r3,r3,r4
 4024238:	8ca2983a 	sll	r17,r17,r18
 402423c:	30c6d83a 	srl	r3,r6,r3
 4024240:	34a4983a 	sll	r18,r6,r18
 4024244:	1c62b03a 	or	r17,r3,r17
 4024248:	1080fcc4 	addi	r2,r2,1011
 402424c:	0085c83a 	sub	r2,zero,r2
 4024250:	000f883a 	mov	r7,zero
 4024254:	003f8106 	br	402405c <__flash_rwdata_start+0xffff1788>
 4024258:	3027883a 	mov	r19,r6
 402425c:	0081ffc4 	movi	r2,2047
 4024260:	0021883a 	mov	r16,zero
 4024264:	002d883a 	mov	r22,zero
 4024268:	003faa06 	br	4024114 <__flash_rwdata_start+0xffff1840>
 402426c:	0023883a 	mov	r17,zero
 4024270:	0025883a 	mov	r18,zero
 4024274:	01c00044 	movi	r7,1
 4024278:	003f7806 	br	402405c <__flash_rwdata_start+0xffff1788>
 402427c:	01c000c4 	movi	r7,3
 4024280:	003f7606 	br	402405c <__flash_rwdata_start+0xffff1788>
 4024284:	05400104 	movi	r21,4
 4024288:	0021883a 	mov	r16,zero
 402428c:	002d883a 	mov	r22,zero
 4024290:	01400044 	movi	r5,1
 4024294:	003f5f06 	br	4024014 <__flash_rwdata_start+0xffff1740>
 4024298:	05400304 	movi	r21,12
 402429c:	014000c4 	movi	r5,3
 40242a0:	003f5c06 	br	4024014 <__flash_rwdata_start+0xffff1740>
 40242a4:	04000434 	movhi	r16,16
 40242a8:	0027883a 	mov	r19,zero
 40242ac:	843fffc4 	addi	r16,r16,-1
 40242b0:	05bfffc4 	movi	r22,-1
 40242b4:	0081ffc4 	movi	r2,2047
 40242b8:	003f9606 	br	4024114 <__flash_rwdata_start+0xffff1840>
 40242bc:	8023883a 	mov	r17,r16
 40242c0:	b025883a 	mov	r18,r22
 40242c4:	280f883a 	mov	r7,r5
 40242c8:	003f8806 	br	40240ec <__flash_rwdata_start+0xffff1818>
 40242cc:	8023883a 	mov	r17,r16
 40242d0:	b025883a 	mov	r18,r22
 40242d4:	480d883a 	mov	r6,r9
 40242d8:	280f883a 	mov	r7,r5
 40242dc:	003f8306 	br	40240ec <__flash_rwdata_start+0xffff1818>
 40242e0:	b026d43a 	srli	r19,r22,16
 40242e4:	902ed43a 	srli	r23,r18,16
 40242e8:	b5bfffcc 	andi	r22,r22,65535
 40242ec:	94bfffcc 	andi	r18,r18,65535
 40242f0:	b00b883a 	mov	r5,r22
 40242f4:	9009883a 	mov	r4,r18
 40242f8:	d8c00515 	stw	r3,20(sp)
 40242fc:	d9800715 	stw	r6,28(sp)
 4024300:	da000615 	stw	r8,24(sp)
 4024304:	402572c0 	call	402572c <__mulsi3>
 4024308:	980b883a 	mov	r5,r19
 402430c:	9009883a 	mov	r4,r18
 4024310:	1029883a 	mov	r20,r2
 4024314:	402572c0 	call	402572c <__mulsi3>
 4024318:	b80b883a 	mov	r5,r23
 402431c:	9809883a 	mov	r4,r19
 4024320:	102b883a 	mov	r21,r2
 4024324:	402572c0 	call	402572c <__mulsi3>
 4024328:	b809883a 	mov	r4,r23
 402432c:	b00b883a 	mov	r5,r22
 4024330:	1039883a 	mov	fp,r2
 4024334:	402572c0 	call	402572c <__mulsi3>
 4024338:	a008d43a 	srli	r4,r20,16
 402433c:	1545883a 	add	r2,r2,r21
 4024340:	d8c00517 	ldw	r3,20(sp)
 4024344:	2085883a 	add	r2,r4,r2
 4024348:	d9800717 	ldw	r6,28(sp)
 402434c:	da000617 	ldw	r8,24(sp)
 4024350:	1540022e 	bgeu	r2,r21,402435c <__muldf3+0x3c4>
 4024354:	01000074 	movhi	r4,1
 4024358:	e139883a 	add	fp,fp,r4
 402435c:	100e943a 	slli	r7,r2,16
 4024360:	1004d43a 	srli	r2,r2,16
 4024364:	882ad43a 	srli	r21,r17,16
 4024368:	a53fffcc 	andi	r20,r20,65535
 402436c:	8c7fffcc 	andi	r17,r17,65535
 4024370:	3d29883a 	add	r20,r7,r20
 4024374:	b00b883a 	mov	r5,r22
 4024378:	8809883a 	mov	r4,r17
 402437c:	d8c00515 	stw	r3,20(sp)
 4024380:	d9800715 	stw	r6,28(sp)
 4024384:	da000615 	stw	r8,24(sp)
 4024388:	dd000115 	stw	r20,4(sp)
 402438c:	d8800015 	stw	r2,0(sp)
 4024390:	402572c0 	call	402572c <__mulsi3>
 4024394:	980b883a 	mov	r5,r19
 4024398:	8809883a 	mov	r4,r17
 402439c:	d8800215 	stw	r2,8(sp)
 40243a0:	402572c0 	call	402572c <__mulsi3>
 40243a4:	9809883a 	mov	r4,r19
 40243a8:	a80b883a 	mov	r5,r21
 40243ac:	1029883a 	mov	r20,r2
 40243b0:	402572c0 	call	402572c <__mulsi3>
 40243b4:	b00b883a 	mov	r5,r22
 40243b8:	a809883a 	mov	r4,r21
 40243bc:	d8800415 	stw	r2,16(sp)
 40243c0:	402572c0 	call	402572c <__mulsi3>
 40243c4:	d9c00217 	ldw	r7,8(sp)
 40243c8:	1505883a 	add	r2,r2,r20
 40243cc:	d8c00517 	ldw	r3,20(sp)
 40243d0:	3826d43a 	srli	r19,r7,16
 40243d4:	d9800717 	ldw	r6,28(sp)
 40243d8:	da000617 	ldw	r8,24(sp)
 40243dc:	9885883a 	add	r2,r19,r2
 40243e0:	da400417 	ldw	r9,16(sp)
 40243e4:	1500022e 	bgeu	r2,r20,40243f0 <__muldf3+0x458>
 40243e8:	01000074 	movhi	r4,1
 40243ec:	4913883a 	add	r9,r9,r4
 40243f0:	1028d43a 	srli	r20,r2,16
 40243f4:	1004943a 	slli	r2,r2,16
 40243f8:	802cd43a 	srli	r22,r16,16
 40243fc:	843fffcc 	andi	r16,r16,65535
 4024400:	3cffffcc 	andi	r19,r7,65535
 4024404:	9009883a 	mov	r4,r18
 4024408:	800b883a 	mov	r5,r16
 402440c:	a269883a 	add	r20,r20,r9
 4024410:	d8c00515 	stw	r3,20(sp)
 4024414:	d9800715 	stw	r6,28(sp)
 4024418:	da000615 	stw	r8,24(sp)
 402441c:	14e7883a 	add	r19,r2,r19
 4024420:	402572c0 	call	402572c <__mulsi3>
 4024424:	9009883a 	mov	r4,r18
 4024428:	b00b883a 	mov	r5,r22
 402442c:	d8800315 	stw	r2,12(sp)
 4024430:	402572c0 	call	402572c <__mulsi3>
 4024434:	b809883a 	mov	r4,r23
 4024438:	b00b883a 	mov	r5,r22
 402443c:	d8800215 	stw	r2,8(sp)
 4024440:	402572c0 	call	402572c <__mulsi3>
 4024444:	b80b883a 	mov	r5,r23
 4024448:	8009883a 	mov	r4,r16
 402444c:	d8800415 	stw	r2,16(sp)
 4024450:	402572c0 	call	402572c <__mulsi3>
 4024454:	da800317 	ldw	r10,12(sp)
 4024458:	d9c00217 	ldw	r7,8(sp)
 402445c:	d9000017 	ldw	r4,0(sp)
 4024460:	502ed43a 	srli	r23,r10,16
 4024464:	11c5883a 	add	r2,r2,r7
 4024468:	24e5883a 	add	r18,r4,r19
 402446c:	b885883a 	add	r2,r23,r2
 4024470:	d8c00517 	ldw	r3,20(sp)
 4024474:	d9800717 	ldw	r6,28(sp)
 4024478:	da000617 	ldw	r8,24(sp)
 402447c:	da400417 	ldw	r9,16(sp)
 4024480:	11c0022e 	bgeu	r2,r7,402448c <__muldf3+0x4f4>
 4024484:	01000074 	movhi	r4,1
 4024488:	4913883a 	add	r9,r9,r4
 402448c:	100ed43a 	srli	r7,r2,16
 4024490:	1004943a 	slli	r2,r2,16
 4024494:	55ffffcc 	andi	r23,r10,65535
 4024498:	3a53883a 	add	r9,r7,r9
 402449c:	8809883a 	mov	r4,r17
 40244a0:	800b883a 	mov	r5,r16
 40244a4:	d8c00515 	stw	r3,20(sp)
 40244a8:	d9800715 	stw	r6,28(sp)
 40244ac:	da000615 	stw	r8,24(sp)
 40244b0:	da400415 	stw	r9,16(sp)
 40244b4:	15ef883a 	add	r23,r2,r23
 40244b8:	402572c0 	call	402572c <__mulsi3>
 40244bc:	8809883a 	mov	r4,r17
 40244c0:	b00b883a 	mov	r5,r22
 40244c4:	d8800215 	stw	r2,8(sp)
 40244c8:	402572c0 	call	402572c <__mulsi3>
 40244cc:	b00b883a 	mov	r5,r22
 40244d0:	a809883a 	mov	r4,r21
 40244d4:	d8800315 	stw	r2,12(sp)
 40244d8:	402572c0 	call	402572c <__mulsi3>
 40244dc:	8009883a 	mov	r4,r16
 40244e0:	a80b883a 	mov	r5,r21
 40244e4:	1023883a 	mov	r17,r2
 40244e8:	402572c0 	call	402572c <__mulsi3>
 40244ec:	d9c00217 	ldw	r7,8(sp)
 40244f0:	da800317 	ldw	r10,12(sp)
 40244f4:	d8c00517 	ldw	r3,20(sp)
 40244f8:	3808d43a 	srli	r4,r7,16
 40244fc:	1285883a 	add	r2,r2,r10
 4024500:	d9800717 	ldw	r6,28(sp)
 4024504:	2085883a 	add	r2,r4,r2
 4024508:	da000617 	ldw	r8,24(sp)
 402450c:	da400417 	ldw	r9,16(sp)
 4024510:	1280022e 	bgeu	r2,r10,402451c <__muldf3+0x584>
 4024514:	01000074 	movhi	r4,1
 4024518:	8923883a 	add	r17,r17,r4
 402451c:	1008943a 	slli	r4,r2,16
 4024520:	39ffffcc 	andi	r7,r7,65535
 4024524:	e4b9883a 	add	fp,fp,r18
 4024528:	21cf883a 	add	r7,r4,r7
 402452c:	e4e7803a 	cmpltu	r19,fp,r19
 4024530:	3d0f883a 	add	r7,r7,r20
 4024534:	bf39883a 	add	fp,r23,fp
 4024538:	99c9883a 	add	r4,r19,r7
 402453c:	e5ef803a 	cmpltu	r23,fp,r23
 4024540:	490b883a 	add	r5,r9,r4
 4024544:	1004d43a 	srli	r2,r2,16
 4024548:	b965883a 	add	r18,r23,r5
 402454c:	24c9803a 	cmpltu	r4,r4,r19
 4024550:	3d29803a 	cmpltu	r20,r7,r20
 4024554:	a128b03a 	or	r20,r20,r4
 4024558:	95ef803a 	cmpltu	r23,r18,r23
 402455c:	2a53803a 	cmpltu	r9,r5,r9
 4024560:	a0a9883a 	add	r20,r20,r2
 4024564:	4deeb03a 	or	r23,r9,r23
 4024568:	a5ef883a 	add	r23,r20,r23
 402456c:	bc63883a 	add	r17,r23,r17
 4024570:	e004927a 	slli	r2,fp,9
 4024574:	d9000117 	ldw	r4,4(sp)
 4024578:	882e927a 	slli	r23,r17,9
 402457c:	9022d5fa 	srli	r17,r18,23
 4024580:	e038d5fa 	srli	fp,fp,23
 4024584:	1104b03a 	or	r2,r2,r4
 4024588:	9024927a 	slli	r18,r18,9
 402458c:	1004c03a 	cmpne	r2,r2,zero
 4024590:	bc62b03a 	or	r17,r23,r17
 4024594:	1738b03a 	or	fp,r2,fp
 4024598:	8880402c 	andhi	r2,r17,256
 402459c:	e4a4b03a 	or	r18,fp,r18
 40245a0:	10000726 	beq	r2,zero,40245c0 <__muldf3+0x628>
 40245a4:	9006d07a 	srli	r3,r18,1
 40245a8:	880497fa 	slli	r2,r17,31
 40245ac:	9480004c 	andi	r18,r18,1
 40245b0:	8822d07a 	srli	r17,r17,1
 40245b4:	1ca4b03a 	or	r18,r3,r18
 40245b8:	14a4b03a 	or	r18,r2,r18
 40245bc:	4007883a 	mov	r3,r8
 40245c0:	1880ffc4 	addi	r2,r3,1023
 40245c4:	0080460e 	bge	zero,r2,40246e0 <__muldf3+0x748>
 40245c8:	910001cc 	andi	r4,r18,7
 40245cc:	20000726 	beq	r4,zero,40245ec <__muldf3+0x654>
 40245d0:	910003cc 	andi	r4,r18,15
 40245d4:	01400104 	movi	r5,4
 40245d8:	21400426 	beq	r4,r5,40245ec <__muldf3+0x654>
 40245dc:	9149883a 	add	r4,r18,r5
 40245e0:	24a5803a 	cmpltu	r18,r4,r18
 40245e4:	8ca3883a 	add	r17,r17,r18
 40245e8:	2025883a 	mov	r18,r4
 40245ec:	8900402c 	andhi	r4,r17,256
 40245f0:	20000426 	beq	r4,zero,4024604 <__muldf3+0x66c>
 40245f4:	18810004 	addi	r2,r3,1024
 40245f8:	00ffc034 	movhi	r3,65280
 40245fc:	18ffffc4 	addi	r3,r3,-1
 4024600:	88e2703a 	and	r17,r17,r3
 4024604:	00c1ff84 	movi	r3,2046
 4024608:	18bf1316 	blt	r3,r2,4024258 <__flash_rwdata_start+0xffff1984>
 402460c:	882c977a 	slli	r22,r17,29
 4024610:	9024d0fa 	srli	r18,r18,3
 4024614:	8822927a 	slli	r17,r17,9
 4024618:	1081ffcc 	andi	r2,r2,2047
 402461c:	b4acb03a 	or	r22,r22,r18
 4024620:	8820d33a 	srli	r16,r17,12
 4024624:	3027883a 	mov	r19,r6
 4024628:	003eba06 	br	4024114 <__flash_rwdata_start+0xffff1840>
 402462c:	8080022c 	andhi	r2,r16,8
 4024630:	10000926 	beq	r2,zero,4024658 <__muldf3+0x6c0>
 4024634:	8880022c 	andhi	r2,r17,8
 4024638:	1000071e 	bne	r2,zero,4024658 <__muldf3+0x6c0>
 402463c:	00800434 	movhi	r2,16
 4024640:	8c000234 	orhi	r16,r17,8
 4024644:	10bfffc4 	addi	r2,r2,-1
 4024648:	e027883a 	mov	r19,fp
 402464c:	80a0703a 	and	r16,r16,r2
 4024650:	902d883a 	mov	r22,r18
 4024654:	003f1706 	br	40242b4 <__flash_rwdata_start+0xffff19e0>
 4024658:	00800434 	movhi	r2,16
 402465c:	84000234 	orhi	r16,r16,8
 4024660:	10bfffc4 	addi	r2,r2,-1
 4024664:	80a0703a 	and	r16,r16,r2
 4024668:	003f1206 	br	40242b4 <__flash_rwdata_start+0xffff19e0>
 402466c:	147ff604 	addi	r17,r2,-40
 4024670:	3462983a 	sll	r17,r6,r17
 4024674:	0025883a 	mov	r18,zero
 4024678:	003ef306 	br	4024248 <__flash_rwdata_start+0xffff1974>
 402467c:	3009883a 	mov	r4,r6
 4024680:	d9400215 	stw	r5,8(sp)
 4024684:	d9800715 	stw	r6,28(sp)
 4024688:	da400415 	stw	r9,16(sp)
 402468c:	da800315 	stw	r10,12(sp)
 4024690:	40255140 	call	4025514 <__clzsi2>
 4024694:	10800804 	addi	r2,r2,32
 4024698:	da800317 	ldw	r10,12(sp)
 402469c:	da400417 	ldw	r9,16(sp)
 40246a0:	d9800717 	ldw	r6,28(sp)
 40246a4:	d9400217 	ldw	r5,8(sp)
 40246a8:	003edd06 	br	4024220 <__flash_rwdata_start+0xffff194c>
 40246ac:	143ff604 	addi	r16,r2,-40
 40246b0:	ac20983a 	sll	r16,r21,r16
 40246b4:	002d883a 	mov	r22,zero
 40246b8:	003ec106 	br	40241c0 <__flash_rwdata_start+0xffff18ec>
 40246bc:	d9800715 	stw	r6,28(sp)
 40246c0:	d9c00215 	stw	r7,8(sp)
 40246c4:	da400415 	stw	r9,16(sp)
 40246c8:	40255140 	call	4025514 <__clzsi2>
 40246cc:	10800804 	addi	r2,r2,32
 40246d0:	da400417 	ldw	r9,16(sp)
 40246d4:	d9c00217 	ldw	r7,8(sp)
 40246d8:	d9800717 	ldw	r6,28(sp)
 40246dc:	003eae06 	br	4024198 <__flash_rwdata_start+0xffff18c4>
 40246e0:	00c00044 	movi	r3,1
 40246e4:	1887c83a 	sub	r3,r3,r2
 40246e8:	01000e04 	movi	r4,56
 40246ec:	20fe8516 	blt	r4,r3,4024104 <__flash_rwdata_start+0xffff1830>
 40246f0:	010007c4 	movi	r4,31
 40246f4:	20c01b16 	blt	r4,r3,4024764 <__muldf3+0x7cc>
 40246f8:	00800804 	movi	r2,32
 40246fc:	10c5c83a 	sub	r2,r2,r3
 4024700:	888a983a 	sll	r5,r17,r2
 4024704:	90c8d83a 	srl	r4,r18,r3
 4024708:	9084983a 	sll	r2,r18,r2
 402470c:	88e2d83a 	srl	r17,r17,r3
 4024710:	2906b03a 	or	r3,r5,r4
 4024714:	1004c03a 	cmpne	r2,r2,zero
 4024718:	1886b03a 	or	r3,r3,r2
 402471c:	188001cc 	andi	r2,r3,7
 4024720:	10000726 	beq	r2,zero,4024740 <__muldf3+0x7a8>
 4024724:	188003cc 	andi	r2,r3,15
 4024728:	01000104 	movi	r4,4
 402472c:	11000426 	beq	r2,r4,4024740 <__muldf3+0x7a8>
 4024730:	1805883a 	mov	r2,r3
 4024734:	10c00104 	addi	r3,r2,4
 4024738:	1885803a 	cmpltu	r2,r3,r2
 402473c:	88a3883a 	add	r17,r17,r2
 4024740:	8880202c 	andhi	r2,r17,128
 4024744:	10001c26 	beq	r2,zero,40247b8 <__muldf3+0x820>
 4024748:	3027883a 	mov	r19,r6
 402474c:	00800044 	movi	r2,1
 4024750:	0021883a 	mov	r16,zero
 4024754:	002d883a 	mov	r22,zero
 4024758:	003e6e06 	br	4024114 <__flash_rwdata_start+0xffff1840>
 402475c:	4007883a 	mov	r3,r8
 4024760:	003f9706 	br	40245c0 <__flash_rwdata_start+0xffff1cec>
 4024764:	017ff844 	movi	r5,-31
 4024768:	2885c83a 	sub	r2,r5,r2
 402476c:	888ad83a 	srl	r5,r17,r2
 4024770:	00800804 	movi	r2,32
 4024774:	18801a26 	beq	r3,r2,40247e0 <__muldf3+0x848>
 4024778:	01001004 	movi	r4,64
 402477c:	20c7c83a 	sub	r3,r4,r3
 4024780:	88e2983a 	sll	r17,r17,r3
 4024784:	8ca4b03a 	or	r18,r17,r18
 4024788:	9004c03a 	cmpne	r2,r18,zero
 402478c:	2884b03a 	or	r2,r5,r2
 4024790:	144001cc 	andi	r17,r2,7
 4024794:	88000d1e 	bne	r17,zero,40247cc <__muldf3+0x834>
 4024798:	0021883a 	mov	r16,zero
 402479c:	102cd0fa 	srli	r22,r2,3
 40247a0:	3027883a 	mov	r19,r6
 40247a4:	0005883a 	mov	r2,zero
 40247a8:	b46cb03a 	or	r22,r22,r17
 40247ac:	003e5906 	br	4024114 <__flash_rwdata_start+0xffff1840>
 40247b0:	1007883a 	mov	r3,r2
 40247b4:	0023883a 	mov	r17,zero
 40247b8:	8820927a 	slli	r16,r17,9
 40247bc:	1805883a 	mov	r2,r3
 40247c0:	8822977a 	slli	r17,r17,29
 40247c4:	8020d33a 	srli	r16,r16,12
 40247c8:	003ff406 	br	402479c <__flash_rwdata_start+0xffff1ec8>
 40247cc:	10c003cc 	andi	r3,r2,15
 40247d0:	01000104 	movi	r4,4
 40247d4:	193ff626 	beq	r3,r4,40247b0 <__flash_rwdata_start+0xffff1edc>
 40247d8:	0023883a 	mov	r17,zero
 40247dc:	003fd506 	br	4024734 <__flash_rwdata_start+0xffff1e60>
 40247e0:	0023883a 	mov	r17,zero
 40247e4:	003fe706 	br	4024784 <__flash_rwdata_start+0xffff1eb0>
 40247e8:	00800434 	movhi	r2,16
 40247ec:	8c000234 	orhi	r16,r17,8
 40247f0:	10bfffc4 	addi	r2,r2,-1
 40247f4:	3027883a 	mov	r19,r6
 40247f8:	80a0703a 	and	r16,r16,r2
 40247fc:	902d883a 	mov	r22,r18
 4024800:	003eac06 	br	40242b4 <__flash_rwdata_start+0xffff19e0>

04024804 <__subdf3>:
 4024804:	02000434 	movhi	r8,16
 4024808:	423fffc4 	addi	r8,r8,-1
 402480c:	defffb04 	addi	sp,sp,-20
 4024810:	2a14703a 	and	r10,r5,r8
 4024814:	3812d53a 	srli	r9,r7,20
 4024818:	3a10703a 	and	r8,r7,r8
 402481c:	2006d77a 	srli	r3,r4,29
 4024820:	3004d77a 	srli	r2,r6,29
 4024824:	dc000015 	stw	r16,0(sp)
 4024828:	501490fa 	slli	r10,r10,3
 402482c:	2820d53a 	srli	r16,r5,20
 4024830:	401090fa 	slli	r8,r8,3
 4024834:	dc800215 	stw	r18,8(sp)
 4024838:	dc400115 	stw	r17,4(sp)
 402483c:	dfc00415 	stw	ra,16(sp)
 4024840:	202290fa 	slli	r17,r4,3
 4024844:	dcc00315 	stw	r19,12(sp)
 4024848:	4a41ffcc 	andi	r9,r9,2047
 402484c:	0101ffc4 	movi	r4,2047
 4024850:	2824d7fa 	srli	r18,r5,31
 4024854:	8401ffcc 	andi	r16,r16,2047
 4024858:	50c6b03a 	or	r3,r10,r3
 402485c:	380ed7fa 	srli	r7,r7,31
 4024860:	408ab03a 	or	r5,r8,r2
 4024864:	300c90fa 	slli	r6,r6,3
 4024868:	49009626 	beq	r9,r4,4024ac4 <__subdf3+0x2c0>
 402486c:	39c0005c 	xori	r7,r7,1
 4024870:	8245c83a 	sub	r2,r16,r9
 4024874:	3c807426 	beq	r7,r18,4024a48 <__subdf3+0x244>
 4024878:	0080af0e 	bge	zero,r2,4024b38 <__subdf3+0x334>
 402487c:	48002a1e 	bne	r9,zero,4024928 <__subdf3+0x124>
 4024880:	2988b03a 	or	r4,r5,r6
 4024884:	20009a1e 	bne	r4,zero,4024af0 <__subdf3+0x2ec>
 4024888:	888001cc 	andi	r2,r17,7
 402488c:	10000726 	beq	r2,zero,40248ac <__subdf3+0xa8>
 4024890:	888003cc 	andi	r2,r17,15
 4024894:	01000104 	movi	r4,4
 4024898:	11000426 	beq	r2,r4,40248ac <__subdf3+0xa8>
 402489c:	890b883a 	add	r5,r17,r4
 40248a0:	2c63803a 	cmpltu	r17,r5,r17
 40248a4:	1c47883a 	add	r3,r3,r17
 40248a8:	2823883a 	mov	r17,r5
 40248ac:	1880202c 	andhi	r2,r3,128
 40248b0:	10005926 	beq	r2,zero,4024a18 <__subdf3+0x214>
 40248b4:	84000044 	addi	r16,r16,1
 40248b8:	0081ffc4 	movi	r2,2047
 40248bc:	8080be26 	beq	r16,r2,4024bb8 <__subdf3+0x3b4>
 40248c0:	017fe034 	movhi	r5,65408
 40248c4:	297fffc4 	addi	r5,r5,-1
 40248c8:	1946703a 	and	r3,r3,r5
 40248cc:	1804977a 	slli	r2,r3,29
 40248d0:	1806927a 	slli	r3,r3,9
 40248d4:	8822d0fa 	srli	r17,r17,3
 40248d8:	8401ffcc 	andi	r16,r16,2047
 40248dc:	180ad33a 	srli	r5,r3,12
 40248e0:	9100004c 	andi	r4,r18,1
 40248e4:	1444b03a 	or	r2,r2,r17
 40248e8:	80c1ffcc 	andi	r3,r16,2047
 40248ec:	1820953a 	slli	r16,r3,20
 40248f0:	20c03fcc 	andi	r3,r4,255
 40248f4:	180897fa 	slli	r4,r3,31
 40248f8:	00c00434 	movhi	r3,16
 40248fc:	18ffffc4 	addi	r3,r3,-1
 4024900:	28c6703a 	and	r3,r5,r3
 4024904:	1c06b03a 	or	r3,r3,r16
 4024908:	1906b03a 	or	r3,r3,r4
 402490c:	dfc00417 	ldw	ra,16(sp)
 4024910:	dcc00317 	ldw	r19,12(sp)
 4024914:	dc800217 	ldw	r18,8(sp)
 4024918:	dc400117 	ldw	r17,4(sp)
 402491c:	dc000017 	ldw	r16,0(sp)
 4024920:	dec00504 	addi	sp,sp,20
 4024924:	f800283a 	ret
 4024928:	0101ffc4 	movi	r4,2047
 402492c:	813fd626 	beq	r16,r4,4024888 <__flash_rwdata_start+0xffff1fb4>
 4024930:	29402034 	orhi	r5,r5,128
 4024934:	01000e04 	movi	r4,56
 4024938:	2080a316 	blt	r4,r2,4024bc8 <__subdf3+0x3c4>
 402493c:	010007c4 	movi	r4,31
 4024940:	2080c616 	blt	r4,r2,4024c5c <__subdf3+0x458>
 4024944:	01000804 	movi	r4,32
 4024948:	2089c83a 	sub	r4,r4,r2
 402494c:	2910983a 	sll	r8,r5,r4
 4024950:	308ed83a 	srl	r7,r6,r2
 4024954:	3108983a 	sll	r4,r6,r4
 4024958:	2884d83a 	srl	r2,r5,r2
 402495c:	41ccb03a 	or	r6,r8,r7
 4024960:	2008c03a 	cmpne	r4,r4,zero
 4024964:	310cb03a 	or	r6,r6,r4
 4024968:	898dc83a 	sub	r6,r17,r6
 402496c:	89a3803a 	cmpltu	r17,r17,r6
 4024970:	1887c83a 	sub	r3,r3,r2
 4024974:	1c47c83a 	sub	r3,r3,r17
 4024978:	3023883a 	mov	r17,r6
 402497c:	1880202c 	andhi	r2,r3,128
 4024980:	10002326 	beq	r2,zero,4024a10 <__subdf3+0x20c>
 4024984:	04c02034 	movhi	r19,128
 4024988:	9cffffc4 	addi	r19,r19,-1
 402498c:	1ce6703a 	and	r19,r3,r19
 4024990:	98007a26 	beq	r19,zero,4024b7c <__subdf3+0x378>
 4024994:	9809883a 	mov	r4,r19
 4024998:	40255140 	call	4025514 <__clzsi2>
 402499c:	113ffe04 	addi	r4,r2,-8
 40249a0:	00c007c4 	movi	r3,31
 40249a4:	19007b16 	blt	r3,r4,4024b94 <__subdf3+0x390>
 40249a8:	00800804 	movi	r2,32
 40249ac:	1105c83a 	sub	r2,r2,r4
 40249b0:	8884d83a 	srl	r2,r17,r2
 40249b4:	9906983a 	sll	r3,r19,r4
 40249b8:	8922983a 	sll	r17,r17,r4
 40249bc:	10c4b03a 	or	r2,r2,r3
 40249c0:	24007816 	blt	r4,r16,4024ba4 <__subdf3+0x3a0>
 40249c4:	2421c83a 	sub	r16,r4,r16
 40249c8:	80c00044 	addi	r3,r16,1
 40249cc:	010007c4 	movi	r4,31
 40249d0:	20c09516 	blt	r4,r3,4024c28 <__subdf3+0x424>
 40249d4:	01400804 	movi	r5,32
 40249d8:	28cbc83a 	sub	r5,r5,r3
 40249dc:	88c8d83a 	srl	r4,r17,r3
 40249e0:	8962983a 	sll	r17,r17,r5
 40249e4:	114a983a 	sll	r5,r2,r5
 40249e8:	10c6d83a 	srl	r3,r2,r3
 40249ec:	8804c03a 	cmpne	r2,r17,zero
 40249f0:	290ab03a 	or	r5,r5,r4
 40249f4:	28a2b03a 	or	r17,r5,r2
 40249f8:	0021883a 	mov	r16,zero
 40249fc:	003fa206 	br	4024888 <__flash_rwdata_start+0xffff1fb4>
 4024a00:	2090b03a 	or	r8,r4,r2
 4024a04:	40018e26 	beq	r8,zero,4025040 <__subdf3+0x83c>
 4024a08:	1007883a 	mov	r3,r2
 4024a0c:	2023883a 	mov	r17,r4
 4024a10:	888001cc 	andi	r2,r17,7
 4024a14:	103f9e1e 	bne	r2,zero,4024890 <__flash_rwdata_start+0xffff1fbc>
 4024a18:	1804977a 	slli	r2,r3,29
 4024a1c:	8822d0fa 	srli	r17,r17,3
 4024a20:	1810d0fa 	srli	r8,r3,3
 4024a24:	9100004c 	andi	r4,r18,1
 4024a28:	1444b03a 	or	r2,r2,r17
 4024a2c:	00c1ffc4 	movi	r3,2047
 4024a30:	80c02826 	beq	r16,r3,4024ad4 <__subdf3+0x2d0>
 4024a34:	01400434 	movhi	r5,16
 4024a38:	297fffc4 	addi	r5,r5,-1
 4024a3c:	80e0703a 	and	r16,r16,r3
 4024a40:	414a703a 	and	r5,r8,r5
 4024a44:	003fa806 	br	40248e8 <__flash_rwdata_start+0xffff2014>
 4024a48:	0080630e 	bge	zero,r2,4024bd8 <__subdf3+0x3d4>
 4024a4c:	48003026 	beq	r9,zero,4024b10 <__subdf3+0x30c>
 4024a50:	0101ffc4 	movi	r4,2047
 4024a54:	813f8c26 	beq	r16,r4,4024888 <__flash_rwdata_start+0xffff1fb4>
 4024a58:	29402034 	orhi	r5,r5,128
 4024a5c:	01000e04 	movi	r4,56
 4024a60:	2080a90e 	bge	r4,r2,4024d08 <__subdf3+0x504>
 4024a64:	298cb03a 	or	r6,r5,r6
 4024a68:	3012c03a 	cmpne	r9,r6,zero
 4024a6c:	0005883a 	mov	r2,zero
 4024a70:	4c53883a 	add	r9,r9,r17
 4024a74:	4c63803a 	cmpltu	r17,r9,r17
 4024a78:	10c7883a 	add	r3,r2,r3
 4024a7c:	88c7883a 	add	r3,r17,r3
 4024a80:	4823883a 	mov	r17,r9
 4024a84:	1880202c 	andhi	r2,r3,128
 4024a88:	1000d026 	beq	r2,zero,4024dcc <__subdf3+0x5c8>
 4024a8c:	84000044 	addi	r16,r16,1
 4024a90:	0081ffc4 	movi	r2,2047
 4024a94:	8080fe26 	beq	r16,r2,4024e90 <__subdf3+0x68c>
 4024a98:	00bfe034 	movhi	r2,65408
 4024a9c:	10bfffc4 	addi	r2,r2,-1
 4024aa0:	1886703a 	and	r3,r3,r2
 4024aa4:	880ad07a 	srli	r5,r17,1
 4024aa8:	180497fa 	slli	r2,r3,31
 4024aac:	8900004c 	andi	r4,r17,1
 4024ab0:	2922b03a 	or	r17,r5,r4
 4024ab4:	1806d07a 	srli	r3,r3,1
 4024ab8:	1462b03a 	or	r17,r2,r17
 4024abc:	3825883a 	mov	r18,r7
 4024ac0:	003f7106 	br	4024888 <__flash_rwdata_start+0xffff1fb4>
 4024ac4:	2984b03a 	or	r2,r5,r6
 4024ac8:	103f6826 	beq	r2,zero,402486c <__flash_rwdata_start+0xffff1f98>
 4024acc:	39c03fcc 	andi	r7,r7,255
 4024ad0:	003f6706 	br	4024870 <__flash_rwdata_start+0xffff1f9c>
 4024ad4:	4086b03a 	or	r3,r8,r2
 4024ad8:	18015226 	beq	r3,zero,4025024 <__subdf3+0x820>
 4024adc:	00c00434 	movhi	r3,16
 4024ae0:	41400234 	orhi	r5,r8,8
 4024ae4:	18ffffc4 	addi	r3,r3,-1
 4024ae8:	28ca703a 	and	r5,r5,r3
 4024aec:	003f7e06 	br	40248e8 <__flash_rwdata_start+0xffff2014>
 4024af0:	10bfffc4 	addi	r2,r2,-1
 4024af4:	1000491e 	bne	r2,zero,4024c1c <__subdf3+0x418>
 4024af8:	898fc83a 	sub	r7,r17,r6
 4024afc:	89e3803a 	cmpltu	r17,r17,r7
 4024b00:	1947c83a 	sub	r3,r3,r5
 4024b04:	1c47c83a 	sub	r3,r3,r17
 4024b08:	3823883a 	mov	r17,r7
 4024b0c:	003f9b06 	br	402497c <__flash_rwdata_start+0xffff20a8>
 4024b10:	2988b03a 	or	r4,r5,r6
 4024b14:	203f5c26 	beq	r4,zero,4024888 <__flash_rwdata_start+0xffff1fb4>
 4024b18:	10bfffc4 	addi	r2,r2,-1
 4024b1c:	1000931e 	bne	r2,zero,4024d6c <__subdf3+0x568>
 4024b20:	898d883a 	add	r6,r17,r6
 4024b24:	3463803a 	cmpltu	r17,r6,r17
 4024b28:	1947883a 	add	r3,r3,r5
 4024b2c:	88c7883a 	add	r3,r17,r3
 4024b30:	3023883a 	mov	r17,r6
 4024b34:	003fd306 	br	4024a84 <__flash_rwdata_start+0xffff21b0>
 4024b38:	1000541e 	bne	r2,zero,4024c8c <__subdf3+0x488>
 4024b3c:	80800044 	addi	r2,r16,1
 4024b40:	1081ffcc 	andi	r2,r2,2047
 4024b44:	01000044 	movi	r4,1
 4024b48:	2080a20e 	bge	r4,r2,4024dd4 <__subdf3+0x5d0>
 4024b4c:	8989c83a 	sub	r4,r17,r6
 4024b50:	8905803a 	cmpltu	r2,r17,r4
 4024b54:	1967c83a 	sub	r19,r3,r5
 4024b58:	98a7c83a 	sub	r19,r19,r2
 4024b5c:	9880202c 	andhi	r2,r19,128
 4024b60:	10006326 	beq	r2,zero,4024cf0 <__subdf3+0x4ec>
 4024b64:	3463c83a 	sub	r17,r6,r17
 4024b68:	28c7c83a 	sub	r3,r5,r3
 4024b6c:	344d803a 	cmpltu	r6,r6,r17
 4024b70:	19a7c83a 	sub	r19,r3,r6
 4024b74:	3825883a 	mov	r18,r7
 4024b78:	983f861e 	bne	r19,zero,4024994 <__flash_rwdata_start+0xffff20c0>
 4024b7c:	8809883a 	mov	r4,r17
 4024b80:	40255140 	call	4025514 <__clzsi2>
 4024b84:	10800804 	addi	r2,r2,32
 4024b88:	113ffe04 	addi	r4,r2,-8
 4024b8c:	00c007c4 	movi	r3,31
 4024b90:	193f850e 	bge	r3,r4,40249a8 <__flash_rwdata_start+0xffff20d4>
 4024b94:	10bff604 	addi	r2,r2,-40
 4024b98:	8884983a 	sll	r2,r17,r2
 4024b9c:	0023883a 	mov	r17,zero
 4024ba0:	243f880e 	bge	r4,r16,40249c4 <__flash_rwdata_start+0xffff20f0>
 4024ba4:	00ffe034 	movhi	r3,65408
 4024ba8:	18ffffc4 	addi	r3,r3,-1
 4024bac:	8121c83a 	sub	r16,r16,r4
 4024bb0:	10c6703a 	and	r3,r2,r3
 4024bb4:	003f3406 	br	4024888 <__flash_rwdata_start+0xffff1fb4>
 4024bb8:	9100004c 	andi	r4,r18,1
 4024bbc:	000b883a 	mov	r5,zero
 4024bc0:	0005883a 	mov	r2,zero
 4024bc4:	003f4806 	br	40248e8 <__flash_rwdata_start+0xffff2014>
 4024bc8:	298cb03a 	or	r6,r5,r6
 4024bcc:	300cc03a 	cmpne	r6,r6,zero
 4024bd0:	0005883a 	mov	r2,zero
 4024bd4:	003f6406 	br	4024968 <__flash_rwdata_start+0xffff2094>
 4024bd8:	10009a1e 	bne	r2,zero,4024e44 <__subdf3+0x640>
 4024bdc:	82400044 	addi	r9,r16,1
 4024be0:	4881ffcc 	andi	r2,r9,2047
 4024be4:	02800044 	movi	r10,1
 4024be8:	5080670e 	bge	r10,r2,4024d88 <__subdf3+0x584>
 4024bec:	0081ffc4 	movi	r2,2047
 4024bf0:	4880af26 	beq	r9,r2,4024eb0 <__subdf3+0x6ac>
 4024bf4:	898d883a 	add	r6,r17,r6
 4024bf8:	1945883a 	add	r2,r3,r5
 4024bfc:	3447803a 	cmpltu	r3,r6,r17
 4024c00:	1887883a 	add	r3,r3,r2
 4024c04:	182297fa 	slli	r17,r3,31
 4024c08:	300cd07a 	srli	r6,r6,1
 4024c0c:	1806d07a 	srli	r3,r3,1
 4024c10:	4821883a 	mov	r16,r9
 4024c14:	89a2b03a 	or	r17,r17,r6
 4024c18:	003f1b06 	br	4024888 <__flash_rwdata_start+0xffff1fb4>
 4024c1c:	0101ffc4 	movi	r4,2047
 4024c20:	813f441e 	bne	r16,r4,4024934 <__flash_rwdata_start+0xffff2060>
 4024c24:	003f1806 	br	4024888 <__flash_rwdata_start+0xffff1fb4>
 4024c28:	843ff844 	addi	r16,r16,-31
 4024c2c:	01400804 	movi	r5,32
 4024c30:	1408d83a 	srl	r4,r2,r16
 4024c34:	19405026 	beq	r3,r5,4024d78 <__subdf3+0x574>
 4024c38:	01401004 	movi	r5,64
 4024c3c:	28c7c83a 	sub	r3,r5,r3
 4024c40:	10c4983a 	sll	r2,r2,r3
 4024c44:	88a2b03a 	or	r17,r17,r2
 4024c48:	8822c03a 	cmpne	r17,r17,zero
 4024c4c:	2462b03a 	or	r17,r4,r17
 4024c50:	0007883a 	mov	r3,zero
 4024c54:	0021883a 	mov	r16,zero
 4024c58:	003f6d06 	br	4024a10 <__flash_rwdata_start+0xffff213c>
 4024c5c:	11fff804 	addi	r7,r2,-32
 4024c60:	01000804 	movi	r4,32
 4024c64:	29ced83a 	srl	r7,r5,r7
 4024c68:	11004526 	beq	r2,r4,4024d80 <__subdf3+0x57c>
 4024c6c:	01001004 	movi	r4,64
 4024c70:	2089c83a 	sub	r4,r4,r2
 4024c74:	2904983a 	sll	r2,r5,r4
 4024c78:	118cb03a 	or	r6,r2,r6
 4024c7c:	300cc03a 	cmpne	r6,r6,zero
 4024c80:	398cb03a 	or	r6,r7,r6
 4024c84:	0005883a 	mov	r2,zero
 4024c88:	003f3706 	br	4024968 <__flash_rwdata_start+0xffff2094>
 4024c8c:	80002a26 	beq	r16,zero,4024d38 <__subdf3+0x534>
 4024c90:	0101ffc4 	movi	r4,2047
 4024c94:	49006626 	beq	r9,r4,4024e30 <__subdf3+0x62c>
 4024c98:	0085c83a 	sub	r2,zero,r2
 4024c9c:	18c02034 	orhi	r3,r3,128
 4024ca0:	01000e04 	movi	r4,56
 4024ca4:	20807e16 	blt	r4,r2,4024ea0 <__subdf3+0x69c>
 4024ca8:	010007c4 	movi	r4,31
 4024cac:	2080e716 	blt	r4,r2,402504c <__subdf3+0x848>
 4024cb0:	01000804 	movi	r4,32
 4024cb4:	2089c83a 	sub	r4,r4,r2
 4024cb8:	1914983a 	sll	r10,r3,r4
 4024cbc:	8890d83a 	srl	r8,r17,r2
 4024cc0:	8908983a 	sll	r4,r17,r4
 4024cc4:	1884d83a 	srl	r2,r3,r2
 4024cc8:	5222b03a 	or	r17,r10,r8
 4024ccc:	2006c03a 	cmpne	r3,r4,zero
 4024cd0:	88e2b03a 	or	r17,r17,r3
 4024cd4:	3463c83a 	sub	r17,r6,r17
 4024cd8:	2885c83a 	sub	r2,r5,r2
 4024cdc:	344d803a 	cmpltu	r6,r6,r17
 4024ce0:	1187c83a 	sub	r3,r2,r6
 4024ce4:	4821883a 	mov	r16,r9
 4024ce8:	3825883a 	mov	r18,r7
 4024cec:	003f2306 	br	402497c <__flash_rwdata_start+0xffff20a8>
 4024cf0:	24d0b03a 	or	r8,r4,r19
 4024cf4:	40001b1e 	bne	r8,zero,4024d64 <__subdf3+0x560>
 4024cf8:	0005883a 	mov	r2,zero
 4024cfc:	0009883a 	mov	r4,zero
 4024d00:	0021883a 	mov	r16,zero
 4024d04:	003f4906 	br	4024a2c <__flash_rwdata_start+0xffff2158>
 4024d08:	010007c4 	movi	r4,31
 4024d0c:	20803a16 	blt	r4,r2,4024df8 <__subdf3+0x5f4>
 4024d10:	01000804 	movi	r4,32
 4024d14:	2089c83a 	sub	r4,r4,r2
 4024d18:	2912983a 	sll	r9,r5,r4
 4024d1c:	3090d83a 	srl	r8,r6,r2
 4024d20:	3108983a 	sll	r4,r6,r4
 4024d24:	2884d83a 	srl	r2,r5,r2
 4024d28:	4a12b03a 	or	r9,r9,r8
 4024d2c:	2008c03a 	cmpne	r4,r4,zero
 4024d30:	4912b03a 	or	r9,r9,r4
 4024d34:	003f4e06 	br	4024a70 <__flash_rwdata_start+0xffff219c>
 4024d38:	1c48b03a 	or	r4,r3,r17
 4024d3c:	20003c26 	beq	r4,zero,4024e30 <__subdf3+0x62c>
 4024d40:	0084303a 	nor	r2,zero,r2
 4024d44:	1000381e 	bne	r2,zero,4024e28 <__subdf3+0x624>
 4024d48:	3463c83a 	sub	r17,r6,r17
 4024d4c:	28c5c83a 	sub	r2,r5,r3
 4024d50:	344d803a 	cmpltu	r6,r6,r17
 4024d54:	1187c83a 	sub	r3,r2,r6
 4024d58:	4821883a 	mov	r16,r9
 4024d5c:	3825883a 	mov	r18,r7
 4024d60:	003f0606 	br	402497c <__flash_rwdata_start+0xffff20a8>
 4024d64:	2023883a 	mov	r17,r4
 4024d68:	003f0906 	br	4024990 <__flash_rwdata_start+0xffff20bc>
 4024d6c:	0101ffc4 	movi	r4,2047
 4024d70:	813f3a1e 	bne	r16,r4,4024a5c <__flash_rwdata_start+0xffff2188>
 4024d74:	003ec406 	br	4024888 <__flash_rwdata_start+0xffff1fb4>
 4024d78:	0005883a 	mov	r2,zero
 4024d7c:	003fb106 	br	4024c44 <__flash_rwdata_start+0xffff2370>
 4024d80:	0005883a 	mov	r2,zero
 4024d84:	003fbc06 	br	4024c78 <__flash_rwdata_start+0xffff23a4>
 4024d88:	1c44b03a 	or	r2,r3,r17
 4024d8c:	80008e1e 	bne	r16,zero,4024fc8 <__subdf3+0x7c4>
 4024d90:	1000c826 	beq	r2,zero,40250b4 <__subdf3+0x8b0>
 4024d94:	2984b03a 	or	r2,r5,r6
 4024d98:	103ebb26 	beq	r2,zero,4024888 <__flash_rwdata_start+0xffff1fb4>
 4024d9c:	8989883a 	add	r4,r17,r6
 4024da0:	1945883a 	add	r2,r3,r5
 4024da4:	2447803a 	cmpltu	r3,r4,r17
 4024da8:	1887883a 	add	r3,r3,r2
 4024dac:	1880202c 	andhi	r2,r3,128
 4024db0:	2023883a 	mov	r17,r4
 4024db4:	103f1626 	beq	r2,zero,4024a10 <__flash_rwdata_start+0xffff213c>
 4024db8:	00bfe034 	movhi	r2,65408
 4024dbc:	10bfffc4 	addi	r2,r2,-1
 4024dc0:	5021883a 	mov	r16,r10
 4024dc4:	1886703a 	and	r3,r3,r2
 4024dc8:	003eaf06 	br	4024888 <__flash_rwdata_start+0xffff1fb4>
 4024dcc:	3825883a 	mov	r18,r7
 4024dd0:	003f0f06 	br	4024a10 <__flash_rwdata_start+0xffff213c>
 4024dd4:	1c44b03a 	or	r2,r3,r17
 4024dd8:	8000251e 	bne	r16,zero,4024e70 <__subdf3+0x66c>
 4024ddc:	1000661e 	bne	r2,zero,4024f78 <__subdf3+0x774>
 4024de0:	2990b03a 	or	r8,r5,r6
 4024de4:	40009626 	beq	r8,zero,4025040 <__subdf3+0x83c>
 4024de8:	2807883a 	mov	r3,r5
 4024dec:	3023883a 	mov	r17,r6
 4024df0:	3825883a 	mov	r18,r7
 4024df4:	003ea406 	br	4024888 <__flash_rwdata_start+0xffff1fb4>
 4024df8:	127ff804 	addi	r9,r2,-32
 4024dfc:	01000804 	movi	r4,32
 4024e00:	2a52d83a 	srl	r9,r5,r9
 4024e04:	11008c26 	beq	r2,r4,4025038 <__subdf3+0x834>
 4024e08:	01001004 	movi	r4,64
 4024e0c:	2085c83a 	sub	r2,r4,r2
 4024e10:	2884983a 	sll	r2,r5,r2
 4024e14:	118cb03a 	or	r6,r2,r6
 4024e18:	300cc03a 	cmpne	r6,r6,zero
 4024e1c:	4992b03a 	or	r9,r9,r6
 4024e20:	0005883a 	mov	r2,zero
 4024e24:	003f1206 	br	4024a70 <__flash_rwdata_start+0xffff219c>
 4024e28:	0101ffc4 	movi	r4,2047
 4024e2c:	493f9c1e 	bne	r9,r4,4024ca0 <__flash_rwdata_start+0xffff23cc>
 4024e30:	2807883a 	mov	r3,r5
 4024e34:	3023883a 	mov	r17,r6
 4024e38:	4821883a 	mov	r16,r9
 4024e3c:	3825883a 	mov	r18,r7
 4024e40:	003e9106 	br	4024888 <__flash_rwdata_start+0xffff1fb4>
 4024e44:	80001f1e 	bne	r16,zero,4024ec4 <__subdf3+0x6c0>
 4024e48:	1c48b03a 	or	r4,r3,r17
 4024e4c:	20005a26 	beq	r4,zero,4024fb8 <__subdf3+0x7b4>
 4024e50:	0084303a 	nor	r2,zero,r2
 4024e54:	1000561e 	bne	r2,zero,4024fb0 <__subdf3+0x7ac>
 4024e58:	89a3883a 	add	r17,r17,r6
 4024e5c:	1945883a 	add	r2,r3,r5
 4024e60:	898d803a 	cmpltu	r6,r17,r6
 4024e64:	3087883a 	add	r3,r6,r2
 4024e68:	4821883a 	mov	r16,r9
 4024e6c:	003f0506 	br	4024a84 <__flash_rwdata_start+0xffff21b0>
 4024e70:	10002b1e 	bne	r2,zero,4024f20 <__subdf3+0x71c>
 4024e74:	2984b03a 	or	r2,r5,r6
 4024e78:	10008026 	beq	r2,zero,402507c <__subdf3+0x878>
 4024e7c:	2807883a 	mov	r3,r5
 4024e80:	3023883a 	mov	r17,r6
 4024e84:	3825883a 	mov	r18,r7
 4024e88:	0401ffc4 	movi	r16,2047
 4024e8c:	003e7e06 	br	4024888 <__flash_rwdata_start+0xffff1fb4>
 4024e90:	3809883a 	mov	r4,r7
 4024e94:	0011883a 	mov	r8,zero
 4024e98:	0005883a 	mov	r2,zero
 4024e9c:	003ee306 	br	4024a2c <__flash_rwdata_start+0xffff2158>
 4024ea0:	1c62b03a 	or	r17,r3,r17
 4024ea4:	8822c03a 	cmpne	r17,r17,zero
 4024ea8:	0005883a 	mov	r2,zero
 4024eac:	003f8906 	br	4024cd4 <__flash_rwdata_start+0xffff2400>
 4024eb0:	3809883a 	mov	r4,r7
 4024eb4:	4821883a 	mov	r16,r9
 4024eb8:	0011883a 	mov	r8,zero
 4024ebc:	0005883a 	mov	r2,zero
 4024ec0:	003eda06 	br	4024a2c <__flash_rwdata_start+0xffff2158>
 4024ec4:	0101ffc4 	movi	r4,2047
 4024ec8:	49003b26 	beq	r9,r4,4024fb8 <__subdf3+0x7b4>
 4024ecc:	0085c83a 	sub	r2,zero,r2
 4024ed0:	18c02034 	orhi	r3,r3,128
 4024ed4:	01000e04 	movi	r4,56
 4024ed8:	20806e16 	blt	r4,r2,4025094 <__subdf3+0x890>
 4024edc:	010007c4 	movi	r4,31
 4024ee0:	20807716 	blt	r4,r2,40250c0 <__subdf3+0x8bc>
 4024ee4:	01000804 	movi	r4,32
 4024ee8:	2089c83a 	sub	r4,r4,r2
 4024eec:	1914983a 	sll	r10,r3,r4
 4024ef0:	8890d83a 	srl	r8,r17,r2
 4024ef4:	8908983a 	sll	r4,r17,r4
 4024ef8:	1884d83a 	srl	r2,r3,r2
 4024efc:	5222b03a 	or	r17,r10,r8
 4024f00:	2006c03a 	cmpne	r3,r4,zero
 4024f04:	88e2b03a 	or	r17,r17,r3
 4024f08:	89a3883a 	add	r17,r17,r6
 4024f0c:	1145883a 	add	r2,r2,r5
 4024f10:	898d803a 	cmpltu	r6,r17,r6
 4024f14:	3087883a 	add	r3,r6,r2
 4024f18:	4821883a 	mov	r16,r9
 4024f1c:	003ed906 	br	4024a84 <__flash_rwdata_start+0xffff21b0>
 4024f20:	2984b03a 	or	r2,r5,r6
 4024f24:	10004226 	beq	r2,zero,4025030 <__subdf3+0x82c>
 4024f28:	1808d0fa 	srli	r4,r3,3
 4024f2c:	8822d0fa 	srli	r17,r17,3
 4024f30:	1806977a 	slli	r3,r3,29
 4024f34:	2080022c 	andhi	r2,r4,8
 4024f38:	1c62b03a 	or	r17,r3,r17
 4024f3c:	10000826 	beq	r2,zero,4024f60 <__subdf3+0x75c>
 4024f40:	2812d0fa 	srli	r9,r5,3
 4024f44:	4880022c 	andhi	r2,r9,8
 4024f48:	1000051e 	bne	r2,zero,4024f60 <__subdf3+0x75c>
 4024f4c:	300cd0fa 	srli	r6,r6,3
 4024f50:	2804977a 	slli	r2,r5,29
 4024f54:	4809883a 	mov	r4,r9
 4024f58:	3825883a 	mov	r18,r7
 4024f5c:	11a2b03a 	or	r17,r2,r6
 4024f60:	8806d77a 	srli	r3,r17,29
 4024f64:	200890fa 	slli	r4,r4,3
 4024f68:	882290fa 	slli	r17,r17,3
 4024f6c:	0401ffc4 	movi	r16,2047
 4024f70:	1906b03a 	or	r3,r3,r4
 4024f74:	003e4406 	br	4024888 <__flash_rwdata_start+0xffff1fb4>
 4024f78:	2984b03a 	or	r2,r5,r6
 4024f7c:	103e4226 	beq	r2,zero,4024888 <__flash_rwdata_start+0xffff1fb4>
 4024f80:	8989c83a 	sub	r4,r17,r6
 4024f84:	8911803a 	cmpltu	r8,r17,r4
 4024f88:	1945c83a 	sub	r2,r3,r5
 4024f8c:	1205c83a 	sub	r2,r2,r8
 4024f90:	1200202c 	andhi	r8,r2,128
 4024f94:	403e9a26 	beq	r8,zero,4024a00 <__flash_rwdata_start+0xffff212c>
 4024f98:	3463c83a 	sub	r17,r6,r17
 4024f9c:	28c5c83a 	sub	r2,r5,r3
 4024fa0:	344d803a 	cmpltu	r6,r6,r17
 4024fa4:	1187c83a 	sub	r3,r2,r6
 4024fa8:	3825883a 	mov	r18,r7
 4024fac:	003e3606 	br	4024888 <__flash_rwdata_start+0xffff1fb4>
 4024fb0:	0101ffc4 	movi	r4,2047
 4024fb4:	493fc71e 	bne	r9,r4,4024ed4 <__flash_rwdata_start+0xffff2600>
 4024fb8:	2807883a 	mov	r3,r5
 4024fbc:	3023883a 	mov	r17,r6
 4024fc0:	4821883a 	mov	r16,r9
 4024fc4:	003e3006 	br	4024888 <__flash_rwdata_start+0xffff1fb4>
 4024fc8:	10003626 	beq	r2,zero,40250a4 <__subdf3+0x8a0>
 4024fcc:	2984b03a 	or	r2,r5,r6
 4024fd0:	10001726 	beq	r2,zero,4025030 <__subdf3+0x82c>
 4024fd4:	1808d0fa 	srli	r4,r3,3
 4024fd8:	8822d0fa 	srli	r17,r17,3
 4024fdc:	1806977a 	slli	r3,r3,29
 4024fe0:	2080022c 	andhi	r2,r4,8
 4024fe4:	1c62b03a 	or	r17,r3,r17
 4024fe8:	10000726 	beq	r2,zero,4025008 <__subdf3+0x804>
 4024fec:	2812d0fa 	srli	r9,r5,3
 4024ff0:	4880022c 	andhi	r2,r9,8
 4024ff4:	1000041e 	bne	r2,zero,4025008 <__subdf3+0x804>
 4024ff8:	300cd0fa 	srli	r6,r6,3
 4024ffc:	2804977a 	slli	r2,r5,29
 4025000:	4809883a 	mov	r4,r9
 4025004:	11a2b03a 	or	r17,r2,r6
 4025008:	8806d77a 	srli	r3,r17,29
 402500c:	200890fa 	slli	r4,r4,3
 4025010:	882290fa 	slli	r17,r17,3
 4025014:	3825883a 	mov	r18,r7
 4025018:	1906b03a 	or	r3,r3,r4
 402501c:	0401ffc4 	movi	r16,2047
 4025020:	003e1906 	br	4024888 <__flash_rwdata_start+0xffff1fb4>
 4025024:	000b883a 	mov	r5,zero
 4025028:	0005883a 	mov	r2,zero
 402502c:	003e2e06 	br	40248e8 <__flash_rwdata_start+0xffff2014>
 4025030:	0401ffc4 	movi	r16,2047
 4025034:	003e1406 	br	4024888 <__flash_rwdata_start+0xffff1fb4>
 4025038:	0005883a 	mov	r2,zero
 402503c:	003f7506 	br	4024e14 <__flash_rwdata_start+0xffff2540>
 4025040:	0005883a 	mov	r2,zero
 4025044:	0009883a 	mov	r4,zero
 4025048:	003e7806 	br	4024a2c <__flash_rwdata_start+0xffff2158>
 402504c:	123ff804 	addi	r8,r2,-32
 4025050:	01000804 	movi	r4,32
 4025054:	1a10d83a 	srl	r8,r3,r8
 4025058:	11002526 	beq	r2,r4,40250f0 <__subdf3+0x8ec>
 402505c:	01001004 	movi	r4,64
 4025060:	2085c83a 	sub	r2,r4,r2
 4025064:	1884983a 	sll	r2,r3,r2
 4025068:	1444b03a 	or	r2,r2,r17
 402506c:	1004c03a 	cmpne	r2,r2,zero
 4025070:	40a2b03a 	or	r17,r8,r2
 4025074:	0005883a 	mov	r2,zero
 4025078:	003f1606 	br	4024cd4 <__flash_rwdata_start+0xffff2400>
 402507c:	02000434 	movhi	r8,16
 4025080:	0009883a 	mov	r4,zero
 4025084:	423fffc4 	addi	r8,r8,-1
 4025088:	00bfffc4 	movi	r2,-1
 402508c:	0401ffc4 	movi	r16,2047
 4025090:	003e6606 	br	4024a2c <__flash_rwdata_start+0xffff2158>
 4025094:	1c62b03a 	or	r17,r3,r17
 4025098:	8822c03a 	cmpne	r17,r17,zero
 402509c:	0005883a 	mov	r2,zero
 40250a0:	003f9906 	br	4024f08 <__flash_rwdata_start+0xffff2634>
 40250a4:	2807883a 	mov	r3,r5
 40250a8:	3023883a 	mov	r17,r6
 40250ac:	0401ffc4 	movi	r16,2047
 40250b0:	003df506 	br	4024888 <__flash_rwdata_start+0xffff1fb4>
 40250b4:	2807883a 	mov	r3,r5
 40250b8:	3023883a 	mov	r17,r6
 40250bc:	003df206 	br	4024888 <__flash_rwdata_start+0xffff1fb4>
 40250c0:	123ff804 	addi	r8,r2,-32
 40250c4:	01000804 	movi	r4,32
 40250c8:	1a10d83a 	srl	r8,r3,r8
 40250cc:	11000a26 	beq	r2,r4,40250f8 <__subdf3+0x8f4>
 40250d0:	01001004 	movi	r4,64
 40250d4:	2085c83a 	sub	r2,r4,r2
 40250d8:	1884983a 	sll	r2,r3,r2
 40250dc:	1444b03a 	or	r2,r2,r17
 40250e0:	1004c03a 	cmpne	r2,r2,zero
 40250e4:	40a2b03a 	or	r17,r8,r2
 40250e8:	0005883a 	mov	r2,zero
 40250ec:	003f8606 	br	4024f08 <__flash_rwdata_start+0xffff2634>
 40250f0:	0005883a 	mov	r2,zero
 40250f4:	003fdc06 	br	4025068 <__flash_rwdata_start+0xffff2794>
 40250f8:	0005883a 	mov	r2,zero
 40250fc:	003ff706 	br	40250dc <__flash_rwdata_start+0xffff2808>

04025100 <__fixdfsi>:
 4025100:	280cd53a 	srli	r6,r5,20
 4025104:	00c00434 	movhi	r3,16
 4025108:	18ffffc4 	addi	r3,r3,-1
 402510c:	3181ffcc 	andi	r6,r6,2047
 4025110:	01c0ff84 	movi	r7,1022
 4025114:	28c6703a 	and	r3,r5,r3
 4025118:	280ad7fa 	srli	r5,r5,31
 402511c:	3980120e 	bge	r7,r6,4025168 <__fixdfsi+0x68>
 4025120:	00810744 	movi	r2,1053
 4025124:	11800c16 	blt	r2,r6,4025158 <__fixdfsi+0x58>
 4025128:	00810cc4 	movi	r2,1075
 402512c:	1185c83a 	sub	r2,r2,r6
 4025130:	01c007c4 	movi	r7,31
 4025134:	18c00434 	orhi	r3,r3,16
 4025138:	38800d16 	blt	r7,r2,4025170 <__fixdfsi+0x70>
 402513c:	31befb44 	addi	r6,r6,-1043
 4025140:	2084d83a 	srl	r2,r4,r2
 4025144:	1986983a 	sll	r3,r3,r6
 4025148:	1884b03a 	or	r2,r3,r2
 402514c:	28000726 	beq	r5,zero,402516c <__fixdfsi+0x6c>
 4025150:	0085c83a 	sub	r2,zero,r2
 4025154:	f800283a 	ret
 4025158:	00a00034 	movhi	r2,32768
 402515c:	10bfffc4 	addi	r2,r2,-1
 4025160:	2885883a 	add	r2,r5,r2
 4025164:	f800283a 	ret
 4025168:	0005883a 	mov	r2,zero
 402516c:	f800283a 	ret
 4025170:	008104c4 	movi	r2,1043
 4025174:	1185c83a 	sub	r2,r2,r6
 4025178:	1884d83a 	srl	r2,r3,r2
 402517c:	003ff306 	br	402514c <__flash_rwdata_start+0xffff2878>

04025180 <__floatsidf>:
 4025180:	defffd04 	addi	sp,sp,-12
 4025184:	dfc00215 	stw	ra,8(sp)
 4025188:	dc400115 	stw	r17,4(sp)
 402518c:	dc000015 	stw	r16,0(sp)
 4025190:	20002b26 	beq	r4,zero,4025240 <__floatsidf+0xc0>
 4025194:	2023883a 	mov	r17,r4
 4025198:	2020d7fa 	srli	r16,r4,31
 402519c:	20002d16 	blt	r4,zero,4025254 <__floatsidf+0xd4>
 40251a0:	8809883a 	mov	r4,r17
 40251a4:	40255140 	call	4025514 <__clzsi2>
 40251a8:	01410784 	movi	r5,1054
 40251ac:	288bc83a 	sub	r5,r5,r2
 40251b0:	01010cc4 	movi	r4,1075
 40251b4:	2149c83a 	sub	r4,r4,r5
 40251b8:	00c007c4 	movi	r3,31
 40251bc:	1900160e 	bge	r3,r4,4025218 <__floatsidf+0x98>
 40251c0:	00c104c4 	movi	r3,1043
 40251c4:	1947c83a 	sub	r3,r3,r5
 40251c8:	88c6983a 	sll	r3,r17,r3
 40251cc:	00800434 	movhi	r2,16
 40251d0:	10bfffc4 	addi	r2,r2,-1
 40251d4:	1886703a 	and	r3,r3,r2
 40251d8:	2941ffcc 	andi	r5,r5,2047
 40251dc:	800d883a 	mov	r6,r16
 40251e0:	0005883a 	mov	r2,zero
 40251e4:	280a953a 	slli	r5,r5,20
 40251e8:	31803fcc 	andi	r6,r6,255
 40251ec:	01000434 	movhi	r4,16
 40251f0:	300c97fa 	slli	r6,r6,31
 40251f4:	213fffc4 	addi	r4,r4,-1
 40251f8:	1906703a 	and	r3,r3,r4
 40251fc:	1946b03a 	or	r3,r3,r5
 4025200:	1986b03a 	or	r3,r3,r6
 4025204:	dfc00217 	ldw	ra,8(sp)
 4025208:	dc400117 	ldw	r17,4(sp)
 402520c:	dc000017 	ldw	r16,0(sp)
 4025210:	dec00304 	addi	sp,sp,12
 4025214:	f800283a 	ret
 4025218:	00c002c4 	movi	r3,11
 402521c:	1887c83a 	sub	r3,r3,r2
 4025220:	88c6d83a 	srl	r3,r17,r3
 4025224:	8904983a 	sll	r2,r17,r4
 4025228:	01000434 	movhi	r4,16
 402522c:	213fffc4 	addi	r4,r4,-1
 4025230:	2941ffcc 	andi	r5,r5,2047
 4025234:	1906703a 	and	r3,r3,r4
 4025238:	800d883a 	mov	r6,r16
 402523c:	003fe906 	br	40251e4 <__flash_rwdata_start+0xffff2910>
 4025240:	000d883a 	mov	r6,zero
 4025244:	000b883a 	mov	r5,zero
 4025248:	0007883a 	mov	r3,zero
 402524c:	0005883a 	mov	r2,zero
 4025250:	003fe406 	br	40251e4 <__flash_rwdata_start+0xffff2910>
 4025254:	0123c83a 	sub	r17,zero,r4
 4025258:	003fd106 	br	40251a0 <__flash_rwdata_start+0xffff28cc>

0402525c <__extendsfdf2>:
 402525c:	200ad5fa 	srli	r5,r4,23
 4025260:	defffd04 	addi	sp,sp,-12
 4025264:	dc400115 	stw	r17,4(sp)
 4025268:	29403fcc 	andi	r5,r5,255
 402526c:	29800044 	addi	r6,r5,1
 4025270:	04402034 	movhi	r17,128
 4025274:	dc000015 	stw	r16,0(sp)
 4025278:	8c7fffc4 	addi	r17,r17,-1
 402527c:	dfc00215 	stw	ra,8(sp)
 4025280:	31803fcc 	andi	r6,r6,255
 4025284:	00800044 	movi	r2,1
 4025288:	8922703a 	and	r17,r17,r4
 402528c:	2020d7fa 	srli	r16,r4,31
 4025290:	1180110e 	bge	r2,r6,40252d8 <__extendsfdf2+0x7c>
 4025294:	880cd0fa 	srli	r6,r17,3
 4025298:	8822977a 	slli	r17,r17,29
 402529c:	2940e004 	addi	r5,r5,896
 40252a0:	2941ffcc 	andi	r5,r5,2047
 40252a4:	2804953a 	slli	r2,r5,20
 40252a8:	01400434 	movhi	r5,16
 40252ac:	800697fa 	slli	r3,r16,31
 40252b0:	297fffc4 	addi	r5,r5,-1
 40252b4:	314a703a 	and	r5,r6,r5
 40252b8:	288ab03a 	or	r5,r5,r2
 40252bc:	28c6b03a 	or	r3,r5,r3
 40252c0:	8805883a 	mov	r2,r17
 40252c4:	dfc00217 	ldw	ra,8(sp)
 40252c8:	dc400117 	ldw	r17,4(sp)
 40252cc:	dc000017 	ldw	r16,0(sp)
 40252d0:	dec00304 	addi	sp,sp,12
 40252d4:	f800283a 	ret
 40252d8:	2800111e 	bne	r5,zero,4025320 <__extendsfdf2+0xc4>
 40252dc:	88001c26 	beq	r17,zero,4025350 <__extendsfdf2+0xf4>
 40252e0:	8809883a 	mov	r4,r17
 40252e4:	40255140 	call	4025514 <__clzsi2>
 40252e8:	00c00284 	movi	r3,10
 40252ec:	18801b16 	blt	r3,r2,402535c <__extendsfdf2+0x100>
 40252f0:	018002c4 	movi	r6,11
 40252f4:	308dc83a 	sub	r6,r6,r2
 40252f8:	11000544 	addi	r4,r2,21
 40252fc:	8986d83a 	srl	r3,r17,r6
 4025300:	8922983a 	sll	r17,r17,r4
 4025304:	0180e244 	movi	r6,905
 4025308:	01400434 	movhi	r5,16
 402530c:	3085c83a 	sub	r2,r6,r2
 4025310:	297fffc4 	addi	r5,r5,-1
 4025314:	194c703a 	and	r6,r3,r5
 4025318:	1141ffcc 	andi	r5,r2,2047
 402531c:	003fe006 	br	40252a0 <__flash_rwdata_start+0xffff29cc>
 4025320:	88000826 	beq	r17,zero,4025344 <__extendsfdf2+0xe8>
 4025324:	880cd0fa 	srli	r6,r17,3
 4025328:	00800434 	movhi	r2,16
 402532c:	10bfffc4 	addi	r2,r2,-1
 4025330:	31800234 	orhi	r6,r6,8
 4025334:	8822977a 	slli	r17,r17,29
 4025338:	308c703a 	and	r6,r6,r2
 402533c:	0141ffc4 	movi	r5,2047
 4025340:	003fd706 	br	40252a0 <__flash_rwdata_start+0xffff29cc>
 4025344:	0141ffc4 	movi	r5,2047
 4025348:	000d883a 	mov	r6,zero
 402534c:	003fd406 	br	40252a0 <__flash_rwdata_start+0xffff29cc>
 4025350:	000b883a 	mov	r5,zero
 4025354:	000d883a 	mov	r6,zero
 4025358:	003fd106 	br	40252a0 <__flash_rwdata_start+0xffff29cc>
 402535c:	11bffd44 	addi	r6,r2,-11
 4025360:	8986983a 	sll	r3,r17,r6
 4025364:	0023883a 	mov	r17,zero
 4025368:	003fe606 	br	4025304 <__flash_rwdata_start+0xffff2a30>

0402536c <__truncdfsf2>:
 402536c:	2810d53a 	srli	r8,r5,20
 4025370:	01c00434 	movhi	r7,16
 4025374:	39ffffc4 	addi	r7,r7,-1
 4025378:	29ce703a 	and	r7,r5,r7
 402537c:	4201ffcc 	andi	r8,r8,2047
 4025380:	380e90fa 	slli	r7,r7,3
 4025384:	200cd77a 	srli	r6,r4,29
 4025388:	42400044 	addi	r9,r8,1
 402538c:	4a41ffcc 	andi	r9,r9,2047
 4025390:	00c00044 	movi	r3,1
 4025394:	280ad7fa 	srli	r5,r5,31
 4025398:	31ceb03a 	or	r7,r6,r7
 402539c:	200490fa 	slli	r2,r4,3
 40253a0:	1a40230e 	bge	r3,r9,4025430 <__truncdfsf2+0xc4>
 40253a4:	40ff2004 	addi	r3,r8,-896
 40253a8:	01803f84 	movi	r6,254
 40253ac:	30c01516 	blt	r6,r3,4025404 <__truncdfsf2+0x98>
 40253b0:	00c0380e 	bge	zero,r3,4025494 <__truncdfsf2+0x128>
 40253b4:	200c91ba 	slli	r6,r4,6
 40253b8:	380e90fa 	slli	r7,r7,3
 40253bc:	1004d77a 	srli	r2,r2,29
 40253c0:	300cc03a 	cmpne	r6,r6,zero
 40253c4:	31ccb03a 	or	r6,r6,r7
 40253c8:	308cb03a 	or	r6,r6,r2
 40253cc:	308001cc 	andi	r2,r6,7
 40253d0:	10000426 	beq	r2,zero,40253e4 <__truncdfsf2+0x78>
 40253d4:	308003cc 	andi	r2,r6,15
 40253d8:	01000104 	movi	r4,4
 40253dc:	11000126 	beq	r2,r4,40253e4 <__truncdfsf2+0x78>
 40253e0:	31800104 	addi	r6,r6,4
 40253e4:	3081002c 	andhi	r2,r6,1024
 40253e8:	10001626 	beq	r2,zero,4025444 <__truncdfsf2+0xd8>
 40253ec:	18c00044 	addi	r3,r3,1
 40253f0:	00803fc4 	movi	r2,255
 40253f4:	18800326 	beq	r3,r2,4025404 <__truncdfsf2+0x98>
 40253f8:	300c91ba 	slli	r6,r6,6
 40253fc:	300cd27a 	srli	r6,r6,9
 4025400:	00000206 	br	402540c <__truncdfsf2+0xa0>
 4025404:	00ffffc4 	movi	r3,-1
 4025408:	000d883a 	mov	r6,zero
 402540c:	18c03fcc 	andi	r3,r3,255
 4025410:	180895fa 	slli	r4,r3,23
 4025414:	00c02034 	movhi	r3,128
 4025418:	280a97fa 	slli	r5,r5,31
 402541c:	18ffffc4 	addi	r3,r3,-1
 4025420:	30c6703a 	and	r3,r6,r3
 4025424:	1906b03a 	or	r3,r3,r4
 4025428:	1944b03a 	or	r2,r3,r5
 402542c:	f800283a 	ret
 4025430:	40000b1e 	bne	r8,zero,4025460 <__truncdfsf2+0xf4>
 4025434:	388cb03a 	or	r6,r7,r2
 4025438:	0007883a 	mov	r3,zero
 402543c:	30000426 	beq	r6,zero,4025450 <__truncdfsf2+0xe4>
 4025440:	01800144 	movi	r6,5
 4025444:	00803fc4 	movi	r2,255
 4025448:	300cd0fa 	srli	r6,r6,3
 402544c:	18800a26 	beq	r3,r2,4025478 <__truncdfsf2+0x10c>
 4025450:	00802034 	movhi	r2,128
 4025454:	10bfffc4 	addi	r2,r2,-1
 4025458:	308c703a 	and	r6,r6,r2
 402545c:	003feb06 	br	402540c <__flash_rwdata_start+0xffff2b38>
 4025460:	3888b03a 	or	r4,r7,r2
 4025464:	203fe726 	beq	r4,zero,4025404 <__flash_rwdata_start+0xffff2b30>
 4025468:	380c90fa 	slli	r6,r7,3
 402546c:	00c03fc4 	movi	r3,255
 4025470:	31808034 	orhi	r6,r6,512
 4025474:	003fd506 	br	40253cc <__flash_rwdata_start+0xffff2af8>
 4025478:	303fe226 	beq	r6,zero,4025404 <__flash_rwdata_start+0xffff2b30>
 402547c:	00802034 	movhi	r2,128
 4025480:	31801034 	orhi	r6,r6,64
 4025484:	10bfffc4 	addi	r2,r2,-1
 4025488:	00ffffc4 	movi	r3,-1
 402548c:	308c703a 	and	r6,r6,r2
 4025490:	003fde06 	br	402540c <__flash_rwdata_start+0xffff2b38>
 4025494:	013ffa44 	movi	r4,-23
 4025498:	19000e16 	blt	r3,r4,40254d4 <__truncdfsf2+0x168>
 402549c:	01000784 	movi	r4,30
 40254a0:	20c9c83a 	sub	r4,r4,r3
 40254a4:	018007c4 	movi	r6,31
 40254a8:	39c02034 	orhi	r7,r7,128
 40254ac:	31000b16 	blt	r6,r4,40254dc <__truncdfsf2+0x170>
 40254b0:	423f2084 	addi	r8,r8,-894
 40254b4:	120c983a 	sll	r6,r2,r8
 40254b8:	3a0e983a 	sll	r7,r7,r8
 40254bc:	1104d83a 	srl	r2,r2,r4
 40254c0:	300cc03a 	cmpne	r6,r6,zero
 40254c4:	31ceb03a 	or	r7,r6,r7
 40254c8:	388cb03a 	or	r6,r7,r2
 40254cc:	0007883a 	mov	r3,zero
 40254d0:	003fbe06 	br	40253cc <__flash_rwdata_start+0xffff2af8>
 40254d4:	0007883a 	mov	r3,zero
 40254d8:	003fd906 	br	4025440 <__flash_rwdata_start+0xffff2b6c>
 40254dc:	01bfff84 	movi	r6,-2
 40254e0:	30cdc83a 	sub	r6,r6,r3
 40254e4:	00c00804 	movi	r3,32
 40254e8:	398cd83a 	srl	r6,r7,r6
 40254ec:	20c00726 	beq	r4,r3,402550c <__truncdfsf2+0x1a0>
 40254f0:	423f2884 	addi	r8,r8,-862
 40254f4:	3a0e983a 	sll	r7,r7,r8
 40254f8:	3884b03a 	or	r2,r7,r2
 40254fc:	1004c03a 	cmpne	r2,r2,zero
 4025500:	118cb03a 	or	r6,r2,r6
 4025504:	0007883a 	mov	r3,zero
 4025508:	003fb006 	br	40253cc <__flash_rwdata_start+0xffff2af8>
 402550c:	000f883a 	mov	r7,zero
 4025510:	003ff906 	br	40254f8 <__flash_rwdata_start+0xffff2c24>

04025514 <__clzsi2>:
 4025514:	00bfffd4 	movui	r2,65535
 4025518:	11000536 	bltu	r2,r4,4025530 <__clzsi2+0x1c>
 402551c:	00803fc4 	movi	r2,255
 4025520:	11000f36 	bltu	r2,r4,4025560 <__clzsi2+0x4c>
 4025524:	00800804 	movi	r2,32
 4025528:	0007883a 	mov	r3,zero
 402552c:	00000506 	br	4025544 <__clzsi2+0x30>
 4025530:	00804034 	movhi	r2,256
 4025534:	10bfffc4 	addi	r2,r2,-1
 4025538:	11000c2e 	bgeu	r2,r4,402556c <__clzsi2+0x58>
 402553c:	00800204 	movi	r2,8
 4025540:	00c00604 	movi	r3,24
 4025544:	20c8d83a 	srl	r4,r4,r3
 4025548:	00c00034 	movhi	r3,0
 402554c:	18c00e04 	addi	r3,r3,56
 4025550:	1909883a 	add	r4,r3,r4
 4025554:	20c00003 	ldbu	r3,0(r4)
 4025558:	10c5c83a 	sub	r2,r2,r3
 402555c:	f800283a 	ret
 4025560:	00800604 	movi	r2,24
 4025564:	00c00204 	movi	r3,8
 4025568:	003ff606 	br	4025544 <__flash_rwdata_start+0xffff2c70>
 402556c:	00800404 	movi	r2,16
 4025570:	1007883a 	mov	r3,r2
 4025574:	003ff306 	br	4025544 <__flash_rwdata_start+0xffff2c70>

04025578 <__divsi3>:
 4025578:	20001b16 	blt	r4,zero,40255e8 <__divsi3+0x70>
 402557c:	000f883a 	mov	r7,zero
 4025580:	28001616 	blt	r5,zero,40255dc <__divsi3+0x64>
 4025584:	200d883a 	mov	r6,r4
 4025588:	29001a2e 	bgeu	r5,r4,40255f4 <__divsi3+0x7c>
 402558c:	00800804 	movi	r2,32
 4025590:	00c00044 	movi	r3,1
 4025594:	00000106 	br	402559c <__divsi3+0x24>
 4025598:	10000d26 	beq	r2,zero,40255d0 <__divsi3+0x58>
 402559c:	294b883a 	add	r5,r5,r5
 40255a0:	10bfffc4 	addi	r2,r2,-1
 40255a4:	18c7883a 	add	r3,r3,r3
 40255a8:	293ffb36 	bltu	r5,r4,4025598 <__flash_rwdata_start+0xffff2cc4>
 40255ac:	0005883a 	mov	r2,zero
 40255b0:	18000726 	beq	r3,zero,40255d0 <__divsi3+0x58>
 40255b4:	0005883a 	mov	r2,zero
 40255b8:	31400236 	bltu	r6,r5,40255c4 <__divsi3+0x4c>
 40255bc:	314dc83a 	sub	r6,r6,r5
 40255c0:	10c4b03a 	or	r2,r2,r3
 40255c4:	1806d07a 	srli	r3,r3,1
 40255c8:	280ad07a 	srli	r5,r5,1
 40255cc:	183ffa1e 	bne	r3,zero,40255b8 <__flash_rwdata_start+0xffff2ce4>
 40255d0:	38000126 	beq	r7,zero,40255d8 <__divsi3+0x60>
 40255d4:	0085c83a 	sub	r2,zero,r2
 40255d8:	f800283a 	ret
 40255dc:	014bc83a 	sub	r5,zero,r5
 40255e0:	39c0005c 	xori	r7,r7,1
 40255e4:	003fe706 	br	4025584 <__flash_rwdata_start+0xffff2cb0>
 40255e8:	0109c83a 	sub	r4,zero,r4
 40255ec:	01c00044 	movi	r7,1
 40255f0:	003fe306 	br	4025580 <__flash_rwdata_start+0xffff2cac>
 40255f4:	00c00044 	movi	r3,1
 40255f8:	003fee06 	br	40255b4 <__flash_rwdata_start+0xffff2ce0>

040255fc <__modsi3>:
 40255fc:	20001716 	blt	r4,zero,402565c <__modsi3+0x60>
 4025600:	000f883a 	mov	r7,zero
 4025604:	2005883a 	mov	r2,r4
 4025608:	28001216 	blt	r5,zero,4025654 <__modsi3+0x58>
 402560c:	2900162e 	bgeu	r5,r4,4025668 <__modsi3+0x6c>
 4025610:	01800804 	movi	r6,32
 4025614:	00c00044 	movi	r3,1
 4025618:	00000106 	br	4025620 <__modsi3+0x24>
 402561c:	30000a26 	beq	r6,zero,4025648 <__modsi3+0x4c>
 4025620:	294b883a 	add	r5,r5,r5
 4025624:	31bfffc4 	addi	r6,r6,-1
 4025628:	18c7883a 	add	r3,r3,r3
 402562c:	293ffb36 	bltu	r5,r4,402561c <__flash_rwdata_start+0xffff2d48>
 4025630:	18000526 	beq	r3,zero,4025648 <__modsi3+0x4c>
 4025634:	1806d07a 	srli	r3,r3,1
 4025638:	11400136 	bltu	r2,r5,4025640 <__modsi3+0x44>
 402563c:	1145c83a 	sub	r2,r2,r5
 4025640:	280ad07a 	srli	r5,r5,1
 4025644:	183ffb1e 	bne	r3,zero,4025634 <__flash_rwdata_start+0xffff2d60>
 4025648:	38000126 	beq	r7,zero,4025650 <__modsi3+0x54>
 402564c:	0085c83a 	sub	r2,zero,r2
 4025650:	f800283a 	ret
 4025654:	014bc83a 	sub	r5,zero,r5
 4025658:	003fec06 	br	402560c <__flash_rwdata_start+0xffff2d38>
 402565c:	0109c83a 	sub	r4,zero,r4
 4025660:	01c00044 	movi	r7,1
 4025664:	003fe706 	br	4025604 <__flash_rwdata_start+0xffff2d30>
 4025668:	00c00044 	movi	r3,1
 402566c:	003ff106 	br	4025634 <__flash_rwdata_start+0xffff2d60>

04025670 <__udivsi3>:
 4025670:	200d883a 	mov	r6,r4
 4025674:	2900152e 	bgeu	r5,r4,40256cc <__udivsi3+0x5c>
 4025678:	28001416 	blt	r5,zero,40256cc <__udivsi3+0x5c>
 402567c:	00800804 	movi	r2,32
 4025680:	00c00044 	movi	r3,1
 4025684:	00000206 	br	4025690 <__udivsi3+0x20>
 4025688:	10000e26 	beq	r2,zero,40256c4 <__udivsi3+0x54>
 402568c:	28000516 	blt	r5,zero,40256a4 <__udivsi3+0x34>
 4025690:	294b883a 	add	r5,r5,r5
 4025694:	10bfffc4 	addi	r2,r2,-1
 4025698:	18c7883a 	add	r3,r3,r3
 402569c:	293ffa36 	bltu	r5,r4,4025688 <__flash_rwdata_start+0xffff2db4>
 40256a0:	18000826 	beq	r3,zero,40256c4 <__udivsi3+0x54>
 40256a4:	0005883a 	mov	r2,zero
 40256a8:	31400236 	bltu	r6,r5,40256b4 <__udivsi3+0x44>
 40256ac:	314dc83a 	sub	r6,r6,r5
 40256b0:	10c4b03a 	or	r2,r2,r3
 40256b4:	1806d07a 	srli	r3,r3,1
 40256b8:	280ad07a 	srli	r5,r5,1
 40256bc:	183ffa1e 	bne	r3,zero,40256a8 <__flash_rwdata_start+0xffff2dd4>
 40256c0:	f800283a 	ret
 40256c4:	0005883a 	mov	r2,zero
 40256c8:	f800283a 	ret
 40256cc:	00c00044 	movi	r3,1
 40256d0:	003ff406 	br	40256a4 <__flash_rwdata_start+0xffff2dd0>

040256d4 <__umodsi3>:
 40256d4:	2005883a 	mov	r2,r4
 40256d8:	2900122e 	bgeu	r5,r4,4025724 <__umodsi3+0x50>
 40256dc:	28001116 	blt	r5,zero,4025724 <__umodsi3+0x50>
 40256e0:	01800804 	movi	r6,32
 40256e4:	00c00044 	movi	r3,1
 40256e8:	00000206 	br	40256f4 <__umodsi3+0x20>
 40256ec:	30000c26 	beq	r6,zero,4025720 <__umodsi3+0x4c>
 40256f0:	28000516 	blt	r5,zero,4025708 <__umodsi3+0x34>
 40256f4:	294b883a 	add	r5,r5,r5
 40256f8:	31bfffc4 	addi	r6,r6,-1
 40256fc:	18c7883a 	add	r3,r3,r3
 4025700:	293ffa36 	bltu	r5,r4,40256ec <__flash_rwdata_start+0xffff2e18>
 4025704:	18000626 	beq	r3,zero,4025720 <__umodsi3+0x4c>
 4025708:	1806d07a 	srli	r3,r3,1
 402570c:	11400136 	bltu	r2,r5,4025714 <__umodsi3+0x40>
 4025710:	1145c83a 	sub	r2,r2,r5
 4025714:	280ad07a 	srli	r5,r5,1
 4025718:	183ffb1e 	bne	r3,zero,4025708 <__flash_rwdata_start+0xffff2e34>
 402571c:	f800283a 	ret
 4025720:	f800283a 	ret
 4025724:	00c00044 	movi	r3,1
 4025728:	003ff706 	br	4025708 <__flash_rwdata_start+0xffff2e34>

0402572c <__mulsi3>:
 402572c:	0005883a 	mov	r2,zero
 4025730:	20000726 	beq	r4,zero,4025750 <__mulsi3+0x24>
 4025734:	20c0004c 	andi	r3,r4,1
 4025738:	2008d07a 	srli	r4,r4,1
 402573c:	18000126 	beq	r3,zero,4025744 <__mulsi3+0x18>
 4025740:	1145883a 	add	r2,r2,r5
 4025744:	294b883a 	add	r5,r5,r5
 4025748:	203ffa1e 	bne	r4,zero,4025734 <__flash_rwdata_start+0xffff2e60>
 402574c:	f800283a 	ret
 4025750:	f800283a 	ret

04025754 <__errno>:
 4025754:	00800034 	movhi	r2,0
 4025758:	10877804 	addi	r2,r2,7648
 402575c:	10800017 	ldw	r2,0(r2)
 4025760:	f800283a 	ret

04025764 <_printf_r>:
 4025764:	defffd04 	addi	sp,sp,-12
 4025768:	2805883a 	mov	r2,r5
 402576c:	dfc00015 	stw	ra,0(sp)
 4025770:	d9800115 	stw	r6,4(sp)
 4025774:	d9c00215 	stw	r7,8(sp)
 4025778:	21400217 	ldw	r5,8(r4)
 402577c:	d9c00104 	addi	r7,sp,4
 4025780:	100d883a 	mov	r6,r2
 4025784:	40257d00 	call	40257d0 <___vfprintf_internal_r>
 4025788:	dfc00017 	ldw	ra,0(sp)
 402578c:	dec00304 	addi	sp,sp,12
 4025790:	f800283a 	ret

04025794 <printf>:
 4025794:	defffc04 	addi	sp,sp,-16
 4025798:	dfc00015 	stw	ra,0(sp)
 402579c:	d9400115 	stw	r5,4(sp)
 40257a0:	d9800215 	stw	r6,8(sp)
 40257a4:	d9c00315 	stw	r7,12(sp)
 40257a8:	00800034 	movhi	r2,0
 40257ac:	10877804 	addi	r2,r2,7648
 40257b0:	10800017 	ldw	r2,0(r2)
 40257b4:	200b883a 	mov	r5,r4
 40257b8:	d9800104 	addi	r6,sp,4
 40257bc:	11000217 	ldw	r4,8(r2)
 40257c0:	4027aac0 	call	4027aac <__vfprintf_internal>
 40257c4:	dfc00017 	ldw	ra,0(sp)
 40257c8:	dec00404 	addi	sp,sp,16
 40257cc:	f800283a 	ret

040257d0 <___vfprintf_internal_r>:
 40257d0:	deffb804 	addi	sp,sp,-288
 40257d4:	dfc04715 	stw	ra,284(sp)
 40257d8:	ddc04515 	stw	r23,276(sp)
 40257dc:	dd404315 	stw	r21,268(sp)
 40257e0:	d9002d15 	stw	r4,180(sp)
 40257e4:	282f883a 	mov	r23,r5
 40257e8:	302b883a 	mov	r21,r6
 40257ec:	d9c02e15 	stw	r7,184(sp)
 40257f0:	df004615 	stw	fp,280(sp)
 40257f4:	dd804415 	stw	r22,272(sp)
 40257f8:	dd004215 	stw	r20,264(sp)
 40257fc:	dcc04115 	stw	r19,260(sp)
 4025800:	dc804015 	stw	r18,256(sp)
 4025804:	dc403f15 	stw	r17,252(sp)
 4025808:	dc003e15 	stw	r16,248(sp)
 402580c:	402a2480 	call	402a248 <_localeconv_r>
 4025810:	10800017 	ldw	r2,0(r2)
 4025814:	1009883a 	mov	r4,r2
 4025818:	d8803415 	stw	r2,208(sp)
 402581c:	402c32c0 	call	402c32c <strlen>
 4025820:	d8803715 	stw	r2,220(sp)
 4025824:	d8802d17 	ldw	r2,180(sp)
 4025828:	10000226 	beq	r2,zero,4025834 <___vfprintf_internal_r+0x64>
 402582c:	10800e17 	ldw	r2,56(r2)
 4025830:	1000fb26 	beq	r2,zero,4025c20 <___vfprintf_internal_r+0x450>
 4025834:	b880030b 	ldhu	r2,12(r23)
 4025838:	10c8000c 	andi	r3,r2,8192
 402583c:	1800061e 	bne	r3,zero,4025858 <___vfprintf_internal_r+0x88>
 4025840:	b9001917 	ldw	r4,100(r23)
 4025844:	00f7ffc4 	movi	r3,-8193
 4025848:	10880014 	ori	r2,r2,8192
 402584c:	20c6703a 	and	r3,r4,r3
 4025850:	b880030d 	sth	r2,12(r23)
 4025854:	b8c01915 	stw	r3,100(r23)
 4025858:	10c0020c 	andi	r3,r2,8
 402585c:	1800c326 	beq	r3,zero,4025b6c <___vfprintf_internal_r+0x39c>
 4025860:	b8c00417 	ldw	r3,16(r23)
 4025864:	1800c126 	beq	r3,zero,4025b6c <___vfprintf_internal_r+0x39c>
 4025868:	1080068c 	andi	r2,r2,26
 402586c:	00c00284 	movi	r3,10
 4025870:	10c0c626 	beq	r2,r3,4025b8c <___vfprintf_internal_r+0x3bc>
 4025874:	d8c00404 	addi	r3,sp,16
 4025878:	05000034 	movhi	r20,0
 402587c:	d9001e04 	addi	r4,sp,120
 4025880:	a5005f84 	addi	r20,r20,382
 4025884:	d8c01e15 	stw	r3,120(sp)
 4025888:	d8002015 	stw	zero,128(sp)
 402588c:	d8001f15 	stw	zero,124(sp)
 4025890:	d8003315 	stw	zero,204(sp)
 4025894:	d8003615 	stw	zero,216(sp)
 4025898:	d8003815 	stw	zero,224(sp)
 402589c:	1811883a 	mov	r8,r3
 40258a0:	d8003915 	stw	zero,228(sp)
 40258a4:	d8003a15 	stw	zero,232(sp)
 40258a8:	d8002f15 	stw	zero,188(sp)
 40258ac:	d9002815 	stw	r4,160(sp)
 40258b0:	a8800007 	ldb	r2,0(r21)
 40258b4:	10028b26 	beq	r2,zero,40262e4 <___vfprintf_internal_r+0xb14>
 40258b8:	00c00944 	movi	r3,37
 40258bc:	a823883a 	mov	r17,r21
 40258c0:	10c0021e 	bne	r2,r3,40258cc <___vfprintf_internal_r+0xfc>
 40258c4:	00001406 	br	4025918 <___vfprintf_internal_r+0x148>
 40258c8:	10c00326 	beq	r2,r3,40258d8 <___vfprintf_internal_r+0x108>
 40258cc:	8c400044 	addi	r17,r17,1
 40258d0:	88800007 	ldb	r2,0(r17)
 40258d4:	103ffc1e 	bne	r2,zero,40258c8 <__flash_rwdata_start+0xffff2ff4>
 40258d8:	8d61c83a 	sub	r16,r17,r21
 40258dc:	80000e26 	beq	r16,zero,4025918 <___vfprintf_internal_r+0x148>
 40258e0:	d8c02017 	ldw	r3,128(sp)
 40258e4:	d8801f17 	ldw	r2,124(sp)
 40258e8:	45400015 	stw	r21,0(r8)
 40258ec:	1c07883a 	add	r3,r3,r16
 40258f0:	10800044 	addi	r2,r2,1
 40258f4:	d8c02015 	stw	r3,128(sp)
 40258f8:	44000115 	stw	r16,4(r8)
 40258fc:	d8801f15 	stw	r2,124(sp)
 4025900:	00c001c4 	movi	r3,7
 4025904:	1880a916 	blt	r3,r2,4025bac <___vfprintf_internal_r+0x3dc>
 4025908:	42000204 	addi	r8,r8,8
 402590c:	d9402f17 	ldw	r5,188(sp)
 4025910:	2c0b883a 	add	r5,r5,r16
 4025914:	d9402f15 	stw	r5,188(sp)
 4025918:	88800007 	ldb	r2,0(r17)
 402591c:	1000aa26 	beq	r2,zero,4025bc8 <___vfprintf_internal_r+0x3f8>
 4025920:	8d400044 	addi	r21,r17,1
 4025924:	8c400047 	ldb	r17,1(r17)
 4025928:	0021883a 	mov	r16,zero
 402592c:	00bfffc4 	movi	r2,-1
 4025930:	0025883a 	mov	r18,zero
 4025934:	dc002905 	stb	r16,164(sp)
 4025938:	d8002785 	stb	zero,158(sp)
 402593c:	d8002b05 	stb	zero,172(sp)
 4025940:	d8802a15 	stw	r2,168(sp)
 4025944:	d8003115 	stw	zero,196(sp)
 4025948:	04c01604 	movi	r19,88
 402594c:	05800244 	movi	r22,9
 4025950:	9021883a 	mov	r16,r18
 4025954:	4039883a 	mov	fp,r8
 4025958:	ad400044 	addi	r21,r21,1
 402595c:	88bff804 	addi	r2,r17,-32
 4025960:	98833236 	bltu	r19,r2,402662c <___vfprintf_internal_r+0xe5c>
 4025964:	100490ba 	slli	r2,r2,2
 4025968:	00c100b4 	movhi	r3,1026
 402596c:	18d65f04 	addi	r3,r3,22908
 4025970:	10c5883a 	add	r2,r2,r3
 4025974:	10800017 	ldw	r2,0(r2)
 4025978:	1000683a 	jmp	r2
 402597c:	04026524 	muli	r16,zero,2452
 4025980:	0402662c 	andhi	r16,zero,2456
 4025984:	0402662c 	andhi	r16,zero,2456
 4025988:	04026544 	movi	r16,2453
 402598c:	0402662c 	andhi	r16,zero,2456
 4025990:	0402662c 	andhi	r16,zero,2456
 4025994:	0402662c 	andhi	r16,zero,2456
 4025998:	0402662c 	andhi	r16,zero,2456
 402599c:	0402662c 	andhi	r16,zero,2456
 40259a0:	0402662c 	andhi	r16,zero,2456
 40259a4:	04025c2c 	andhi	r16,zero,2416
 40259a8:	04026434 	movhi	r16,2448
 40259ac:	0402662c 	andhi	r16,zero,2456
 40259b0:	04025af0 	cmpltui	r16,zero,2411
 40259b4:	04025c50 	cmplti	r16,zero,2417
 40259b8:	0402662c 	andhi	r16,zero,2456
 40259bc:	04025ca0 	cmpeqi	r16,zero,2418
 40259c0:	04025cac 	andhi	r16,zero,2418
 40259c4:	04025cac 	andhi	r16,zero,2418
 40259c8:	04025cac 	andhi	r16,zero,2418
 40259cc:	04025cac 	andhi	r16,zero,2418
 40259d0:	04025cac 	andhi	r16,zero,2418
 40259d4:	04025cac 	andhi	r16,zero,2418
 40259d8:	04025cac 	andhi	r16,zero,2418
 40259dc:	04025cac 	andhi	r16,zero,2418
 40259e0:	04025cac 	andhi	r16,zero,2418
 40259e4:	0402662c 	andhi	r16,zero,2456
 40259e8:	0402662c 	andhi	r16,zero,2456
 40259ec:	0402662c 	andhi	r16,zero,2456
 40259f0:	0402662c 	andhi	r16,zero,2456
 40259f4:	0402662c 	andhi	r16,zero,2456
 40259f8:	0402662c 	andhi	r16,zero,2456
 40259fc:	0402662c 	andhi	r16,zero,2456
 4025a00:	0402662c 	andhi	r16,zero,2456
 4025a04:	0402662c 	andhi	r16,zero,2456
 4025a08:	0402662c 	andhi	r16,zero,2456
 4025a0c:	04025ce8 	cmpgeui	r16,zero,2419
 4025a10:	04025db0 	cmpltui	r16,zero,2422
 4025a14:	0402662c 	andhi	r16,zero,2456
 4025a18:	04025db0 	cmpltui	r16,zero,2422
 4025a1c:	0402662c 	andhi	r16,zero,2456
 4025a20:	0402662c 	andhi	r16,zero,2456
 4025a24:	0402662c 	andhi	r16,zero,2456
 4025a28:	0402662c 	andhi	r16,zero,2456
 4025a2c:	04025e5c 	xori	r16,zero,2425
 4025a30:	0402662c 	andhi	r16,zero,2456
 4025a34:	0402662c 	andhi	r16,zero,2456
 4025a38:	04025e68 	cmpgeui	r16,zero,2425
 4025a3c:	0402662c 	andhi	r16,zero,2456
 4025a40:	0402662c 	andhi	r16,zero,2456
 4025a44:	0402662c 	andhi	r16,zero,2456
 4025a48:	0402662c 	andhi	r16,zero,2456
 4025a4c:	0402662c 	andhi	r16,zero,2456
 4025a50:	040262ec 	andhi	r16,zero,2443
 4025a54:	0402662c 	andhi	r16,zero,2456
 4025a58:	0402662c 	andhi	r16,zero,2456
 4025a5c:	04026358 	cmpnei	r16,zero,2445
 4025a60:	0402662c 	andhi	r16,zero,2456
 4025a64:	0402662c 	andhi	r16,zero,2456
 4025a68:	0402662c 	andhi	r16,zero,2456
 4025a6c:	0402662c 	andhi	r16,zero,2456
 4025a70:	0402662c 	andhi	r16,zero,2456
 4025a74:	0402662c 	andhi	r16,zero,2456
 4025a78:	0402662c 	andhi	r16,zero,2456
 4025a7c:	0402662c 	andhi	r16,zero,2456
 4025a80:	0402662c 	andhi	r16,zero,2456
 4025a84:	0402662c 	andhi	r16,zero,2456
 4025a88:	040265d0 	cmplti	r16,zero,2455
 4025a8c:	04026550 	cmplti	r16,zero,2453
 4025a90:	04025db0 	cmpltui	r16,zero,2422
 4025a94:	04025db0 	cmpltui	r16,zero,2422
 4025a98:	04025db0 	cmpltui	r16,zero,2422
 4025a9c:	04026570 	cmpltui	r16,zero,2453
 4025aa0:	04026550 	cmplti	r16,zero,2453
 4025aa4:	0402662c 	andhi	r16,zero,2456
 4025aa8:	0402662c 	andhi	r16,zero,2456
 4025aac:	0402657c 	xorhi	r16,zero,2453
 4025ab0:	0402662c 	andhi	r16,zero,2456
 4025ab4:	04026590 	cmplti	r16,zero,2454
 4025ab8:	04026414 	movui	r16,2448
 4025abc:	04025afc 	xorhi	r16,zero,2411
 4025ac0:	0402644c 	andi	r16,zero,2449
 4025ac4:	0402662c 	andhi	r16,zero,2456
 4025ac8:	04026458 	cmpnei	r16,zero,2449
 4025acc:	0402662c 	andhi	r16,zero,2456
 4025ad0:	040264bc 	xorhi	r16,zero,2450
 4025ad4:	0402662c 	andhi	r16,zero,2456
 4025ad8:	0402662c 	andhi	r16,zero,2456
 4025adc:	040264dc 	xori	r16,zero,2451
 4025ae0:	d8c03117 	ldw	r3,196(sp)
 4025ae4:	d8802e15 	stw	r2,184(sp)
 4025ae8:	00c7c83a 	sub	r3,zero,r3
 4025aec:	d8c03115 	stw	r3,196(sp)
 4025af0:	84000114 	ori	r16,r16,4
 4025af4:	ac400007 	ldb	r17,0(r21)
 4025af8:	003f9706 	br	4025958 <__flash_rwdata_start+0xffff3084>
 4025afc:	00800c04 	movi	r2,48
 4025b00:	d8802705 	stb	r2,156(sp)
 4025b04:	00801e04 	movi	r2,120
 4025b08:	d8802745 	stb	r2,157(sp)
 4025b0c:	d9002a17 	ldw	r4,168(sp)
 4025b10:	d8802e17 	ldw	r2,184(sp)
 4025b14:	d8002785 	stb	zero,158(sp)
 4025b18:	e011883a 	mov	r8,fp
 4025b1c:	10c00104 	addi	r3,r2,4
 4025b20:	14c00017 	ldw	r19,0(r2)
 4025b24:	002d883a 	mov	r22,zero
 4025b28:	80800094 	ori	r2,r16,2
 4025b2c:	2002ca16 	blt	r4,zero,4026658 <___vfprintf_internal_r+0xe88>
 4025b30:	00bfdfc4 	movi	r2,-129
 4025b34:	80a4703a 	and	r18,r16,r2
 4025b38:	d8c02e15 	stw	r3,184(sp)
 4025b3c:	94800094 	ori	r18,r18,2
 4025b40:	9802b41e 	bne	r19,zero,4026614 <___vfprintf_internal_r+0xe44>
 4025b44:	01400034 	movhi	r5,0
 4025b48:	29405804 	addi	r5,r5,352
 4025b4c:	d9403915 	stw	r5,228(sp)
 4025b50:	04401e04 	movi	r17,120
 4025b54:	d8802a17 	ldw	r2,168(sp)
 4025b58:	0039883a 	mov	fp,zero
 4025b5c:	1001fa26 	beq	r2,zero,4026348 <___vfprintf_internal_r+0xb78>
 4025b60:	0027883a 	mov	r19,zero
 4025b64:	002d883a 	mov	r22,zero
 4025b68:	00021906 	br	40263d0 <___vfprintf_internal_r+0xc00>
 4025b6c:	d9002d17 	ldw	r4,180(sp)
 4025b70:	b80b883a 	mov	r5,r23
 4025b74:	4027b840 	call	4027b84 <__swsetup_r>
 4025b78:	1005dc1e 	bne	r2,zero,40272ec <___vfprintf_internal_r+0x1b1c>
 4025b7c:	b880030b 	ldhu	r2,12(r23)
 4025b80:	00c00284 	movi	r3,10
 4025b84:	1080068c 	andi	r2,r2,26
 4025b88:	10ff3a1e 	bne	r2,r3,4025874 <__flash_rwdata_start+0xffff2fa0>
 4025b8c:	b880038f 	ldh	r2,14(r23)
 4025b90:	103f3816 	blt	r2,zero,4025874 <__flash_rwdata_start+0xffff2fa0>
 4025b94:	d9c02e17 	ldw	r7,184(sp)
 4025b98:	d9002d17 	ldw	r4,180(sp)
 4025b9c:	a80d883a 	mov	r6,r21
 4025ba0:	b80b883a 	mov	r5,r23
 4025ba4:	4027ac80 	call	4027ac8 <__sbprintf>
 4025ba8:	00001106 	br	4025bf0 <___vfprintf_internal_r+0x420>
 4025bac:	d9002d17 	ldw	r4,180(sp)
 4025bb0:	d9801e04 	addi	r6,sp,120
 4025bb4:	b80b883a 	mov	r5,r23
 4025bb8:	402c4c00 	call	402c4c0 <__sprint_r>
 4025bbc:	1000081e 	bne	r2,zero,4025be0 <___vfprintf_internal_r+0x410>
 4025bc0:	da000404 	addi	r8,sp,16
 4025bc4:	003f5106 	br	402590c <__flash_rwdata_start+0xffff3038>
 4025bc8:	d8802017 	ldw	r2,128(sp)
 4025bcc:	10000426 	beq	r2,zero,4025be0 <___vfprintf_internal_r+0x410>
 4025bd0:	d9002d17 	ldw	r4,180(sp)
 4025bd4:	d9801e04 	addi	r6,sp,120
 4025bd8:	b80b883a 	mov	r5,r23
 4025bdc:	402c4c00 	call	402c4c0 <__sprint_r>
 4025be0:	b880030b 	ldhu	r2,12(r23)
 4025be4:	1080100c 	andi	r2,r2,64
 4025be8:	1005c01e 	bne	r2,zero,40272ec <___vfprintf_internal_r+0x1b1c>
 4025bec:	d8802f17 	ldw	r2,188(sp)
 4025bf0:	dfc04717 	ldw	ra,284(sp)
 4025bf4:	df004617 	ldw	fp,280(sp)
 4025bf8:	ddc04517 	ldw	r23,276(sp)
 4025bfc:	dd804417 	ldw	r22,272(sp)
 4025c00:	dd404317 	ldw	r21,268(sp)
 4025c04:	dd004217 	ldw	r20,264(sp)
 4025c08:	dcc04117 	ldw	r19,260(sp)
 4025c0c:	dc804017 	ldw	r18,256(sp)
 4025c10:	dc403f17 	ldw	r17,252(sp)
 4025c14:	dc003e17 	ldw	r16,248(sp)
 4025c18:	dec04804 	addi	sp,sp,288
 4025c1c:	f800283a 	ret
 4025c20:	d9002d17 	ldw	r4,180(sp)
 4025c24:	4029b900 	call	4029b90 <__sinit>
 4025c28:	003f0206 	br	4025834 <__flash_rwdata_start+0xffff2f60>
 4025c2c:	d9002e17 	ldw	r4,184(sp)
 4025c30:	d9402e17 	ldw	r5,184(sp)
 4025c34:	21000017 	ldw	r4,0(r4)
 4025c38:	28800104 	addi	r2,r5,4
 4025c3c:	d9003115 	stw	r4,196(sp)
 4025c40:	203fa716 	blt	r4,zero,4025ae0 <__flash_rwdata_start+0xffff320c>
 4025c44:	d8802e15 	stw	r2,184(sp)
 4025c48:	ac400007 	ldb	r17,0(r21)
 4025c4c:	003f4206 	br	4025958 <__flash_rwdata_start+0xffff3084>
 4025c50:	ac400007 	ldb	r17,0(r21)
 4025c54:	01000a84 	movi	r4,42
 4025c58:	a8c00044 	addi	r3,r21,1
 4025c5c:	89075826 	beq	r17,r4,40279c0 <___vfprintf_internal_r+0x21f0>
 4025c60:	8cbff404 	addi	r18,r17,-48
 4025c64:	b486ae36 	bltu	r22,r18,4027720 <___vfprintf_internal_r+0x1f50>
 4025c68:	0009883a 	mov	r4,zero
 4025c6c:	1823883a 	mov	r17,r3
 4025c70:	01400284 	movi	r5,10
 4025c74:	402572c0 	call	402572c <__mulsi3>
 4025c78:	88c00007 	ldb	r3,0(r17)
 4025c7c:	1489883a 	add	r4,r2,r18
 4025c80:	8d400044 	addi	r21,r17,1
 4025c84:	1cbff404 	addi	r18,r3,-48
 4025c88:	a823883a 	mov	r17,r21
 4025c8c:	b4bff82e 	bgeu	r22,r18,4025c70 <__flash_rwdata_start+0xffff339c>
 4025c90:	1823883a 	mov	r17,r3
 4025c94:	2005f616 	blt	r4,zero,4027470 <___vfprintf_internal_r+0x1ca0>
 4025c98:	d9002a15 	stw	r4,168(sp)
 4025c9c:	003f2f06 	br	402595c <__flash_rwdata_start+0xffff3088>
 4025ca0:	84002014 	ori	r16,r16,128
 4025ca4:	ac400007 	ldb	r17,0(r21)
 4025ca8:	003f2b06 	br	4025958 <__flash_rwdata_start+0xffff3084>
 4025cac:	8cbff404 	addi	r18,r17,-48
 4025cb0:	d8003115 	stw	zero,196(sp)
 4025cb4:	0009883a 	mov	r4,zero
 4025cb8:	a823883a 	mov	r17,r21
 4025cbc:	01400284 	movi	r5,10
 4025cc0:	402572c0 	call	402572c <__mulsi3>
 4025cc4:	88c00007 	ldb	r3,0(r17)
 4025cc8:	9089883a 	add	r4,r18,r2
 4025ccc:	ad400044 	addi	r21,r21,1
 4025cd0:	1cbff404 	addi	r18,r3,-48
 4025cd4:	a823883a 	mov	r17,r21
 4025cd8:	b4bff82e 	bgeu	r22,r18,4025cbc <__flash_rwdata_start+0xffff33e8>
 4025cdc:	1823883a 	mov	r17,r3
 4025ce0:	d9003115 	stw	r4,196(sp)
 4025ce4:	003f1d06 	br	402595c <__flash_rwdata_start+0xffff3088>
 4025ce8:	8025883a 	mov	r18,r16
 4025cec:	dc002903 	ldbu	r16,164(sp)
 4025cf0:	e011883a 	mov	r8,fp
 4025cf4:	84003fcc 	andi	r16,r16,255
 4025cf8:	8007531e 	bne	r16,zero,4027a48 <___vfprintf_internal_r+0x2278>
 4025cfc:	94800414 	ori	r18,r18,16
 4025d00:	9080080c 	andi	r2,r18,32
 4025d04:	1003a326 	beq	r2,zero,4026b94 <___vfprintf_internal_r+0x13c4>
 4025d08:	d9002e17 	ldw	r4,184(sp)
 4025d0c:	20800117 	ldw	r2,4(r4)
 4025d10:	24c00017 	ldw	r19,0(r4)
 4025d14:	21000204 	addi	r4,r4,8
 4025d18:	d9002e15 	stw	r4,184(sp)
 4025d1c:	102d883a 	mov	r22,r2
 4025d20:	10047316 	blt	r2,zero,4026ef0 <___vfprintf_internal_r+0x1720>
 4025d24:	d9002a17 	ldw	r4,168(sp)
 4025d28:	df002783 	ldbu	fp,158(sp)
 4025d2c:	2003e416 	blt	r4,zero,4026cc0 <___vfprintf_internal_r+0x14f0>
 4025d30:	00ffdfc4 	movi	r3,-129
 4025d34:	9d84b03a 	or	r2,r19,r22
 4025d38:	90e4703a 	and	r18,r18,r3
 4025d3c:	10018026 	beq	r2,zero,4026340 <___vfprintf_internal_r+0xb70>
 4025d40:	b003ab26 	beq	r22,zero,4026bf0 <___vfprintf_internal_r+0x1420>
 4025d44:	dc402915 	stw	r17,164(sp)
 4025d48:	dc001e04 	addi	r16,sp,120
 4025d4c:	b023883a 	mov	r17,r22
 4025d50:	402d883a 	mov	r22,r8
 4025d54:	9809883a 	mov	r4,r19
 4025d58:	880b883a 	mov	r5,r17
 4025d5c:	01800284 	movi	r6,10
 4025d60:	000f883a 	mov	r7,zero
 4025d64:	402f58c0 	call	402f58c <__umoddi3>
 4025d68:	10800c04 	addi	r2,r2,48
 4025d6c:	843fffc4 	addi	r16,r16,-1
 4025d70:	9809883a 	mov	r4,r19
 4025d74:	880b883a 	mov	r5,r17
 4025d78:	80800005 	stb	r2,0(r16)
 4025d7c:	01800284 	movi	r6,10
 4025d80:	000f883a 	mov	r7,zero
 4025d84:	402ef900 	call	402ef90 <__udivdi3>
 4025d88:	1027883a 	mov	r19,r2
 4025d8c:	10c4b03a 	or	r2,r2,r3
 4025d90:	1823883a 	mov	r17,r3
 4025d94:	103fef1e 	bne	r2,zero,4025d54 <__flash_rwdata_start+0xffff3480>
 4025d98:	d8c02817 	ldw	r3,160(sp)
 4025d9c:	dc402917 	ldw	r17,164(sp)
 4025da0:	b011883a 	mov	r8,r22
 4025da4:	1c07c83a 	sub	r3,r3,r16
 4025da8:	d8c02b15 	stw	r3,172(sp)
 4025dac:	00005f06 	br	4025f2c <___vfprintf_internal_r+0x75c>
 4025db0:	8025883a 	mov	r18,r16
 4025db4:	dc002903 	ldbu	r16,164(sp)
 4025db8:	e011883a 	mov	r8,fp
 4025dbc:	84003fcc 	andi	r16,r16,255
 4025dc0:	80071e1e 	bne	r16,zero,4027a3c <___vfprintf_internal_r+0x226c>
 4025dc4:	9080020c 	andi	r2,r18,8
 4025dc8:	1004af26 	beq	r2,zero,4027088 <___vfprintf_internal_r+0x18b8>
 4025dcc:	d9002e17 	ldw	r4,184(sp)
 4025dd0:	d9402e17 	ldw	r5,184(sp)
 4025dd4:	d8802e17 	ldw	r2,184(sp)
 4025dd8:	21000017 	ldw	r4,0(r4)
 4025ddc:	29400117 	ldw	r5,4(r5)
 4025de0:	10800204 	addi	r2,r2,8
 4025de4:	d9003615 	stw	r4,216(sp)
 4025de8:	d9403815 	stw	r5,224(sp)
 4025dec:	d8802e15 	stw	r2,184(sp)
 4025df0:	d9003617 	ldw	r4,216(sp)
 4025df4:	d9403817 	ldw	r5,224(sp)
 4025df8:	da003d15 	stw	r8,244(sp)
 4025dfc:	04000044 	movi	r16,1
 4025e00:	402c04c0 	call	402c04c <__fpclassifyd>
 4025e04:	da003d17 	ldw	r8,244(sp)
 4025e08:	1404441e 	bne	r2,r16,4026f1c <___vfprintf_internal_r+0x174c>
 4025e0c:	d9003617 	ldw	r4,216(sp)
 4025e10:	d9403817 	ldw	r5,224(sp)
 4025e14:	000d883a 	mov	r6,zero
 4025e18:	000f883a 	mov	r7,zero
 4025e1c:	4023ea40 	call	4023ea4 <__ledf2>
 4025e20:	da003d17 	ldw	r8,244(sp)
 4025e24:	1005e316 	blt	r2,zero,40275b4 <___vfprintf_internal_r+0x1de4>
 4025e28:	df002783 	ldbu	fp,158(sp)
 4025e2c:	008011c4 	movi	r2,71
 4025e30:	1445580e 	bge	r2,r17,4027394 <___vfprintf_internal_r+0x1bc4>
 4025e34:	04000034 	movhi	r16,0
 4025e38:	84005004 	addi	r16,r16,320
 4025e3c:	00c000c4 	movi	r3,3
 4025e40:	00bfdfc4 	movi	r2,-129
 4025e44:	d8c02915 	stw	r3,164(sp)
 4025e48:	90a4703a 	and	r18,r18,r2
 4025e4c:	d8c02b15 	stw	r3,172(sp)
 4025e50:	d8002a15 	stw	zero,168(sp)
 4025e54:	d8003215 	stw	zero,200(sp)
 4025e58:	00003a06 	br	4025f44 <___vfprintf_internal_r+0x774>
 4025e5c:	84000214 	ori	r16,r16,8
 4025e60:	ac400007 	ldb	r17,0(r21)
 4025e64:	003ebc06 	br	4025958 <__flash_rwdata_start+0xffff3084>
 4025e68:	8025883a 	mov	r18,r16
 4025e6c:	dc002903 	ldbu	r16,164(sp)
 4025e70:	e011883a 	mov	r8,fp
 4025e74:	84003fcc 	andi	r16,r16,255
 4025e78:	8007001e 	bne	r16,zero,4027a7c <___vfprintf_internal_r+0x22ac>
 4025e7c:	94800414 	ori	r18,r18,16
 4025e80:	9080080c 	andi	r2,r18,32
 4025e84:	1002fa26 	beq	r2,zero,4026a70 <___vfprintf_internal_r+0x12a0>
 4025e88:	d9002e17 	ldw	r4,184(sp)
 4025e8c:	d9402a17 	ldw	r5,168(sp)
 4025e90:	d8002785 	stb	zero,158(sp)
 4025e94:	20800204 	addi	r2,r4,8
 4025e98:	24c00017 	ldw	r19,0(r4)
 4025e9c:	25800117 	ldw	r22,4(r4)
 4025ea0:	2804b116 	blt	r5,zero,4027168 <___vfprintf_internal_r+0x1998>
 4025ea4:	013fdfc4 	movi	r4,-129
 4025ea8:	9d86b03a 	or	r3,r19,r22
 4025eac:	d8802e15 	stw	r2,184(sp)
 4025eb0:	9124703a 	and	r18,r18,r4
 4025eb4:	1802fb1e 	bne	r3,zero,4026aa4 <___vfprintf_internal_r+0x12d4>
 4025eb8:	d8c02a17 	ldw	r3,168(sp)
 4025ebc:	0039883a 	mov	fp,zero
 4025ec0:	1805e526 	beq	r3,zero,4027658 <___vfprintf_internal_r+0x1e88>
 4025ec4:	0027883a 	mov	r19,zero
 4025ec8:	002d883a 	mov	r22,zero
 4025ecc:	dc001e04 	addi	r16,sp,120
 4025ed0:	9806d0fa 	srli	r3,r19,3
 4025ed4:	b008977a 	slli	r4,r22,29
 4025ed8:	b02cd0fa 	srli	r22,r22,3
 4025edc:	9cc001cc 	andi	r19,r19,7
 4025ee0:	98800c04 	addi	r2,r19,48
 4025ee4:	843fffc4 	addi	r16,r16,-1
 4025ee8:	20e6b03a 	or	r19,r4,r3
 4025eec:	80800005 	stb	r2,0(r16)
 4025ef0:	9d86b03a 	or	r3,r19,r22
 4025ef4:	183ff61e 	bne	r3,zero,4025ed0 <__flash_rwdata_start+0xffff35fc>
 4025ef8:	90c0004c 	andi	r3,r18,1
 4025efc:	18014126 	beq	r3,zero,4026404 <___vfprintf_internal_r+0xc34>
 4025f00:	10803fcc 	andi	r2,r2,255
 4025f04:	1080201c 	xori	r2,r2,128
 4025f08:	10bfe004 	addi	r2,r2,-128
 4025f0c:	00c00c04 	movi	r3,48
 4025f10:	10c13c26 	beq	r2,r3,4026404 <___vfprintf_internal_r+0xc34>
 4025f14:	80ffffc5 	stb	r3,-1(r16)
 4025f18:	d8c02817 	ldw	r3,160(sp)
 4025f1c:	80bfffc4 	addi	r2,r16,-1
 4025f20:	1021883a 	mov	r16,r2
 4025f24:	1887c83a 	sub	r3,r3,r2
 4025f28:	d8c02b15 	stw	r3,172(sp)
 4025f2c:	d8802b17 	ldw	r2,172(sp)
 4025f30:	d9002a17 	ldw	r4,168(sp)
 4025f34:	1100010e 	bge	r2,r4,4025f3c <___vfprintf_internal_r+0x76c>
 4025f38:	2005883a 	mov	r2,r4
 4025f3c:	d8802915 	stw	r2,164(sp)
 4025f40:	d8003215 	stw	zero,200(sp)
 4025f44:	e7003fcc 	andi	fp,fp,255
 4025f48:	e700201c 	xori	fp,fp,128
 4025f4c:	e73fe004 	addi	fp,fp,-128
 4025f50:	e0000326 	beq	fp,zero,4025f60 <___vfprintf_internal_r+0x790>
 4025f54:	d8c02917 	ldw	r3,164(sp)
 4025f58:	18c00044 	addi	r3,r3,1
 4025f5c:	d8c02915 	stw	r3,164(sp)
 4025f60:	90c0008c 	andi	r3,r18,2
 4025f64:	d8c02c15 	stw	r3,176(sp)
 4025f68:	18000326 	beq	r3,zero,4025f78 <___vfprintf_internal_r+0x7a8>
 4025f6c:	d8c02917 	ldw	r3,164(sp)
 4025f70:	18c00084 	addi	r3,r3,2
 4025f74:	d8c02915 	stw	r3,164(sp)
 4025f78:	90c0210c 	andi	r3,r18,132
 4025f7c:	d8c03015 	stw	r3,192(sp)
 4025f80:	1801c51e 	bne	r3,zero,4026698 <___vfprintf_internal_r+0xec8>
 4025f84:	d9003117 	ldw	r4,196(sp)
 4025f88:	d8c02917 	ldw	r3,164(sp)
 4025f8c:	20e7c83a 	sub	r19,r4,r3
 4025f90:	04c1c10e 	bge	zero,r19,4026698 <___vfprintf_internal_r+0xec8>
 4025f94:	02400404 	movi	r9,16
 4025f98:	d8c02017 	ldw	r3,128(sp)
 4025f9c:	d8801f17 	ldw	r2,124(sp)
 4025fa0:	4cc52f0e 	bge	r9,r19,4027460 <___vfprintf_internal_r+0x1c90>
 4025fa4:	01400034 	movhi	r5,0
 4025fa8:	29406384 	addi	r5,r5,398
 4025fac:	dc403b15 	stw	r17,236(sp)
 4025fb0:	d9403515 	stw	r5,212(sp)
 4025fb4:	9823883a 	mov	r17,r19
 4025fb8:	482d883a 	mov	r22,r9
 4025fbc:	9027883a 	mov	r19,r18
 4025fc0:	070001c4 	movi	fp,7
 4025fc4:	8025883a 	mov	r18,r16
 4025fc8:	dc002d17 	ldw	r16,180(sp)
 4025fcc:	00000306 	br	4025fdc <___vfprintf_internal_r+0x80c>
 4025fd0:	8c7ffc04 	addi	r17,r17,-16
 4025fd4:	42000204 	addi	r8,r8,8
 4025fd8:	b440130e 	bge	r22,r17,4026028 <___vfprintf_internal_r+0x858>
 4025fdc:	01000034 	movhi	r4,0
 4025fe0:	18c00404 	addi	r3,r3,16
 4025fe4:	10800044 	addi	r2,r2,1
 4025fe8:	21006384 	addi	r4,r4,398
 4025fec:	41000015 	stw	r4,0(r8)
 4025ff0:	45800115 	stw	r22,4(r8)
 4025ff4:	d8c02015 	stw	r3,128(sp)
 4025ff8:	d8801f15 	stw	r2,124(sp)
 4025ffc:	e0bff40e 	bge	fp,r2,4025fd0 <__flash_rwdata_start+0xffff36fc>
 4026000:	d9801e04 	addi	r6,sp,120
 4026004:	b80b883a 	mov	r5,r23
 4026008:	8009883a 	mov	r4,r16
 402600c:	402c4c00 	call	402c4c0 <__sprint_r>
 4026010:	103ef31e 	bne	r2,zero,4025be0 <__flash_rwdata_start+0xffff330c>
 4026014:	8c7ffc04 	addi	r17,r17,-16
 4026018:	d8c02017 	ldw	r3,128(sp)
 402601c:	d8801f17 	ldw	r2,124(sp)
 4026020:	da000404 	addi	r8,sp,16
 4026024:	b47fed16 	blt	r22,r17,4025fdc <__flash_rwdata_start+0xffff3708>
 4026028:	9021883a 	mov	r16,r18
 402602c:	9825883a 	mov	r18,r19
 4026030:	8827883a 	mov	r19,r17
 4026034:	dc403b17 	ldw	r17,236(sp)
 4026038:	d9403517 	ldw	r5,212(sp)
 402603c:	98c7883a 	add	r3,r19,r3
 4026040:	10800044 	addi	r2,r2,1
 4026044:	41400015 	stw	r5,0(r8)
 4026048:	44c00115 	stw	r19,4(r8)
 402604c:	d8c02015 	stw	r3,128(sp)
 4026050:	d8801f15 	stw	r2,124(sp)
 4026054:	010001c4 	movi	r4,7
 4026058:	2082c516 	blt	r4,r2,4026b70 <___vfprintf_internal_r+0x13a0>
 402605c:	df002787 	ldb	fp,158(sp)
 4026060:	42000204 	addi	r8,r8,8
 4026064:	e0000c26 	beq	fp,zero,4026098 <___vfprintf_internal_r+0x8c8>
 4026068:	d8801f17 	ldw	r2,124(sp)
 402606c:	d9002784 	addi	r4,sp,158
 4026070:	18c00044 	addi	r3,r3,1
 4026074:	10800044 	addi	r2,r2,1
 4026078:	41000015 	stw	r4,0(r8)
 402607c:	01000044 	movi	r4,1
 4026080:	41000115 	stw	r4,4(r8)
 4026084:	d8c02015 	stw	r3,128(sp)
 4026088:	d8801f15 	stw	r2,124(sp)
 402608c:	010001c4 	movi	r4,7
 4026090:	20825e16 	blt	r4,r2,4026a0c <___vfprintf_internal_r+0x123c>
 4026094:	42000204 	addi	r8,r8,8
 4026098:	d8802c17 	ldw	r2,176(sp)
 402609c:	10000c26 	beq	r2,zero,40260d0 <___vfprintf_internal_r+0x900>
 40260a0:	d8801f17 	ldw	r2,124(sp)
 40260a4:	d9002704 	addi	r4,sp,156
 40260a8:	18c00084 	addi	r3,r3,2
 40260ac:	10800044 	addi	r2,r2,1
 40260b0:	41000015 	stw	r4,0(r8)
 40260b4:	01000084 	movi	r4,2
 40260b8:	41000115 	stw	r4,4(r8)
 40260bc:	d8c02015 	stw	r3,128(sp)
 40260c0:	d8801f15 	stw	r2,124(sp)
 40260c4:	010001c4 	movi	r4,7
 40260c8:	20825816 	blt	r4,r2,4026a2c <___vfprintf_internal_r+0x125c>
 40260cc:	42000204 	addi	r8,r8,8
 40260d0:	d9003017 	ldw	r4,192(sp)
 40260d4:	00802004 	movi	r2,128
 40260d8:	2081bb26 	beq	r4,r2,40267c8 <___vfprintf_internal_r+0xff8>
 40260dc:	d9402a17 	ldw	r5,168(sp)
 40260e0:	d8802b17 	ldw	r2,172(sp)
 40260e4:	28adc83a 	sub	r22,r5,r2
 40260e8:	0580310e 	bge	zero,r22,40261b0 <___vfprintf_internal_r+0x9e0>
 40260ec:	07000404 	movi	fp,16
 40260f0:	d8801f17 	ldw	r2,124(sp)
 40260f4:	e584360e 	bge	fp,r22,40271d0 <___vfprintf_internal_r+0x1a00>
 40260f8:	01400034 	movhi	r5,0
 40260fc:	29405f84 	addi	r5,r5,382
 4026100:	dc402a15 	stw	r17,168(sp)
 4026104:	d9402c15 	stw	r5,176(sp)
 4026108:	b023883a 	mov	r17,r22
 402610c:	04c001c4 	movi	r19,7
 4026110:	a82d883a 	mov	r22,r21
 4026114:	902b883a 	mov	r21,r18
 4026118:	8025883a 	mov	r18,r16
 402611c:	dc002d17 	ldw	r16,180(sp)
 4026120:	00000306 	br	4026130 <___vfprintf_internal_r+0x960>
 4026124:	8c7ffc04 	addi	r17,r17,-16
 4026128:	42000204 	addi	r8,r8,8
 402612c:	e440110e 	bge	fp,r17,4026174 <___vfprintf_internal_r+0x9a4>
 4026130:	18c00404 	addi	r3,r3,16
 4026134:	10800044 	addi	r2,r2,1
 4026138:	45000015 	stw	r20,0(r8)
 402613c:	47000115 	stw	fp,4(r8)
 4026140:	d8c02015 	stw	r3,128(sp)
 4026144:	d8801f15 	stw	r2,124(sp)
 4026148:	98bff60e 	bge	r19,r2,4026124 <__flash_rwdata_start+0xffff3850>
 402614c:	d9801e04 	addi	r6,sp,120
 4026150:	b80b883a 	mov	r5,r23
 4026154:	8009883a 	mov	r4,r16
 4026158:	402c4c00 	call	402c4c0 <__sprint_r>
 402615c:	103ea01e 	bne	r2,zero,4025be0 <__flash_rwdata_start+0xffff330c>
 4026160:	8c7ffc04 	addi	r17,r17,-16
 4026164:	d8c02017 	ldw	r3,128(sp)
 4026168:	d8801f17 	ldw	r2,124(sp)
 402616c:	da000404 	addi	r8,sp,16
 4026170:	e47fef16 	blt	fp,r17,4026130 <__flash_rwdata_start+0xffff385c>
 4026174:	9021883a 	mov	r16,r18
 4026178:	a825883a 	mov	r18,r21
 402617c:	b02b883a 	mov	r21,r22
 4026180:	882d883a 	mov	r22,r17
 4026184:	dc402a17 	ldw	r17,168(sp)
 4026188:	d9002c17 	ldw	r4,176(sp)
 402618c:	1d87883a 	add	r3,r3,r22
 4026190:	10800044 	addi	r2,r2,1
 4026194:	41000015 	stw	r4,0(r8)
 4026198:	45800115 	stw	r22,4(r8)
 402619c:	d8c02015 	stw	r3,128(sp)
 40261a0:	d8801f15 	stw	r2,124(sp)
 40261a4:	010001c4 	movi	r4,7
 40261a8:	20821016 	blt	r4,r2,40269ec <___vfprintf_internal_r+0x121c>
 40261ac:	42000204 	addi	r8,r8,8
 40261b0:	9080400c 	andi	r2,r18,256
 40261b4:	10013a1e 	bne	r2,zero,40266a0 <___vfprintf_internal_r+0xed0>
 40261b8:	d9402b17 	ldw	r5,172(sp)
 40261bc:	d8801f17 	ldw	r2,124(sp)
 40261c0:	44000015 	stw	r16,0(r8)
 40261c4:	1947883a 	add	r3,r3,r5
 40261c8:	10800044 	addi	r2,r2,1
 40261cc:	41400115 	stw	r5,4(r8)
 40261d0:	d8c02015 	stw	r3,128(sp)
 40261d4:	d8801f15 	stw	r2,124(sp)
 40261d8:	010001c4 	movi	r4,7
 40261dc:	2081f516 	blt	r4,r2,40269b4 <___vfprintf_internal_r+0x11e4>
 40261e0:	42000204 	addi	r8,r8,8
 40261e4:	9480010c 	andi	r18,r18,4
 40261e8:	90003226 	beq	r18,zero,40262b4 <___vfprintf_internal_r+0xae4>
 40261ec:	d9403117 	ldw	r5,196(sp)
 40261f0:	d8802917 	ldw	r2,164(sp)
 40261f4:	28a1c83a 	sub	r16,r5,r2
 40261f8:	04002e0e 	bge	zero,r16,40262b4 <___vfprintf_internal_r+0xae4>
 40261fc:	04400404 	movi	r17,16
 4026200:	d8801f17 	ldw	r2,124(sp)
 4026204:	8c04c40e 	bge	r17,r16,4027518 <___vfprintf_internal_r+0x1d48>
 4026208:	01400034 	movhi	r5,0
 402620c:	29406384 	addi	r5,r5,398
 4026210:	d9403515 	stw	r5,212(sp)
 4026214:	048001c4 	movi	r18,7
 4026218:	dcc02d17 	ldw	r19,180(sp)
 402621c:	00000306 	br	402622c <___vfprintf_internal_r+0xa5c>
 4026220:	843ffc04 	addi	r16,r16,-16
 4026224:	42000204 	addi	r8,r8,8
 4026228:	8c00130e 	bge	r17,r16,4026278 <___vfprintf_internal_r+0xaa8>
 402622c:	01000034 	movhi	r4,0
 4026230:	18c00404 	addi	r3,r3,16
 4026234:	10800044 	addi	r2,r2,1
 4026238:	21006384 	addi	r4,r4,398
 402623c:	41000015 	stw	r4,0(r8)
 4026240:	44400115 	stw	r17,4(r8)
 4026244:	d8c02015 	stw	r3,128(sp)
 4026248:	d8801f15 	stw	r2,124(sp)
 402624c:	90bff40e 	bge	r18,r2,4026220 <__flash_rwdata_start+0xffff394c>
 4026250:	d9801e04 	addi	r6,sp,120
 4026254:	b80b883a 	mov	r5,r23
 4026258:	9809883a 	mov	r4,r19
 402625c:	402c4c00 	call	402c4c0 <__sprint_r>
 4026260:	103e5f1e 	bne	r2,zero,4025be0 <__flash_rwdata_start+0xffff330c>
 4026264:	843ffc04 	addi	r16,r16,-16
 4026268:	d8c02017 	ldw	r3,128(sp)
 402626c:	d8801f17 	ldw	r2,124(sp)
 4026270:	da000404 	addi	r8,sp,16
 4026274:	8c3fed16 	blt	r17,r16,402622c <__flash_rwdata_start+0xffff3958>
 4026278:	d9403517 	ldw	r5,212(sp)
 402627c:	1c07883a 	add	r3,r3,r16
 4026280:	10800044 	addi	r2,r2,1
 4026284:	41400015 	stw	r5,0(r8)
 4026288:	44000115 	stw	r16,4(r8)
 402628c:	d8c02015 	stw	r3,128(sp)
 4026290:	d8801f15 	stw	r2,124(sp)
 4026294:	010001c4 	movi	r4,7
 4026298:	2080060e 	bge	r4,r2,40262b4 <___vfprintf_internal_r+0xae4>
 402629c:	d9002d17 	ldw	r4,180(sp)
 40262a0:	d9801e04 	addi	r6,sp,120
 40262a4:	b80b883a 	mov	r5,r23
 40262a8:	402c4c00 	call	402c4c0 <__sprint_r>
 40262ac:	103e4c1e 	bne	r2,zero,4025be0 <__flash_rwdata_start+0xffff330c>
 40262b0:	d8c02017 	ldw	r3,128(sp)
 40262b4:	d8803117 	ldw	r2,196(sp)
 40262b8:	d9002917 	ldw	r4,164(sp)
 40262bc:	1100010e 	bge	r2,r4,40262c4 <___vfprintf_internal_r+0xaf4>
 40262c0:	2005883a 	mov	r2,r4
 40262c4:	d9402f17 	ldw	r5,188(sp)
 40262c8:	288b883a 	add	r5,r5,r2
 40262cc:	d9402f15 	stw	r5,188(sp)
 40262d0:	1801c01e 	bne	r3,zero,40269d4 <___vfprintf_internal_r+0x1204>
 40262d4:	a8800007 	ldb	r2,0(r21)
 40262d8:	d8001f15 	stw	zero,124(sp)
 40262dc:	da000404 	addi	r8,sp,16
 40262e0:	103d751e 	bne	r2,zero,40258b8 <__flash_rwdata_start+0xffff2fe4>
 40262e4:	a823883a 	mov	r17,r21
 40262e8:	003d8b06 	br	4025918 <__flash_rwdata_start+0xffff3044>
 40262ec:	8025883a 	mov	r18,r16
 40262f0:	dc002903 	ldbu	r16,164(sp)
 40262f4:	e011883a 	mov	r8,fp
 40262f8:	84003fcc 	andi	r16,r16,255
 40262fc:	8005e51e 	bne	r16,zero,4027a94 <___vfprintf_internal_r+0x22c4>
 4026300:	94800414 	ori	r18,r18,16
 4026304:	9080080c 	andi	r2,r18,32
 4026308:	10022b26 	beq	r2,zero,4026bb8 <___vfprintf_internal_r+0x13e8>
 402630c:	d9002e17 	ldw	r4,184(sp)
 4026310:	d9402a17 	ldw	r5,168(sp)
 4026314:	d8002785 	stb	zero,158(sp)
 4026318:	20c00204 	addi	r3,r4,8
 402631c:	24c00017 	ldw	r19,0(r4)
 4026320:	25800117 	ldw	r22,4(r4)
 4026324:	28042e16 	blt	r5,zero,40273e0 <___vfprintf_internal_r+0x1c10>
 4026328:	013fdfc4 	movi	r4,-129
 402632c:	9d84b03a 	or	r2,r19,r22
 4026330:	d8c02e15 	stw	r3,184(sp)
 4026334:	9124703a 	and	r18,r18,r4
 4026338:	0039883a 	mov	fp,zero
 402633c:	103e801e 	bne	r2,zero,4025d40 <__flash_rwdata_start+0xffff346c>
 4026340:	d9002a17 	ldw	r4,168(sp)
 4026344:	2002e01e 	bne	r4,zero,4026ec8 <___vfprintf_internal_r+0x16f8>
 4026348:	d8002a15 	stw	zero,168(sp)
 402634c:	d8002b15 	stw	zero,172(sp)
 4026350:	dc001e04 	addi	r16,sp,120
 4026354:	003ef506 	br	4025f2c <__flash_rwdata_start+0xffff3658>
 4026358:	8025883a 	mov	r18,r16
 402635c:	dc002903 	ldbu	r16,164(sp)
 4026360:	e011883a 	mov	r8,fp
 4026364:	84003fcc 	andi	r16,r16,255
 4026368:	8005ba1e 	bne	r16,zero,4027a54 <___vfprintf_internal_r+0x2284>
 402636c:	01000034 	movhi	r4,0
 4026370:	21005304 	addi	r4,r4,332
 4026374:	d9003915 	stw	r4,228(sp)
 4026378:	9080080c 	andi	r2,r18,32
 402637c:	10006126 	beq	r2,zero,4026504 <___vfprintf_internal_r+0xd34>
 4026380:	d9402e17 	ldw	r5,184(sp)
 4026384:	2cc00017 	ldw	r19,0(r5)
 4026388:	2d800117 	ldw	r22,4(r5)
 402638c:	29400204 	addi	r5,r5,8
 4026390:	d9402e15 	stw	r5,184(sp)
 4026394:	9080004c 	andi	r2,r18,1
 4026398:	1001ac26 	beq	r2,zero,4026a4c <___vfprintf_internal_r+0x127c>
 402639c:	9d84b03a 	or	r2,r19,r22
 40263a0:	10038526 	beq	r2,zero,40271b8 <___vfprintf_internal_r+0x19e8>
 40263a4:	d8c02a17 	ldw	r3,168(sp)
 40263a8:	00800c04 	movi	r2,48
 40263ac:	d8802705 	stb	r2,156(sp)
 40263b0:	dc402745 	stb	r17,157(sp)
 40263b4:	d8002785 	stb	zero,158(sp)
 40263b8:	90800094 	ori	r2,r18,2
 40263bc:	18047916 	blt	r3,zero,40275a4 <___vfprintf_internal_r+0x1dd4>
 40263c0:	00bfdfc4 	movi	r2,-129
 40263c4:	90a4703a 	and	r18,r18,r2
 40263c8:	94800094 	ori	r18,r18,2
 40263cc:	0039883a 	mov	fp,zero
 40263d0:	d9003917 	ldw	r4,228(sp)
 40263d4:	dc001e04 	addi	r16,sp,120
 40263d8:	988003cc 	andi	r2,r19,15
 40263dc:	b006973a 	slli	r3,r22,28
 40263e0:	2085883a 	add	r2,r4,r2
 40263e4:	9826d13a 	srli	r19,r19,4
 40263e8:	10800003 	ldbu	r2,0(r2)
 40263ec:	b02cd13a 	srli	r22,r22,4
 40263f0:	843fffc4 	addi	r16,r16,-1
 40263f4:	1ce6b03a 	or	r19,r3,r19
 40263f8:	80800005 	stb	r2,0(r16)
 40263fc:	9d84b03a 	or	r2,r19,r22
 4026400:	103ff51e 	bne	r2,zero,40263d8 <__flash_rwdata_start+0xffff3b04>
 4026404:	d8c02817 	ldw	r3,160(sp)
 4026408:	1c07c83a 	sub	r3,r3,r16
 402640c:	d8c02b15 	stw	r3,172(sp)
 4026410:	003ec606 	br	4025f2c <__flash_rwdata_start+0xffff3658>
 4026414:	8025883a 	mov	r18,r16
 4026418:	dc002903 	ldbu	r16,164(sp)
 402641c:	e011883a 	mov	r8,fp
 4026420:	84003fcc 	andi	r16,r16,255
 4026424:	803e9626 	beq	r16,zero,4025e80 <__flash_rwdata_start+0xffff35ac>
 4026428:	d8c02b03 	ldbu	r3,172(sp)
 402642c:	d8c02785 	stb	r3,158(sp)
 4026430:	003e9306 	br	4025e80 <__flash_rwdata_start+0xffff35ac>
 4026434:	00c00044 	movi	r3,1
 4026438:	d8c02905 	stb	r3,164(sp)
 402643c:	00c00ac4 	movi	r3,43
 4026440:	d8c02b05 	stb	r3,172(sp)
 4026444:	ac400007 	ldb	r17,0(r21)
 4026448:	003d4306 	br	4025958 <__flash_rwdata_start+0xffff3084>
 402644c:	84000814 	ori	r16,r16,32
 4026450:	ac400007 	ldb	r17,0(r21)
 4026454:	003d4006 	br	4025958 <__flash_rwdata_start+0xffff3084>
 4026458:	d8802e17 	ldw	r2,184(sp)
 402645c:	8025883a 	mov	r18,r16
 4026460:	d8002785 	stb	zero,158(sp)
 4026464:	14000017 	ldw	r16,0(r2)
 4026468:	e011883a 	mov	r8,fp
 402646c:	14c00104 	addi	r19,r2,4
 4026470:	80042d26 	beq	r16,zero,4027528 <___vfprintf_internal_r+0x1d58>
 4026474:	d8c02a17 	ldw	r3,168(sp)
 4026478:	1803e416 	blt	r3,zero,402740c <___vfprintf_internal_r+0x1c3c>
 402647c:	180d883a 	mov	r6,r3
 4026480:	000b883a 	mov	r5,zero
 4026484:	8009883a 	mov	r4,r16
 4026488:	df003d15 	stw	fp,244(sp)
 402648c:	402ac400 	call	402ac40 <memchr>
 4026490:	da003d17 	ldw	r8,244(sp)
 4026494:	10046826 	beq	r2,zero,4027638 <___vfprintf_internal_r+0x1e68>
 4026498:	1405c83a 	sub	r2,r2,r16
 402649c:	d8802b15 	stw	r2,172(sp)
 40264a0:	1003e016 	blt	r2,zero,4027424 <___vfprintf_internal_r+0x1c54>
 40264a4:	df002783 	ldbu	fp,158(sp)
 40264a8:	d8802915 	stw	r2,164(sp)
 40264ac:	dcc02e15 	stw	r19,184(sp)
 40264b0:	d8002a15 	stw	zero,168(sp)
 40264b4:	d8003215 	stw	zero,200(sp)
 40264b8:	003ea206 	br	4025f44 <__flash_rwdata_start+0xffff3670>
 40264bc:	8025883a 	mov	r18,r16
 40264c0:	dc002903 	ldbu	r16,164(sp)
 40264c4:	e011883a 	mov	r8,fp
 40264c8:	84003fcc 	andi	r16,r16,255
 40264cc:	803f8d26 	beq	r16,zero,4026304 <__flash_rwdata_start+0xffff3a30>
 40264d0:	d8c02b03 	ldbu	r3,172(sp)
 40264d4:	d8c02785 	stb	r3,158(sp)
 40264d8:	003f8a06 	br	4026304 <__flash_rwdata_start+0xffff3a30>
 40264dc:	8025883a 	mov	r18,r16
 40264e0:	dc002903 	ldbu	r16,164(sp)
 40264e4:	e011883a 	mov	r8,fp
 40264e8:	84003fcc 	andi	r16,r16,255
 40264ec:	8005661e 	bne	r16,zero,4027a88 <___vfprintf_internal_r+0x22b8>
 40264f0:	01000034 	movhi	r4,0
 40264f4:	21005804 	addi	r4,r4,352
 40264f8:	d9003915 	stw	r4,228(sp)
 40264fc:	9080080c 	andi	r2,r18,32
 4026500:	103f9f1e 	bne	r2,zero,4026380 <__flash_rwdata_start+0xffff3aac>
 4026504:	9080040c 	andi	r2,r18,16
 4026508:	1002eb26 	beq	r2,zero,40270b8 <___vfprintf_internal_r+0x18e8>
 402650c:	d8802e17 	ldw	r2,184(sp)
 4026510:	002d883a 	mov	r22,zero
 4026514:	14c00017 	ldw	r19,0(r2)
 4026518:	10800104 	addi	r2,r2,4
 402651c:	d8802e15 	stw	r2,184(sp)
 4026520:	003f9c06 	br	4026394 <__flash_rwdata_start+0xffff3ac0>
 4026524:	d8802b07 	ldb	r2,172(sp)
 4026528:	1002e11e 	bne	r2,zero,40270b0 <___vfprintf_internal_r+0x18e0>
 402652c:	00c00044 	movi	r3,1
 4026530:	d8c02905 	stb	r3,164(sp)
 4026534:	00c00804 	movi	r3,32
 4026538:	d8c02b05 	stb	r3,172(sp)
 402653c:	ac400007 	ldb	r17,0(r21)
 4026540:	003d0506 	br	4025958 <__flash_rwdata_start+0xffff3084>
 4026544:	84000054 	ori	r16,r16,1
 4026548:	ac400007 	ldb	r17,0(r21)
 402654c:	003d0206 	br	4025958 <__flash_rwdata_start+0xffff3084>
 4026550:	8025883a 	mov	r18,r16
 4026554:	dc002903 	ldbu	r16,164(sp)
 4026558:	e011883a 	mov	r8,fp
 402655c:	84003fcc 	andi	r16,r16,255
 4026560:	803de726 	beq	r16,zero,4025d00 <__flash_rwdata_start+0xffff342c>
 4026564:	d8c02b03 	ldbu	r3,172(sp)
 4026568:	d8c02785 	stb	r3,158(sp)
 402656c:	003de406 	br	4025d00 <__flash_rwdata_start+0xffff342c>
 4026570:	84001014 	ori	r16,r16,64
 4026574:	ac400007 	ldb	r17,0(r21)
 4026578:	003cf706 	br	4025958 <__flash_rwdata_start+0xffff3084>
 402657c:	ac400007 	ldb	r17,0(r21)
 4026580:	00801b04 	movi	r2,108
 4026584:	88838f26 	beq	r17,r2,40273c4 <___vfprintf_internal_r+0x1bf4>
 4026588:	84000414 	ori	r16,r16,16
 402658c:	003cf206 	br	4025958 <__flash_rwdata_start+0xffff3084>
 4026590:	8025883a 	mov	r18,r16
 4026594:	dc002903 	ldbu	r16,164(sp)
 4026598:	e011883a 	mov	r8,fp
 402659c:	84003fcc 	andi	r16,r16,255
 40265a0:	80053f1e 	bne	r16,zero,4027aa0 <___vfprintf_internal_r+0x22d0>
 40265a4:	9080080c 	andi	r2,r18,32
 40265a8:	1002d226 	beq	r2,zero,40270f4 <___vfprintf_internal_r+0x1924>
 40265ac:	d9002e17 	ldw	r4,184(sp)
 40265b0:	d9402f17 	ldw	r5,188(sp)
 40265b4:	20800017 	ldw	r2,0(r4)
 40265b8:	2807d7fa 	srai	r3,r5,31
 40265bc:	21000104 	addi	r4,r4,4
 40265c0:	d9002e15 	stw	r4,184(sp)
 40265c4:	11400015 	stw	r5,0(r2)
 40265c8:	10c00115 	stw	r3,4(r2)
 40265cc:	003cb806 	br	40258b0 <__flash_rwdata_start+0xffff2fdc>
 40265d0:	d8c02e17 	ldw	r3,184(sp)
 40265d4:	d9002e17 	ldw	r4,184(sp)
 40265d8:	8025883a 	mov	r18,r16
 40265dc:	18800017 	ldw	r2,0(r3)
 40265e0:	21000104 	addi	r4,r4,4
 40265e4:	00c00044 	movi	r3,1
 40265e8:	e011883a 	mov	r8,fp
 40265ec:	d8c02915 	stw	r3,164(sp)
 40265f0:	d8002785 	stb	zero,158(sp)
 40265f4:	d8801405 	stb	r2,80(sp)
 40265f8:	d9002e15 	stw	r4,184(sp)
 40265fc:	d8c02b15 	stw	r3,172(sp)
 4026600:	d8002a15 	stw	zero,168(sp)
 4026604:	d8003215 	stw	zero,200(sp)
 4026608:	dc001404 	addi	r16,sp,80
 402660c:	0039883a 	mov	fp,zero
 4026610:	003e5306 	br	4025f60 <__flash_rwdata_start+0xffff368c>
 4026614:	01000034 	movhi	r4,0
 4026618:	21005804 	addi	r4,r4,352
 402661c:	0039883a 	mov	fp,zero
 4026620:	d9003915 	stw	r4,228(sp)
 4026624:	04401e04 	movi	r17,120
 4026628:	003f6906 	br	40263d0 <__flash_rwdata_start+0xffff3afc>
 402662c:	8025883a 	mov	r18,r16
 4026630:	dc002903 	ldbu	r16,164(sp)
 4026634:	e011883a 	mov	r8,fp
 4026638:	84003fcc 	andi	r16,r16,255
 402663c:	8005081e 	bne	r16,zero,4027a60 <___vfprintf_internal_r+0x2290>
 4026640:	883d6126 	beq	r17,zero,4025bc8 <__flash_rwdata_start+0xffff32f4>
 4026644:	00c00044 	movi	r3,1
 4026648:	d8c02915 	stw	r3,164(sp)
 402664c:	dc401405 	stb	r17,80(sp)
 4026650:	d8002785 	stb	zero,158(sp)
 4026654:	003fe906 	br	40265fc <__flash_rwdata_start+0xffff3d28>
 4026658:	01400034 	movhi	r5,0
 402665c:	29405804 	addi	r5,r5,352
 4026660:	d9403915 	stw	r5,228(sp)
 4026664:	d8c02e15 	stw	r3,184(sp)
 4026668:	1025883a 	mov	r18,r2
 402666c:	04401e04 	movi	r17,120
 4026670:	9d84b03a 	or	r2,r19,r22
 4026674:	1000fc1e 	bne	r2,zero,4026a68 <___vfprintf_internal_r+0x1298>
 4026678:	0039883a 	mov	fp,zero
 402667c:	00800084 	movi	r2,2
 4026680:	10803fcc 	andi	r2,r2,255
 4026684:	00c00044 	movi	r3,1
 4026688:	10c20f26 	beq	r2,r3,4026ec8 <___vfprintf_internal_r+0x16f8>
 402668c:	00c00084 	movi	r3,2
 4026690:	10fd3326 	beq	r2,r3,4025b60 <__flash_rwdata_start+0xffff328c>
 4026694:	003e0b06 	br	4025ec4 <__flash_rwdata_start+0xffff35f0>
 4026698:	d8c02017 	ldw	r3,128(sp)
 402669c:	003e7106 	br	4026064 <__flash_rwdata_start+0xffff3790>
 40266a0:	00801944 	movi	r2,101
 40266a4:	14407e0e 	bge	r2,r17,40268a0 <___vfprintf_internal_r+0x10d0>
 40266a8:	d9003617 	ldw	r4,216(sp)
 40266ac:	d9403817 	ldw	r5,224(sp)
 40266b0:	000d883a 	mov	r6,zero
 40266b4:	000f883a 	mov	r7,zero
 40266b8:	d8c03c15 	stw	r3,240(sp)
 40266bc:	da003d15 	stw	r8,244(sp)
 40266c0:	402fb500 	call	402fb50 <__eqdf2>
 40266c4:	d8c03c17 	ldw	r3,240(sp)
 40266c8:	da003d17 	ldw	r8,244(sp)
 40266cc:	1000f71e 	bne	r2,zero,4026aac <___vfprintf_internal_r+0x12dc>
 40266d0:	d8801f17 	ldw	r2,124(sp)
 40266d4:	01000034 	movhi	r4,0
 40266d8:	21005f04 	addi	r4,r4,380
 40266dc:	18c00044 	addi	r3,r3,1
 40266e0:	10800044 	addi	r2,r2,1
 40266e4:	41000015 	stw	r4,0(r8)
 40266e8:	01000044 	movi	r4,1
 40266ec:	41000115 	stw	r4,4(r8)
 40266f0:	d8c02015 	stw	r3,128(sp)
 40266f4:	d8801f15 	stw	r2,124(sp)
 40266f8:	010001c4 	movi	r4,7
 40266fc:	2082b816 	blt	r4,r2,40271e0 <___vfprintf_internal_r+0x1a10>
 4026700:	42000204 	addi	r8,r8,8
 4026704:	d8802617 	ldw	r2,152(sp)
 4026708:	d9403317 	ldw	r5,204(sp)
 402670c:	11400216 	blt	r2,r5,4026718 <___vfprintf_internal_r+0xf48>
 4026710:	9080004c 	andi	r2,r18,1
 4026714:	103eb326 	beq	r2,zero,40261e4 <__flash_rwdata_start+0xffff3910>
 4026718:	d8803717 	ldw	r2,220(sp)
 402671c:	d9003417 	ldw	r4,208(sp)
 4026720:	d9403717 	ldw	r5,220(sp)
 4026724:	1887883a 	add	r3,r3,r2
 4026728:	d8801f17 	ldw	r2,124(sp)
 402672c:	41000015 	stw	r4,0(r8)
 4026730:	41400115 	stw	r5,4(r8)
 4026734:	10800044 	addi	r2,r2,1
 4026738:	d8c02015 	stw	r3,128(sp)
 402673c:	d8801f15 	stw	r2,124(sp)
 4026740:	010001c4 	movi	r4,7
 4026744:	20832916 	blt	r4,r2,40273ec <___vfprintf_internal_r+0x1c1c>
 4026748:	42000204 	addi	r8,r8,8
 402674c:	d8803317 	ldw	r2,204(sp)
 4026750:	143fffc4 	addi	r16,r2,-1
 4026754:	043ea30e 	bge	zero,r16,40261e4 <__flash_rwdata_start+0xffff3910>
 4026758:	04400404 	movi	r17,16
 402675c:	d8801f17 	ldw	r2,124(sp)
 4026760:	8c00880e 	bge	r17,r16,4026984 <___vfprintf_internal_r+0x11b4>
 4026764:	01400034 	movhi	r5,0
 4026768:	29405f84 	addi	r5,r5,382
 402676c:	d9402c15 	stw	r5,176(sp)
 4026770:	058001c4 	movi	r22,7
 4026774:	dcc02d17 	ldw	r19,180(sp)
 4026778:	00000306 	br	4026788 <___vfprintf_internal_r+0xfb8>
 402677c:	42000204 	addi	r8,r8,8
 4026780:	843ffc04 	addi	r16,r16,-16
 4026784:	8c00820e 	bge	r17,r16,4026990 <___vfprintf_internal_r+0x11c0>
 4026788:	18c00404 	addi	r3,r3,16
 402678c:	10800044 	addi	r2,r2,1
 4026790:	45000015 	stw	r20,0(r8)
 4026794:	44400115 	stw	r17,4(r8)
 4026798:	d8c02015 	stw	r3,128(sp)
 402679c:	d8801f15 	stw	r2,124(sp)
 40267a0:	b0bff60e 	bge	r22,r2,402677c <__flash_rwdata_start+0xffff3ea8>
 40267a4:	d9801e04 	addi	r6,sp,120
 40267a8:	b80b883a 	mov	r5,r23
 40267ac:	9809883a 	mov	r4,r19
 40267b0:	402c4c00 	call	402c4c0 <__sprint_r>
 40267b4:	103d0a1e 	bne	r2,zero,4025be0 <__flash_rwdata_start+0xffff330c>
 40267b8:	d8c02017 	ldw	r3,128(sp)
 40267bc:	d8801f17 	ldw	r2,124(sp)
 40267c0:	da000404 	addi	r8,sp,16
 40267c4:	003fee06 	br	4026780 <__flash_rwdata_start+0xffff3eac>
 40267c8:	d9403117 	ldw	r5,196(sp)
 40267cc:	d8802917 	ldw	r2,164(sp)
 40267d0:	28adc83a 	sub	r22,r5,r2
 40267d4:	05be410e 	bge	zero,r22,40260dc <__flash_rwdata_start+0xffff3808>
 40267d8:	07000404 	movi	fp,16
 40267dc:	d8801f17 	ldw	r2,124(sp)
 40267e0:	e5838f0e 	bge	fp,r22,4027620 <___vfprintf_internal_r+0x1e50>
 40267e4:	01400034 	movhi	r5,0
 40267e8:	29405f84 	addi	r5,r5,382
 40267ec:	dc403015 	stw	r17,192(sp)
 40267f0:	d9402c15 	stw	r5,176(sp)
 40267f4:	b023883a 	mov	r17,r22
 40267f8:	04c001c4 	movi	r19,7
 40267fc:	a82d883a 	mov	r22,r21
 4026800:	902b883a 	mov	r21,r18
 4026804:	8025883a 	mov	r18,r16
 4026808:	dc002d17 	ldw	r16,180(sp)
 402680c:	00000306 	br	402681c <___vfprintf_internal_r+0x104c>
 4026810:	8c7ffc04 	addi	r17,r17,-16
 4026814:	42000204 	addi	r8,r8,8
 4026818:	e440110e 	bge	fp,r17,4026860 <___vfprintf_internal_r+0x1090>
 402681c:	18c00404 	addi	r3,r3,16
 4026820:	10800044 	addi	r2,r2,1
 4026824:	45000015 	stw	r20,0(r8)
 4026828:	47000115 	stw	fp,4(r8)
 402682c:	d8c02015 	stw	r3,128(sp)
 4026830:	d8801f15 	stw	r2,124(sp)
 4026834:	98bff60e 	bge	r19,r2,4026810 <__flash_rwdata_start+0xffff3f3c>
 4026838:	d9801e04 	addi	r6,sp,120
 402683c:	b80b883a 	mov	r5,r23
 4026840:	8009883a 	mov	r4,r16
 4026844:	402c4c00 	call	402c4c0 <__sprint_r>
 4026848:	103ce51e 	bne	r2,zero,4025be0 <__flash_rwdata_start+0xffff330c>
 402684c:	8c7ffc04 	addi	r17,r17,-16
 4026850:	d8c02017 	ldw	r3,128(sp)
 4026854:	d8801f17 	ldw	r2,124(sp)
 4026858:	da000404 	addi	r8,sp,16
 402685c:	e47fef16 	blt	fp,r17,402681c <__flash_rwdata_start+0xffff3f48>
 4026860:	9021883a 	mov	r16,r18
 4026864:	a825883a 	mov	r18,r21
 4026868:	b02b883a 	mov	r21,r22
 402686c:	882d883a 	mov	r22,r17
 4026870:	dc403017 	ldw	r17,192(sp)
 4026874:	d9002c17 	ldw	r4,176(sp)
 4026878:	1d87883a 	add	r3,r3,r22
 402687c:	10800044 	addi	r2,r2,1
 4026880:	41000015 	stw	r4,0(r8)
 4026884:	45800115 	stw	r22,4(r8)
 4026888:	d8c02015 	stw	r3,128(sp)
 402688c:	d8801f15 	stw	r2,124(sp)
 4026890:	010001c4 	movi	r4,7
 4026894:	20818e16 	blt	r4,r2,4026ed0 <___vfprintf_internal_r+0x1700>
 4026898:	42000204 	addi	r8,r8,8
 402689c:	003e0f06 	br	40260dc <__flash_rwdata_start+0xffff3808>
 40268a0:	d9403317 	ldw	r5,204(sp)
 40268a4:	00800044 	movi	r2,1
 40268a8:	18c00044 	addi	r3,r3,1
 40268ac:	1141530e 	bge	r2,r5,4026dfc <___vfprintf_internal_r+0x162c>
 40268b0:	dc401f17 	ldw	r17,124(sp)
 40268b4:	00800044 	movi	r2,1
 40268b8:	40800115 	stw	r2,4(r8)
 40268bc:	8c400044 	addi	r17,r17,1
 40268c0:	44000015 	stw	r16,0(r8)
 40268c4:	d8c02015 	stw	r3,128(sp)
 40268c8:	dc401f15 	stw	r17,124(sp)
 40268cc:	008001c4 	movi	r2,7
 40268d0:	14416b16 	blt	r2,r17,4026e80 <___vfprintf_internal_r+0x16b0>
 40268d4:	42000204 	addi	r8,r8,8
 40268d8:	d8803717 	ldw	r2,220(sp)
 40268dc:	d9003417 	ldw	r4,208(sp)
 40268e0:	8c400044 	addi	r17,r17,1
 40268e4:	10c7883a 	add	r3,r2,r3
 40268e8:	40800115 	stw	r2,4(r8)
 40268ec:	41000015 	stw	r4,0(r8)
 40268f0:	d8c02015 	stw	r3,128(sp)
 40268f4:	dc401f15 	stw	r17,124(sp)
 40268f8:	008001c4 	movi	r2,7
 40268fc:	14416916 	blt	r2,r17,4026ea4 <___vfprintf_internal_r+0x16d4>
 4026900:	45800204 	addi	r22,r8,8
 4026904:	d9003617 	ldw	r4,216(sp)
 4026908:	d9403817 	ldw	r5,224(sp)
 402690c:	000d883a 	mov	r6,zero
 4026910:	000f883a 	mov	r7,zero
 4026914:	d8c03c15 	stw	r3,240(sp)
 4026918:	402fb500 	call	402fb50 <__eqdf2>
 402691c:	d8c03c17 	ldw	r3,240(sp)
 4026920:	1000bc26 	beq	r2,zero,4026c14 <___vfprintf_internal_r+0x1444>
 4026924:	d9403317 	ldw	r5,204(sp)
 4026928:	84000044 	addi	r16,r16,1
 402692c:	8c400044 	addi	r17,r17,1
 4026930:	28bfffc4 	addi	r2,r5,-1
 4026934:	1887883a 	add	r3,r3,r2
 4026938:	b0800115 	stw	r2,4(r22)
 402693c:	b4000015 	stw	r16,0(r22)
 4026940:	d8c02015 	stw	r3,128(sp)
 4026944:	dc401f15 	stw	r17,124(sp)
 4026948:	008001c4 	movi	r2,7
 402694c:	14414316 	blt	r2,r17,4026e5c <___vfprintf_internal_r+0x168c>
 4026950:	b5800204 	addi	r22,r22,8
 4026954:	d9003a17 	ldw	r4,232(sp)
 4026958:	df0022c4 	addi	fp,sp,139
 402695c:	8c400044 	addi	r17,r17,1
 4026960:	20c7883a 	add	r3,r4,r3
 4026964:	b7000015 	stw	fp,0(r22)
 4026968:	b1000115 	stw	r4,4(r22)
 402696c:	d8c02015 	stw	r3,128(sp)
 4026970:	dc401f15 	stw	r17,124(sp)
 4026974:	008001c4 	movi	r2,7
 4026978:	14400e16 	blt	r2,r17,40269b4 <___vfprintf_internal_r+0x11e4>
 402697c:	b2000204 	addi	r8,r22,8
 4026980:	003e1806 	br	40261e4 <__flash_rwdata_start+0xffff3910>
 4026984:	01000034 	movhi	r4,0
 4026988:	21005f84 	addi	r4,r4,382
 402698c:	d9002c15 	stw	r4,176(sp)
 4026990:	d9002c17 	ldw	r4,176(sp)
 4026994:	1c07883a 	add	r3,r3,r16
 4026998:	44000115 	stw	r16,4(r8)
 402699c:	41000015 	stw	r4,0(r8)
 40269a0:	10800044 	addi	r2,r2,1
 40269a4:	d8c02015 	stw	r3,128(sp)
 40269a8:	d8801f15 	stw	r2,124(sp)
 40269ac:	010001c4 	movi	r4,7
 40269b0:	20be0b0e 	bge	r4,r2,40261e0 <__flash_rwdata_start+0xffff390c>
 40269b4:	d9002d17 	ldw	r4,180(sp)
 40269b8:	d9801e04 	addi	r6,sp,120
 40269bc:	b80b883a 	mov	r5,r23
 40269c0:	402c4c00 	call	402c4c0 <__sprint_r>
 40269c4:	103c861e 	bne	r2,zero,4025be0 <__flash_rwdata_start+0xffff330c>
 40269c8:	d8c02017 	ldw	r3,128(sp)
 40269cc:	da000404 	addi	r8,sp,16
 40269d0:	003e0406 	br	40261e4 <__flash_rwdata_start+0xffff3910>
 40269d4:	d9002d17 	ldw	r4,180(sp)
 40269d8:	d9801e04 	addi	r6,sp,120
 40269dc:	b80b883a 	mov	r5,r23
 40269e0:	402c4c00 	call	402c4c0 <__sprint_r>
 40269e4:	103e3b26 	beq	r2,zero,40262d4 <__flash_rwdata_start+0xffff3a00>
 40269e8:	003c7d06 	br	4025be0 <__flash_rwdata_start+0xffff330c>
 40269ec:	d9002d17 	ldw	r4,180(sp)
 40269f0:	d9801e04 	addi	r6,sp,120
 40269f4:	b80b883a 	mov	r5,r23
 40269f8:	402c4c00 	call	402c4c0 <__sprint_r>
 40269fc:	103c781e 	bne	r2,zero,4025be0 <__flash_rwdata_start+0xffff330c>
 4026a00:	d8c02017 	ldw	r3,128(sp)
 4026a04:	da000404 	addi	r8,sp,16
 4026a08:	003de906 	br	40261b0 <__flash_rwdata_start+0xffff38dc>
 4026a0c:	d9002d17 	ldw	r4,180(sp)
 4026a10:	d9801e04 	addi	r6,sp,120
 4026a14:	b80b883a 	mov	r5,r23
 4026a18:	402c4c00 	call	402c4c0 <__sprint_r>
 4026a1c:	103c701e 	bne	r2,zero,4025be0 <__flash_rwdata_start+0xffff330c>
 4026a20:	d8c02017 	ldw	r3,128(sp)
 4026a24:	da000404 	addi	r8,sp,16
 4026a28:	003d9b06 	br	4026098 <__flash_rwdata_start+0xffff37c4>
 4026a2c:	d9002d17 	ldw	r4,180(sp)
 4026a30:	d9801e04 	addi	r6,sp,120
 4026a34:	b80b883a 	mov	r5,r23
 4026a38:	402c4c00 	call	402c4c0 <__sprint_r>
 4026a3c:	103c681e 	bne	r2,zero,4025be0 <__flash_rwdata_start+0xffff330c>
 4026a40:	d8c02017 	ldw	r3,128(sp)
 4026a44:	da000404 	addi	r8,sp,16
 4026a48:	003da106 	br	40260d0 <__flash_rwdata_start+0xffff37fc>
 4026a4c:	d9402a17 	ldw	r5,168(sp)
 4026a50:	d8002785 	stb	zero,158(sp)
 4026a54:	283f0616 	blt	r5,zero,4026670 <__flash_rwdata_start+0xffff3d9c>
 4026a58:	00ffdfc4 	movi	r3,-129
 4026a5c:	9d84b03a 	or	r2,r19,r22
 4026a60:	90e4703a 	and	r18,r18,r3
 4026a64:	103c3b26 	beq	r2,zero,4025b54 <__flash_rwdata_start+0xffff3280>
 4026a68:	0039883a 	mov	fp,zero
 4026a6c:	003e5806 	br	40263d0 <__flash_rwdata_start+0xffff3afc>
 4026a70:	9080040c 	andi	r2,r18,16
 4026a74:	1001b326 	beq	r2,zero,4027144 <___vfprintf_internal_r+0x1974>
 4026a78:	d8c02e17 	ldw	r3,184(sp)
 4026a7c:	d9002a17 	ldw	r4,168(sp)
 4026a80:	d8002785 	stb	zero,158(sp)
 4026a84:	18800104 	addi	r2,r3,4
 4026a88:	1cc00017 	ldw	r19,0(r3)
 4026a8c:	002d883a 	mov	r22,zero
 4026a90:	2001b516 	blt	r4,zero,4027168 <___vfprintf_internal_r+0x1998>
 4026a94:	00ffdfc4 	movi	r3,-129
 4026a98:	d8802e15 	stw	r2,184(sp)
 4026a9c:	90e4703a 	and	r18,r18,r3
 4026aa0:	983d0526 	beq	r19,zero,4025eb8 <__flash_rwdata_start+0xffff35e4>
 4026aa4:	0039883a 	mov	fp,zero
 4026aa8:	003d0806 	br	4025ecc <__flash_rwdata_start+0xffff35f8>
 4026aac:	dc402617 	ldw	r17,152(sp)
 4026ab0:	0441d30e 	bge	zero,r17,4027200 <___vfprintf_internal_r+0x1a30>
 4026ab4:	dc403217 	ldw	r17,200(sp)
 4026ab8:	d8803317 	ldw	r2,204(sp)
 4026abc:	1440010e 	bge	r2,r17,4026ac4 <___vfprintf_internal_r+0x12f4>
 4026ac0:	1023883a 	mov	r17,r2
 4026ac4:	04400a0e 	bge	zero,r17,4026af0 <___vfprintf_internal_r+0x1320>
 4026ac8:	d8801f17 	ldw	r2,124(sp)
 4026acc:	1c47883a 	add	r3,r3,r17
 4026ad0:	44000015 	stw	r16,0(r8)
 4026ad4:	10800044 	addi	r2,r2,1
 4026ad8:	44400115 	stw	r17,4(r8)
 4026adc:	d8c02015 	stw	r3,128(sp)
 4026ae0:	d8801f15 	stw	r2,124(sp)
 4026ae4:	010001c4 	movi	r4,7
 4026ae8:	20826516 	blt	r4,r2,4027480 <___vfprintf_internal_r+0x1cb0>
 4026aec:	42000204 	addi	r8,r8,8
 4026af0:	88026116 	blt	r17,zero,4027478 <___vfprintf_internal_r+0x1ca8>
 4026af4:	d9003217 	ldw	r4,200(sp)
 4026af8:	2463c83a 	sub	r17,r4,r17
 4026afc:	04407b0e 	bge	zero,r17,4026cec <___vfprintf_internal_r+0x151c>
 4026b00:	05800404 	movi	r22,16
 4026b04:	d8801f17 	ldw	r2,124(sp)
 4026b08:	b4419d0e 	bge	r22,r17,4027180 <___vfprintf_internal_r+0x19b0>
 4026b0c:	01000034 	movhi	r4,0
 4026b10:	21005f84 	addi	r4,r4,382
 4026b14:	d9002c15 	stw	r4,176(sp)
 4026b18:	070001c4 	movi	fp,7
 4026b1c:	dcc02d17 	ldw	r19,180(sp)
 4026b20:	00000306 	br	4026b30 <___vfprintf_internal_r+0x1360>
 4026b24:	42000204 	addi	r8,r8,8
 4026b28:	8c7ffc04 	addi	r17,r17,-16
 4026b2c:	b441970e 	bge	r22,r17,402718c <___vfprintf_internal_r+0x19bc>
 4026b30:	18c00404 	addi	r3,r3,16
 4026b34:	10800044 	addi	r2,r2,1
 4026b38:	45000015 	stw	r20,0(r8)
 4026b3c:	45800115 	stw	r22,4(r8)
 4026b40:	d8c02015 	stw	r3,128(sp)
 4026b44:	d8801f15 	stw	r2,124(sp)
 4026b48:	e0bff60e 	bge	fp,r2,4026b24 <__flash_rwdata_start+0xffff4250>
 4026b4c:	d9801e04 	addi	r6,sp,120
 4026b50:	b80b883a 	mov	r5,r23
 4026b54:	9809883a 	mov	r4,r19
 4026b58:	402c4c00 	call	402c4c0 <__sprint_r>
 4026b5c:	103c201e 	bne	r2,zero,4025be0 <__flash_rwdata_start+0xffff330c>
 4026b60:	d8c02017 	ldw	r3,128(sp)
 4026b64:	d8801f17 	ldw	r2,124(sp)
 4026b68:	da000404 	addi	r8,sp,16
 4026b6c:	003fee06 	br	4026b28 <__flash_rwdata_start+0xffff4254>
 4026b70:	d9002d17 	ldw	r4,180(sp)
 4026b74:	d9801e04 	addi	r6,sp,120
 4026b78:	b80b883a 	mov	r5,r23
 4026b7c:	402c4c00 	call	402c4c0 <__sprint_r>
 4026b80:	103c171e 	bne	r2,zero,4025be0 <__flash_rwdata_start+0xffff330c>
 4026b84:	d8c02017 	ldw	r3,128(sp)
 4026b88:	df002787 	ldb	fp,158(sp)
 4026b8c:	da000404 	addi	r8,sp,16
 4026b90:	003d3406 	br	4026064 <__flash_rwdata_start+0xffff3790>
 4026b94:	9080040c 	andi	r2,r18,16
 4026b98:	10016126 	beq	r2,zero,4027120 <___vfprintf_internal_r+0x1950>
 4026b9c:	d9402e17 	ldw	r5,184(sp)
 4026ba0:	2cc00017 	ldw	r19,0(r5)
 4026ba4:	29400104 	addi	r5,r5,4
 4026ba8:	d9402e15 	stw	r5,184(sp)
 4026bac:	982dd7fa 	srai	r22,r19,31
 4026bb0:	b005883a 	mov	r2,r22
 4026bb4:	003c5a06 	br	4025d20 <__flash_rwdata_start+0xffff344c>
 4026bb8:	9080040c 	andi	r2,r18,16
 4026bbc:	10003526 	beq	r2,zero,4026c94 <___vfprintf_internal_r+0x14c4>
 4026bc0:	d8c02e17 	ldw	r3,184(sp)
 4026bc4:	d9002a17 	ldw	r4,168(sp)
 4026bc8:	d8002785 	stb	zero,158(sp)
 4026bcc:	18800104 	addi	r2,r3,4
 4026bd0:	1cc00017 	ldw	r19,0(r3)
 4026bd4:	002d883a 	mov	r22,zero
 4026bd8:	20003716 	blt	r4,zero,4026cb8 <___vfprintf_internal_r+0x14e8>
 4026bdc:	00ffdfc4 	movi	r3,-129
 4026be0:	d8802e15 	stw	r2,184(sp)
 4026be4:	90e4703a 	and	r18,r18,r3
 4026be8:	0039883a 	mov	fp,zero
 4026bec:	983dd426 	beq	r19,zero,4026340 <__flash_rwdata_start+0xffff3a6c>
 4026bf0:	00800244 	movi	r2,9
 4026bf4:	14fc5336 	bltu	r2,r19,4025d44 <__flash_rwdata_start+0xffff3470>
 4026bf8:	d8c02817 	ldw	r3,160(sp)
 4026bfc:	dc001dc4 	addi	r16,sp,119
 4026c00:	9cc00c04 	addi	r19,r19,48
 4026c04:	1c07c83a 	sub	r3,r3,r16
 4026c08:	dcc01dc5 	stb	r19,119(sp)
 4026c0c:	d8c02b15 	stw	r3,172(sp)
 4026c10:	003cc606 	br	4025f2c <__flash_rwdata_start+0xffff3658>
 4026c14:	d8803317 	ldw	r2,204(sp)
 4026c18:	143fffc4 	addi	r16,r2,-1
 4026c1c:	043f4d0e 	bge	zero,r16,4026954 <__flash_rwdata_start+0xffff4080>
 4026c20:	07000404 	movi	fp,16
 4026c24:	e400810e 	bge	fp,r16,4026e2c <___vfprintf_internal_r+0x165c>
 4026c28:	01400034 	movhi	r5,0
 4026c2c:	29405f84 	addi	r5,r5,382
 4026c30:	d9402c15 	stw	r5,176(sp)
 4026c34:	01c001c4 	movi	r7,7
 4026c38:	dcc02d17 	ldw	r19,180(sp)
 4026c3c:	00000306 	br	4026c4c <___vfprintf_internal_r+0x147c>
 4026c40:	b5800204 	addi	r22,r22,8
 4026c44:	843ffc04 	addi	r16,r16,-16
 4026c48:	e4007b0e 	bge	fp,r16,4026e38 <___vfprintf_internal_r+0x1668>
 4026c4c:	18c00404 	addi	r3,r3,16
 4026c50:	8c400044 	addi	r17,r17,1
 4026c54:	b5000015 	stw	r20,0(r22)
 4026c58:	b7000115 	stw	fp,4(r22)
 4026c5c:	d8c02015 	stw	r3,128(sp)
 4026c60:	dc401f15 	stw	r17,124(sp)
 4026c64:	3c7ff60e 	bge	r7,r17,4026c40 <__flash_rwdata_start+0xffff436c>
 4026c68:	d9801e04 	addi	r6,sp,120
 4026c6c:	b80b883a 	mov	r5,r23
 4026c70:	9809883a 	mov	r4,r19
 4026c74:	d9c03c15 	stw	r7,240(sp)
 4026c78:	402c4c00 	call	402c4c0 <__sprint_r>
 4026c7c:	d9c03c17 	ldw	r7,240(sp)
 4026c80:	103bd71e 	bne	r2,zero,4025be0 <__flash_rwdata_start+0xffff330c>
 4026c84:	d8c02017 	ldw	r3,128(sp)
 4026c88:	dc401f17 	ldw	r17,124(sp)
 4026c8c:	dd800404 	addi	r22,sp,16
 4026c90:	003fec06 	br	4026c44 <__flash_rwdata_start+0xffff4370>
 4026c94:	9080100c 	andi	r2,r18,64
 4026c98:	d8002785 	stb	zero,158(sp)
 4026c9c:	10010e26 	beq	r2,zero,40270d8 <___vfprintf_internal_r+0x1908>
 4026ca0:	d9402e17 	ldw	r5,184(sp)
 4026ca4:	d8c02a17 	ldw	r3,168(sp)
 4026ca8:	002d883a 	mov	r22,zero
 4026cac:	28800104 	addi	r2,r5,4
 4026cb0:	2cc0000b 	ldhu	r19,0(r5)
 4026cb4:	183fc90e 	bge	r3,zero,4026bdc <__flash_rwdata_start+0xffff4308>
 4026cb8:	d8802e15 	stw	r2,184(sp)
 4026cbc:	0039883a 	mov	fp,zero
 4026cc0:	9d84b03a 	or	r2,r19,r22
 4026cc4:	103c1e1e 	bne	r2,zero,4025d40 <__flash_rwdata_start+0xffff346c>
 4026cc8:	00800044 	movi	r2,1
 4026ccc:	003e6c06 	br	4026680 <__flash_rwdata_start+0xffff3dac>
 4026cd0:	d9002d17 	ldw	r4,180(sp)
 4026cd4:	d9801e04 	addi	r6,sp,120
 4026cd8:	b80b883a 	mov	r5,r23
 4026cdc:	402c4c00 	call	402c4c0 <__sprint_r>
 4026ce0:	103bbf1e 	bne	r2,zero,4025be0 <__flash_rwdata_start+0xffff330c>
 4026ce4:	d8c02017 	ldw	r3,128(sp)
 4026ce8:	da000404 	addi	r8,sp,16
 4026cec:	d9003217 	ldw	r4,200(sp)
 4026cf0:	d8802617 	ldw	r2,152(sp)
 4026cf4:	d9403317 	ldw	r5,204(sp)
 4026cf8:	8123883a 	add	r17,r16,r4
 4026cfc:	11400216 	blt	r2,r5,4026d08 <___vfprintf_internal_r+0x1538>
 4026d00:	9100004c 	andi	r4,r18,1
 4026d04:	20000d26 	beq	r4,zero,4026d3c <___vfprintf_internal_r+0x156c>
 4026d08:	d9003717 	ldw	r4,220(sp)
 4026d0c:	d9403417 	ldw	r5,208(sp)
 4026d10:	1907883a 	add	r3,r3,r4
 4026d14:	d9001f17 	ldw	r4,124(sp)
 4026d18:	41400015 	stw	r5,0(r8)
 4026d1c:	d9403717 	ldw	r5,220(sp)
 4026d20:	21000044 	addi	r4,r4,1
 4026d24:	d8c02015 	stw	r3,128(sp)
 4026d28:	41400115 	stw	r5,4(r8)
 4026d2c:	d9001f15 	stw	r4,124(sp)
 4026d30:	014001c4 	movi	r5,7
 4026d34:	2901e816 	blt	r5,r4,40274d8 <___vfprintf_internal_r+0x1d08>
 4026d38:	42000204 	addi	r8,r8,8
 4026d3c:	d9003317 	ldw	r4,204(sp)
 4026d40:	8121883a 	add	r16,r16,r4
 4026d44:	2085c83a 	sub	r2,r4,r2
 4026d48:	8461c83a 	sub	r16,r16,r17
 4026d4c:	1400010e 	bge	r2,r16,4026d54 <___vfprintf_internal_r+0x1584>
 4026d50:	1021883a 	mov	r16,r2
 4026d54:	04000a0e 	bge	zero,r16,4026d80 <___vfprintf_internal_r+0x15b0>
 4026d58:	d9001f17 	ldw	r4,124(sp)
 4026d5c:	1c07883a 	add	r3,r3,r16
 4026d60:	44400015 	stw	r17,0(r8)
 4026d64:	21000044 	addi	r4,r4,1
 4026d68:	44000115 	stw	r16,4(r8)
 4026d6c:	d8c02015 	stw	r3,128(sp)
 4026d70:	d9001f15 	stw	r4,124(sp)
 4026d74:	014001c4 	movi	r5,7
 4026d78:	2901fb16 	blt	r5,r4,4027568 <___vfprintf_internal_r+0x1d98>
 4026d7c:	42000204 	addi	r8,r8,8
 4026d80:	8001f716 	blt	r16,zero,4027560 <___vfprintf_internal_r+0x1d90>
 4026d84:	1421c83a 	sub	r16,r2,r16
 4026d88:	043d160e 	bge	zero,r16,40261e4 <__flash_rwdata_start+0xffff3910>
 4026d8c:	04400404 	movi	r17,16
 4026d90:	d8801f17 	ldw	r2,124(sp)
 4026d94:	8c3efb0e 	bge	r17,r16,4026984 <__flash_rwdata_start+0xffff40b0>
 4026d98:	01400034 	movhi	r5,0
 4026d9c:	29405f84 	addi	r5,r5,382
 4026da0:	d9402c15 	stw	r5,176(sp)
 4026da4:	058001c4 	movi	r22,7
 4026da8:	dcc02d17 	ldw	r19,180(sp)
 4026dac:	00000306 	br	4026dbc <___vfprintf_internal_r+0x15ec>
 4026db0:	42000204 	addi	r8,r8,8
 4026db4:	843ffc04 	addi	r16,r16,-16
 4026db8:	8c3ef50e 	bge	r17,r16,4026990 <__flash_rwdata_start+0xffff40bc>
 4026dbc:	18c00404 	addi	r3,r3,16
 4026dc0:	10800044 	addi	r2,r2,1
 4026dc4:	45000015 	stw	r20,0(r8)
 4026dc8:	44400115 	stw	r17,4(r8)
 4026dcc:	d8c02015 	stw	r3,128(sp)
 4026dd0:	d8801f15 	stw	r2,124(sp)
 4026dd4:	b0bff60e 	bge	r22,r2,4026db0 <__flash_rwdata_start+0xffff44dc>
 4026dd8:	d9801e04 	addi	r6,sp,120
 4026ddc:	b80b883a 	mov	r5,r23
 4026de0:	9809883a 	mov	r4,r19
 4026de4:	402c4c00 	call	402c4c0 <__sprint_r>
 4026de8:	103b7d1e 	bne	r2,zero,4025be0 <__flash_rwdata_start+0xffff330c>
 4026dec:	d8c02017 	ldw	r3,128(sp)
 4026df0:	d8801f17 	ldw	r2,124(sp)
 4026df4:	da000404 	addi	r8,sp,16
 4026df8:	003fee06 	br	4026db4 <__flash_rwdata_start+0xffff44e0>
 4026dfc:	9088703a 	and	r4,r18,r2
 4026e00:	203eab1e 	bne	r4,zero,40268b0 <__flash_rwdata_start+0xffff3fdc>
 4026e04:	dc401f17 	ldw	r17,124(sp)
 4026e08:	40800115 	stw	r2,4(r8)
 4026e0c:	44000015 	stw	r16,0(r8)
 4026e10:	8c400044 	addi	r17,r17,1
 4026e14:	d8c02015 	stw	r3,128(sp)
 4026e18:	dc401f15 	stw	r17,124(sp)
 4026e1c:	008001c4 	movi	r2,7
 4026e20:	14400e16 	blt	r2,r17,4026e5c <___vfprintf_internal_r+0x168c>
 4026e24:	45800204 	addi	r22,r8,8
 4026e28:	003eca06 	br	4026954 <__flash_rwdata_start+0xffff4080>
 4026e2c:	01000034 	movhi	r4,0
 4026e30:	21005f84 	addi	r4,r4,382
 4026e34:	d9002c15 	stw	r4,176(sp)
 4026e38:	d8802c17 	ldw	r2,176(sp)
 4026e3c:	1c07883a 	add	r3,r3,r16
 4026e40:	8c400044 	addi	r17,r17,1
 4026e44:	b0800015 	stw	r2,0(r22)
 4026e48:	b4000115 	stw	r16,4(r22)
 4026e4c:	d8c02015 	stw	r3,128(sp)
 4026e50:	dc401f15 	stw	r17,124(sp)
 4026e54:	008001c4 	movi	r2,7
 4026e58:	147ebd0e 	bge	r2,r17,4026950 <__flash_rwdata_start+0xffff407c>
 4026e5c:	d9002d17 	ldw	r4,180(sp)
 4026e60:	d9801e04 	addi	r6,sp,120
 4026e64:	b80b883a 	mov	r5,r23
 4026e68:	402c4c00 	call	402c4c0 <__sprint_r>
 4026e6c:	103b5c1e 	bne	r2,zero,4025be0 <__flash_rwdata_start+0xffff330c>
 4026e70:	d8c02017 	ldw	r3,128(sp)
 4026e74:	dc401f17 	ldw	r17,124(sp)
 4026e78:	dd800404 	addi	r22,sp,16
 4026e7c:	003eb506 	br	4026954 <__flash_rwdata_start+0xffff4080>
 4026e80:	d9002d17 	ldw	r4,180(sp)
 4026e84:	d9801e04 	addi	r6,sp,120
 4026e88:	b80b883a 	mov	r5,r23
 4026e8c:	402c4c00 	call	402c4c0 <__sprint_r>
 4026e90:	103b531e 	bne	r2,zero,4025be0 <__flash_rwdata_start+0xffff330c>
 4026e94:	d8c02017 	ldw	r3,128(sp)
 4026e98:	dc401f17 	ldw	r17,124(sp)
 4026e9c:	da000404 	addi	r8,sp,16
 4026ea0:	003e8d06 	br	40268d8 <__flash_rwdata_start+0xffff4004>
 4026ea4:	d9002d17 	ldw	r4,180(sp)
 4026ea8:	d9801e04 	addi	r6,sp,120
 4026eac:	b80b883a 	mov	r5,r23
 4026eb0:	402c4c00 	call	402c4c0 <__sprint_r>
 4026eb4:	103b4a1e 	bne	r2,zero,4025be0 <__flash_rwdata_start+0xffff330c>
 4026eb8:	d8c02017 	ldw	r3,128(sp)
 4026ebc:	dc401f17 	ldw	r17,124(sp)
 4026ec0:	dd800404 	addi	r22,sp,16
 4026ec4:	003e8f06 	br	4026904 <__flash_rwdata_start+0xffff4030>
 4026ec8:	0027883a 	mov	r19,zero
 4026ecc:	003f4a06 	br	4026bf8 <__flash_rwdata_start+0xffff4324>
 4026ed0:	d9002d17 	ldw	r4,180(sp)
 4026ed4:	d9801e04 	addi	r6,sp,120
 4026ed8:	b80b883a 	mov	r5,r23
 4026edc:	402c4c00 	call	402c4c0 <__sprint_r>
 4026ee0:	103b3f1e 	bne	r2,zero,4025be0 <__flash_rwdata_start+0xffff330c>
 4026ee4:	d8c02017 	ldw	r3,128(sp)
 4026ee8:	da000404 	addi	r8,sp,16
 4026eec:	003c7b06 	br	40260dc <__flash_rwdata_start+0xffff3808>
 4026ef0:	d9402a17 	ldw	r5,168(sp)
 4026ef4:	04e7c83a 	sub	r19,zero,r19
 4026ef8:	07000b44 	movi	fp,45
 4026efc:	9804c03a 	cmpne	r2,r19,zero
 4026f00:	05adc83a 	sub	r22,zero,r22
 4026f04:	df002785 	stb	fp,158(sp)
 4026f08:	b0adc83a 	sub	r22,r22,r2
 4026f0c:	28017b16 	blt	r5,zero,40274fc <___vfprintf_internal_r+0x1d2c>
 4026f10:	00bfdfc4 	movi	r2,-129
 4026f14:	90a4703a 	and	r18,r18,r2
 4026f18:	003b8906 	br	4025d40 <__flash_rwdata_start+0xffff346c>
 4026f1c:	d9003617 	ldw	r4,216(sp)
 4026f20:	d9403817 	ldw	r5,224(sp)
 4026f24:	da003d15 	stw	r8,244(sp)
 4026f28:	402c04c0 	call	402c04c <__fpclassifyd>
 4026f2c:	da003d17 	ldw	r8,244(sp)
 4026f30:	1000f026 	beq	r2,zero,40272f4 <___vfprintf_internal_r+0x1b24>
 4026f34:	d9002a17 	ldw	r4,168(sp)
 4026f38:	05bff7c4 	movi	r22,-33
 4026f3c:	00bfffc4 	movi	r2,-1
 4026f40:	8dac703a 	and	r22,r17,r22
 4026f44:	20820026 	beq	r4,r2,4027748 <___vfprintf_internal_r+0x1f78>
 4026f48:	008011c4 	movi	r2,71
 4026f4c:	b081f726 	beq	r22,r2,402772c <___vfprintf_internal_r+0x1f5c>
 4026f50:	d9003817 	ldw	r4,224(sp)
 4026f54:	90c04014 	ori	r3,r18,256
 4026f58:	d8c02c15 	stw	r3,176(sp)
 4026f5c:	20021516 	blt	r4,zero,40277b4 <___vfprintf_internal_r+0x1fe4>
 4026f60:	dcc03817 	ldw	r19,224(sp)
 4026f64:	d8002905 	stb	zero,164(sp)
 4026f68:	00801984 	movi	r2,102
 4026f6c:	8881f926 	beq	r17,r2,4027754 <___vfprintf_internal_r+0x1f84>
 4026f70:	00801184 	movi	r2,70
 4026f74:	88821c26 	beq	r17,r2,40277e8 <___vfprintf_internal_r+0x2018>
 4026f78:	00801144 	movi	r2,69
 4026f7c:	b081ef26 	beq	r22,r2,402773c <___vfprintf_internal_r+0x1f6c>
 4026f80:	d8c02a17 	ldw	r3,168(sp)
 4026f84:	d8802104 	addi	r2,sp,132
 4026f88:	d8800315 	stw	r2,12(sp)
 4026f8c:	d9403617 	ldw	r5,216(sp)
 4026f90:	d8802504 	addi	r2,sp,148
 4026f94:	d9002d17 	ldw	r4,180(sp)
 4026f98:	d8800215 	stw	r2,8(sp)
 4026f9c:	d8802604 	addi	r2,sp,152
 4026fa0:	d8c00015 	stw	r3,0(sp)
 4026fa4:	d8800115 	stw	r2,4(sp)
 4026fa8:	01c00084 	movi	r7,2
 4026fac:	980d883a 	mov	r6,r19
 4026fb0:	d8c03c15 	stw	r3,240(sp)
 4026fb4:	da003d15 	stw	r8,244(sp)
 4026fb8:	4027f000 	call	4027f00 <_dtoa_r>
 4026fbc:	1021883a 	mov	r16,r2
 4026fc0:	008019c4 	movi	r2,103
 4026fc4:	d8c03c17 	ldw	r3,240(sp)
 4026fc8:	da003d17 	ldw	r8,244(sp)
 4026fcc:	88817126 	beq	r17,r2,4027594 <___vfprintf_internal_r+0x1dc4>
 4026fd0:	008011c4 	movi	r2,71
 4026fd4:	88829126 	beq	r17,r2,4027a1c <___vfprintf_internal_r+0x224c>
 4026fd8:	80f9883a 	add	fp,r16,r3
 4026fdc:	d9003617 	ldw	r4,216(sp)
 4026fe0:	000d883a 	mov	r6,zero
 4026fe4:	000f883a 	mov	r7,zero
 4026fe8:	980b883a 	mov	r5,r19
 4026fec:	da003d15 	stw	r8,244(sp)
 4026ff0:	402fb500 	call	402fb50 <__eqdf2>
 4026ff4:	da003d17 	ldw	r8,244(sp)
 4026ff8:	10018d26 	beq	r2,zero,4027630 <___vfprintf_internal_r+0x1e60>
 4026ffc:	d8802117 	ldw	r2,132(sp)
 4027000:	1700062e 	bgeu	r2,fp,402701c <___vfprintf_internal_r+0x184c>
 4027004:	01000c04 	movi	r4,48
 4027008:	10c00044 	addi	r3,r2,1
 402700c:	d8c02115 	stw	r3,132(sp)
 4027010:	11000005 	stb	r4,0(r2)
 4027014:	d8802117 	ldw	r2,132(sp)
 4027018:	173ffb36 	bltu	r2,fp,4027008 <__flash_rwdata_start+0xffff4734>
 402701c:	1405c83a 	sub	r2,r2,r16
 4027020:	d8803315 	stw	r2,204(sp)
 4027024:	008011c4 	movi	r2,71
 4027028:	b0817626 	beq	r22,r2,4027604 <___vfprintf_internal_r+0x1e34>
 402702c:	00801944 	movi	r2,101
 4027030:	1442800e 	bge	r2,r17,4027a34 <___vfprintf_internal_r+0x2264>
 4027034:	d8c02617 	ldw	r3,152(sp)
 4027038:	00801984 	movi	r2,102
 402703c:	d8c03215 	stw	r3,200(sp)
 4027040:	8881fe26 	beq	r17,r2,402783c <___vfprintf_internal_r+0x206c>
 4027044:	d8c03217 	ldw	r3,200(sp)
 4027048:	d9003317 	ldw	r4,204(sp)
 402704c:	1901dd16 	blt	r3,r4,40277c4 <___vfprintf_internal_r+0x1ff4>
 4027050:	9480004c 	andi	r18,r18,1
 4027054:	90022b1e 	bne	r18,zero,4027904 <___vfprintf_internal_r+0x2134>
 4027058:	1805883a 	mov	r2,r3
 402705c:	18028316 	blt	r3,zero,4027a6c <___vfprintf_internal_r+0x229c>
 4027060:	d8c03217 	ldw	r3,200(sp)
 4027064:	044019c4 	movi	r17,103
 4027068:	d8c02b15 	stw	r3,172(sp)
 402706c:	df002907 	ldb	fp,164(sp)
 4027070:	e001531e 	bne	fp,zero,40275c0 <___vfprintf_internal_r+0x1df0>
 4027074:	df002783 	ldbu	fp,158(sp)
 4027078:	d8802915 	stw	r2,164(sp)
 402707c:	dc802c17 	ldw	r18,176(sp)
 4027080:	d8002a15 	stw	zero,168(sp)
 4027084:	003baf06 	br	4025f44 <__flash_rwdata_start+0xffff3670>
 4027088:	d8c02e17 	ldw	r3,184(sp)
 402708c:	d9002e17 	ldw	r4,184(sp)
 4027090:	d9402e17 	ldw	r5,184(sp)
 4027094:	18c00017 	ldw	r3,0(r3)
 4027098:	21000117 	ldw	r4,4(r4)
 402709c:	29400204 	addi	r5,r5,8
 40270a0:	d8c03615 	stw	r3,216(sp)
 40270a4:	d9003815 	stw	r4,224(sp)
 40270a8:	d9402e15 	stw	r5,184(sp)
 40270ac:	003b5006 	br	4025df0 <__flash_rwdata_start+0xffff351c>
 40270b0:	ac400007 	ldb	r17,0(r21)
 40270b4:	003a2806 	br	4025958 <__flash_rwdata_start+0xffff3084>
 40270b8:	9080100c 	andi	r2,r18,64
 40270bc:	1000a826 	beq	r2,zero,4027360 <___vfprintf_internal_r+0x1b90>
 40270c0:	d8c02e17 	ldw	r3,184(sp)
 40270c4:	002d883a 	mov	r22,zero
 40270c8:	1cc0000b 	ldhu	r19,0(r3)
 40270cc:	18c00104 	addi	r3,r3,4
 40270d0:	d8c02e15 	stw	r3,184(sp)
 40270d4:	003caf06 	br	4026394 <__flash_rwdata_start+0xffff3ac0>
 40270d8:	d9002e17 	ldw	r4,184(sp)
 40270dc:	d9402a17 	ldw	r5,168(sp)
 40270e0:	002d883a 	mov	r22,zero
 40270e4:	20800104 	addi	r2,r4,4
 40270e8:	24c00017 	ldw	r19,0(r4)
 40270ec:	283ebb0e 	bge	r5,zero,4026bdc <__flash_rwdata_start+0xffff4308>
 40270f0:	003ef106 	br	4026cb8 <__flash_rwdata_start+0xffff43e4>
 40270f4:	9080040c 	andi	r2,r18,16
 40270f8:	1000921e 	bne	r2,zero,4027344 <___vfprintf_internal_r+0x1b74>
 40270fc:	9480100c 	andi	r18,r18,64
 4027100:	90013926 	beq	r18,zero,40275e8 <___vfprintf_internal_r+0x1e18>
 4027104:	d9402e17 	ldw	r5,184(sp)
 4027108:	d8c02f17 	ldw	r3,188(sp)
 402710c:	28800017 	ldw	r2,0(r5)
 4027110:	29400104 	addi	r5,r5,4
 4027114:	d9402e15 	stw	r5,184(sp)
 4027118:	10c0000d 	sth	r3,0(r2)
 402711c:	0039e406 	br	40258b0 <__flash_rwdata_start+0xffff2fdc>
 4027120:	9080100c 	andi	r2,r18,64
 4027124:	10008026 	beq	r2,zero,4027328 <___vfprintf_internal_r+0x1b58>
 4027128:	d8802e17 	ldw	r2,184(sp)
 402712c:	14c0000f 	ldh	r19,0(r2)
 4027130:	10800104 	addi	r2,r2,4
 4027134:	d8802e15 	stw	r2,184(sp)
 4027138:	982dd7fa 	srai	r22,r19,31
 402713c:	b005883a 	mov	r2,r22
 4027140:	003af706 	br	4025d20 <__flash_rwdata_start+0xffff344c>
 4027144:	9080100c 	andi	r2,r18,64
 4027148:	d8002785 	stb	zero,158(sp)
 402714c:	10008a1e 	bne	r2,zero,4027378 <___vfprintf_internal_r+0x1ba8>
 4027150:	d9002e17 	ldw	r4,184(sp)
 4027154:	d9402a17 	ldw	r5,168(sp)
 4027158:	002d883a 	mov	r22,zero
 402715c:	20800104 	addi	r2,r4,4
 4027160:	24c00017 	ldw	r19,0(r4)
 4027164:	283e4b0e 	bge	r5,zero,4026a94 <__flash_rwdata_start+0xffff41c0>
 4027168:	9d86b03a 	or	r3,r19,r22
 402716c:	d8802e15 	stw	r2,184(sp)
 4027170:	183e4c1e 	bne	r3,zero,4026aa4 <__flash_rwdata_start+0xffff41d0>
 4027174:	0039883a 	mov	fp,zero
 4027178:	0005883a 	mov	r2,zero
 402717c:	003d4006 	br	4026680 <__flash_rwdata_start+0xffff3dac>
 4027180:	01400034 	movhi	r5,0
 4027184:	29405f84 	addi	r5,r5,382
 4027188:	d9402c15 	stw	r5,176(sp)
 402718c:	d9402c17 	ldw	r5,176(sp)
 4027190:	1c47883a 	add	r3,r3,r17
 4027194:	10800044 	addi	r2,r2,1
 4027198:	41400015 	stw	r5,0(r8)
 402719c:	44400115 	stw	r17,4(r8)
 40271a0:	d8c02015 	stw	r3,128(sp)
 40271a4:	d8801f15 	stw	r2,124(sp)
 40271a8:	010001c4 	movi	r4,7
 40271ac:	20bec816 	blt	r4,r2,4026cd0 <__flash_rwdata_start+0xffff43fc>
 40271b0:	42000204 	addi	r8,r8,8
 40271b4:	003ecd06 	br	4026cec <__flash_rwdata_start+0xffff4418>
 40271b8:	d9002a17 	ldw	r4,168(sp)
 40271bc:	d8002785 	stb	zero,158(sp)
 40271c0:	203d2d16 	blt	r4,zero,4026678 <__flash_rwdata_start+0xffff3da4>
 40271c4:	00bfdfc4 	movi	r2,-129
 40271c8:	90a4703a 	and	r18,r18,r2
 40271cc:	003a6106 	br	4025b54 <__flash_rwdata_start+0xffff3280>
 40271d0:	01000034 	movhi	r4,0
 40271d4:	21005f84 	addi	r4,r4,382
 40271d8:	d9002c15 	stw	r4,176(sp)
 40271dc:	003bea06 	br	4026188 <__flash_rwdata_start+0xffff38b4>
 40271e0:	d9002d17 	ldw	r4,180(sp)
 40271e4:	d9801e04 	addi	r6,sp,120
 40271e8:	b80b883a 	mov	r5,r23
 40271ec:	402c4c00 	call	402c4c0 <__sprint_r>
 40271f0:	103a7b1e 	bne	r2,zero,4025be0 <__flash_rwdata_start+0xffff330c>
 40271f4:	d8c02017 	ldw	r3,128(sp)
 40271f8:	da000404 	addi	r8,sp,16
 40271fc:	003d4106 	br	4026704 <__flash_rwdata_start+0xffff3e30>
 4027200:	d8801f17 	ldw	r2,124(sp)
 4027204:	01400034 	movhi	r5,0
 4027208:	01000044 	movi	r4,1
 402720c:	18c00044 	addi	r3,r3,1
 4027210:	10800044 	addi	r2,r2,1
 4027214:	29405f04 	addi	r5,r5,380
 4027218:	41000115 	stw	r4,4(r8)
 402721c:	41400015 	stw	r5,0(r8)
 4027220:	d8c02015 	stw	r3,128(sp)
 4027224:	d8801f15 	stw	r2,124(sp)
 4027228:	010001c4 	movi	r4,7
 402722c:	20805c16 	blt	r4,r2,40273a0 <___vfprintf_internal_r+0x1bd0>
 4027230:	42000204 	addi	r8,r8,8
 4027234:	8800041e 	bne	r17,zero,4027248 <___vfprintf_internal_r+0x1a78>
 4027238:	d8803317 	ldw	r2,204(sp)
 402723c:	1000021e 	bne	r2,zero,4027248 <___vfprintf_internal_r+0x1a78>
 4027240:	9080004c 	andi	r2,r18,1
 4027244:	103be726 	beq	r2,zero,40261e4 <__flash_rwdata_start+0xffff3910>
 4027248:	d9003717 	ldw	r4,220(sp)
 402724c:	d8801f17 	ldw	r2,124(sp)
 4027250:	d9403417 	ldw	r5,208(sp)
 4027254:	20c7883a 	add	r3,r4,r3
 4027258:	10800044 	addi	r2,r2,1
 402725c:	41000115 	stw	r4,4(r8)
 4027260:	41400015 	stw	r5,0(r8)
 4027264:	d8c02015 	stw	r3,128(sp)
 4027268:	d8801f15 	stw	r2,124(sp)
 402726c:	010001c4 	movi	r4,7
 4027270:	20812116 	blt	r4,r2,40276f8 <___vfprintf_internal_r+0x1f28>
 4027274:	42000204 	addi	r8,r8,8
 4027278:	0463c83a 	sub	r17,zero,r17
 402727c:	0440730e 	bge	zero,r17,402744c <___vfprintf_internal_r+0x1c7c>
 4027280:	05800404 	movi	r22,16
 4027284:	b440860e 	bge	r22,r17,40274a0 <___vfprintf_internal_r+0x1cd0>
 4027288:	01400034 	movhi	r5,0
 402728c:	29405f84 	addi	r5,r5,382
 4027290:	d9402c15 	stw	r5,176(sp)
 4027294:	070001c4 	movi	fp,7
 4027298:	dcc02d17 	ldw	r19,180(sp)
 402729c:	00000306 	br	40272ac <___vfprintf_internal_r+0x1adc>
 40272a0:	42000204 	addi	r8,r8,8
 40272a4:	8c7ffc04 	addi	r17,r17,-16
 40272a8:	b440800e 	bge	r22,r17,40274ac <___vfprintf_internal_r+0x1cdc>
 40272ac:	18c00404 	addi	r3,r3,16
 40272b0:	10800044 	addi	r2,r2,1
 40272b4:	45000015 	stw	r20,0(r8)
 40272b8:	45800115 	stw	r22,4(r8)
 40272bc:	d8c02015 	stw	r3,128(sp)
 40272c0:	d8801f15 	stw	r2,124(sp)
 40272c4:	e0bff60e 	bge	fp,r2,40272a0 <__flash_rwdata_start+0xffff49cc>
 40272c8:	d9801e04 	addi	r6,sp,120
 40272cc:	b80b883a 	mov	r5,r23
 40272d0:	9809883a 	mov	r4,r19
 40272d4:	402c4c00 	call	402c4c0 <__sprint_r>
 40272d8:	103a411e 	bne	r2,zero,4025be0 <__flash_rwdata_start+0xffff330c>
 40272dc:	d8c02017 	ldw	r3,128(sp)
 40272e0:	d8801f17 	ldw	r2,124(sp)
 40272e4:	da000404 	addi	r8,sp,16
 40272e8:	003fee06 	br	40272a4 <__flash_rwdata_start+0xffff49d0>
 40272ec:	00bfffc4 	movi	r2,-1
 40272f0:	003a3f06 	br	4025bf0 <__flash_rwdata_start+0xffff331c>
 40272f4:	008011c4 	movi	r2,71
 40272f8:	1440b816 	blt	r2,r17,40275dc <___vfprintf_internal_r+0x1e0c>
 40272fc:	04000034 	movhi	r16,0
 4027300:	84005104 	addi	r16,r16,324
 4027304:	00c000c4 	movi	r3,3
 4027308:	00bfdfc4 	movi	r2,-129
 402730c:	d8c02915 	stw	r3,164(sp)
 4027310:	90a4703a 	and	r18,r18,r2
 4027314:	df002783 	ldbu	fp,158(sp)
 4027318:	d8c02b15 	stw	r3,172(sp)
 402731c:	d8002a15 	stw	zero,168(sp)
 4027320:	d8003215 	stw	zero,200(sp)
 4027324:	003b0706 	br	4025f44 <__flash_rwdata_start+0xffff3670>
 4027328:	d8c02e17 	ldw	r3,184(sp)
 402732c:	1cc00017 	ldw	r19,0(r3)
 4027330:	18c00104 	addi	r3,r3,4
 4027334:	d8c02e15 	stw	r3,184(sp)
 4027338:	982dd7fa 	srai	r22,r19,31
 402733c:	b005883a 	mov	r2,r22
 4027340:	003a7706 	br	4025d20 <__flash_rwdata_start+0xffff344c>
 4027344:	d8c02e17 	ldw	r3,184(sp)
 4027348:	d9002f17 	ldw	r4,188(sp)
 402734c:	18800017 	ldw	r2,0(r3)
 4027350:	18c00104 	addi	r3,r3,4
 4027354:	d8c02e15 	stw	r3,184(sp)
 4027358:	11000015 	stw	r4,0(r2)
 402735c:	00395406 	br	40258b0 <__flash_rwdata_start+0xffff2fdc>
 4027360:	d9002e17 	ldw	r4,184(sp)
 4027364:	002d883a 	mov	r22,zero
 4027368:	24c00017 	ldw	r19,0(r4)
 402736c:	21000104 	addi	r4,r4,4
 4027370:	d9002e15 	stw	r4,184(sp)
 4027374:	003c0706 	br	4026394 <__flash_rwdata_start+0xffff3ac0>
 4027378:	d9402e17 	ldw	r5,184(sp)
 402737c:	d8c02a17 	ldw	r3,168(sp)
 4027380:	002d883a 	mov	r22,zero
 4027384:	28800104 	addi	r2,r5,4
 4027388:	2cc0000b 	ldhu	r19,0(r5)
 402738c:	183dc10e 	bge	r3,zero,4026a94 <__flash_rwdata_start+0xffff41c0>
 4027390:	003f7506 	br	4027168 <__flash_rwdata_start+0xffff4894>
 4027394:	04000034 	movhi	r16,0
 4027398:	84004f04 	addi	r16,r16,316
 402739c:	003aa706 	br	4025e3c <__flash_rwdata_start+0xffff3568>
 40273a0:	d9002d17 	ldw	r4,180(sp)
 40273a4:	d9801e04 	addi	r6,sp,120
 40273a8:	b80b883a 	mov	r5,r23
 40273ac:	402c4c00 	call	402c4c0 <__sprint_r>
 40273b0:	103a0b1e 	bne	r2,zero,4025be0 <__flash_rwdata_start+0xffff330c>
 40273b4:	dc402617 	ldw	r17,152(sp)
 40273b8:	d8c02017 	ldw	r3,128(sp)
 40273bc:	da000404 	addi	r8,sp,16
 40273c0:	003f9c06 	br	4027234 <__flash_rwdata_start+0xffff4960>
 40273c4:	ac400043 	ldbu	r17,1(r21)
 40273c8:	84000814 	ori	r16,r16,32
 40273cc:	ad400044 	addi	r21,r21,1
 40273d0:	8c403fcc 	andi	r17,r17,255
 40273d4:	8c40201c 	xori	r17,r17,128
 40273d8:	8c7fe004 	addi	r17,r17,-128
 40273dc:	00395e06 	br	4025958 <__flash_rwdata_start+0xffff3084>
 40273e0:	d8c02e15 	stw	r3,184(sp)
 40273e4:	0039883a 	mov	fp,zero
 40273e8:	003e3506 	br	4026cc0 <__flash_rwdata_start+0xffff43ec>
 40273ec:	d9002d17 	ldw	r4,180(sp)
 40273f0:	d9801e04 	addi	r6,sp,120
 40273f4:	b80b883a 	mov	r5,r23
 40273f8:	402c4c00 	call	402c4c0 <__sprint_r>
 40273fc:	1039f81e 	bne	r2,zero,4025be0 <__flash_rwdata_start+0xffff330c>
 4027400:	d8c02017 	ldw	r3,128(sp)
 4027404:	da000404 	addi	r8,sp,16
 4027408:	003cd006 	br	402674c <__flash_rwdata_start+0xffff3e78>
 402740c:	8009883a 	mov	r4,r16
 4027410:	df003d15 	stw	fp,244(sp)
 4027414:	402c32c0 	call	402c32c <strlen>
 4027418:	d8802b15 	stw	r2,172(sp)
 402741c:	da003d17 	ldw	r8,244(sp)
 4027420:	103c200e 	bge	r2,zero,40264a4 <__flash_rwdata_start+0xffff3bd0>
 4027424:	0005883a 	mov	r2,zero
 4027428:	003c1e06 	br	40264a4 <__flash_rwdata_start+0xffff3bd0>
 402742c:	d9002d17 	ldw	r4,180(sp)
 4027430:	d9801e04 	addi	r6,sp,120
 4027434:	b80b883a 	mov	r5,r23
 4027438:	402c4c00 	call	402c4c0 <__sprint_r>
 402743c:	1039e81e 	bne	r2,zero,4025be0 <__flash_rwdata_start+0xffff330c>
 4027440:	d8c02017 	ldw	r3,128(sp)
 4027444:	d8801f17 	ldw	r2,124(sp)
 4027448:	da000404 	addi	r8,sp,16
 402744c:	d9403317 	ldw	r5,204(sp)
 4027450:	10800044 	addi	r2,r2,1
 4027454:	44000015 	stw	r16,0(r8)
 4027458:	28c7883a 	add	r3,r5,r3
 402745c:	003b5b06 	br	40261cc <__flash_rwdata_start+0xffff38f8>
 4027460:	01000034 	movhi	r4,0
 4027464:	21006384 	addi	r4,r4,398
 4027468:	d9003515 	stw	r4,212(sp)
 402746c:	003af206 	br	4026038 <__flash_rwdata_start+0xffff3764>
 4027470:	013fffc4 	movi	r4,-1
 4027474:	003a0806 	br	4025c98 <__flash_rwdata_start+0xffff33c4>
 4027478:	0023883a 	mov	r17,zero
 402747c:	003d9d06 	br	4026af4 <__flash_rwdata_start+0xffff4220>
 4027480:	d9002d17 	ldw	r4,180(sp)
 4027484:	d9801e04 	addi	r6,sp,120
 4027488:	b80b883a 	mov	r5,r23
 402748c:	402c4c00 	call	402c4c0 <__sprint_r>
 4027490:	1039d31e 	bne	r2,zero,4025be0 <__flash_rwdata_start+0xffff330c>
 4027494:	d8c02017 	ldw	r3,128(sp)
 4027498:	da000404 	addi	r8,sp,16
 402749c:	003d9406 	br	4026af0 <__flash_rwdata_start+0xffff421c>
 40274a0:	01000034 	movhi	r4,0
 40274a4:	21005f84 	addi	r4,r4,382
 40274a8:	d9002c15 	stw	r4,176(sp)
 40274ac:	d9002c17 	ldw	r4,176(sp)
 40274b0:	1c47883a 	add	r3,r3,r17
 40274b4:	10800044 	addi	r2,r2,1
 40274b8:	41000015 	stw	r4,0(r8)
 40274bc:	44400115 	stw	r17,4(r8)
 40274c0:	d8c02015 	stw	r3,128(sp)
 40274c4:	d8801f15 	stw	r2,124(sp)
 40274c8:	010001c4 	movi	r4,7
 40274cc:	20bfd716 	blt	r4,r2,402742c <__flash_rwdata_start+0xffff4b58>
 40274d0:	42000204 	addi	r8,r8,8
 40274d4:	003fdd06 	br	402744c <__flash_rwdata_start+0xffff4b78>
 40274d8:	d9002d17 	ldw	r4,180(sp)
 40274dc:	d9801e04 	addi	r6,sp,120
 40274e0:	b80b883a 	mov	r5,r23
 40274e4:	402c4c00 	call	402c4c0 <__sprint_r>
 40274e8:	1039bd1e 	bne	r2,zero,4025be0 <__flash_rwdata_start+0xffff330c>
 40274ec:	d8802617 	ldw	r2,152(sp)
 40274f0:	d8c02017 	ldw	r3,128(sp)
 40274f4:	da000404 	addi	r8,sp,16
 40274f8:	003e1006 	br	4026d3c <__flash_rwdata_start+0xffff4468>
 40274fc:	00800044 	movi	r2,1
 4027500:	10803fcc 	andi	r2,r2,255
 4027504:	00c00044 	movi	r3,1
 4027508:	10fa0d26 	beq	r2,r3,4025d40 <__flash_rwdata_start+0xffff346c>
 402750c:	00c00084 	movi	r3,2
 4027510:	10fbaf26 	beq	r2,r3,40263d0 <__flash_rwdata_start+0xffff3afc>
 4027514:	003a6d06 	br	4025ecc <__flash_rwdata_start+0xffff35f8>
 4027518:	01000034 	movhi	r4,0
 402751c:	21006384 	addi	r4,r4,398
 4027520:	d9003515 	stw	r4,212(sp)
 4027524:	003b5406 	br	4026278 <__flash_rwdata_start+0xffff39a4>
 4027528:	d8802a17 	ldw	r2,168(sp)
 402752c:	00c00184 	movi	r3,6
 4027530:	1880012e 	bgeu	r3,r2,4027538 <___vfprintf_internal_r+0x1d68>
 4027534:	1805883a 	mov	r2,r3
 4027538:	d8802b15 	stw	r2,172(sp)
 402753c:	1000ef16 	blt	r2,zero,40278fc <___vfprintf_internal_r+0x212c>
 4027540:	04000034 	movhi	r16,0
 4027544:	d8802915 	stw	r2,164(sp)
 4027548:	dcc02e15 	stw	r19,184(sp)
 402754c:	d8002a15 	stw	zero,168(sp)
 4027550:	d8003215 	stw	zero,200(sp)
 4027554:	84005d04 	addi	r16,r16,372
 4027558:	0039883a 	mov	fp,zero
 402755c:	003a8006 	br	4025f60 <__flash_rwdata_start+0xffff368c>
 4027560:	0021883a 	mov	r16,zero
 4027564:	003e0706 	br	4026d84 <__flash_rwdata_start+0xffff44b0>
 4027568:	d9002d17 	ldw	r4,180(sp)
 402756c:	d9801e04 	addi	r6,sp,120
 4027570:	b80b883a 	mov	r5,r23
 4027574:	402c4c00 	call	402c4c0 <__sprint_r>
 4027578:	1039991e 	bne	r2,zero,4025be0 <__flash_rwdata_start+0xffff330c>
 402757c:	d8802617 	ldw	r2,152(sp)
 4027580:	d9403317 	ldw	r5,204(sp)
 4027584:	d8c02017 	ldw	r3,128(sp)
 4027588:	da000404 	addi	r8,sp,16
 402758c:	2885c83a 	sub	r2,r5,r2
 4027590:	003dfb06 	br	4026d80 <__flash_rwdata_start+0xffff44ac>
 4027594:	9080004c 	andi	r2,r18,1
 4027598:	103e8f1e 	bne	r2,zero,4026fd8 <__flash_rwdata_start+0xffff4704>
 402759c:	d8802117 	ldw	r2,132(sp)
 40275a0:	003e9e06 	br	402701c <__flash_rwdata_start+0xffff4748>
 40275a4:	1025883a 	mov	r18,r2
 40275a8:	0039883a 	mov	fp,zero
 40275ac:	00800084 	movi	r2,2
 40275b0:	003fd306 	br	4027500 <__flash_rwdata_start+0xffff4c2c>
 40275b4:	07000b44 	movi	fp,45
 40275b8:	df002785 	stb	fp,158(sp)
 40275bc:	003a1b06 	br	4025e2c <__flash_rwdata_start+0xffff3558>
 40275c0:	00c00b44 	movi	r3,45
 40275c4:	d8c02785 	stb	r3,158(sp)
 40275c8:	d8802915 	stw	r2,164(sp)
 40275cc:	dc802c17 	ldw	r18,176(sp)
 40275d0:	d8002a15 	stw	zero,168(sp)
 40275d4:	07000b44 	movi	fp,45
 40275d8:	003a5e06 	br	4025f54 <__flash_rwdata_start+0xffff3680>
 40275dc:	04000034 	movhi	r16,0
 40275e0:	84005204 	addi	r16,r16,328
 40275e4:	003f4706 	br	4027304 <__flash_rwdata_start+0xffff4a30>
 40275e8:	d9002e17 	ldw	r4,184(sp)
 40275ec:	d9402f17 	ldw	r5,188(sp)
 40275f0:	20800017 	ldw	r2,0(r4)
 40275f4:	21000104 	addi	r4,r4,4
 40275f8:	d9002e15 	stw	r4,184(sp)
 40275fc:	11400015 	stw	r5,0(r2)
 4027600:	0038ab06 	br	40258b0 <__flash_rwdata_start+0xffff2fdc>
 4027604:	dd802617 	ldw	r22,152(sp)
 4027608:	00bfff44 	movi	r2,-3
 402760c:	b0801c16 	blt	r22,r2,4027680 <___vfprintf_internal_r+0x1eb0>
 4027610:	d9402a17 	ldw	r5,168(sp)
 4027614:	2d801a16 	blt	r5,r22,4027680 <___vfprintf_internal_r+0x1eb0>
 4027618:	dd803215 	stw	r22,200(sp)
 402761c:	003e8906 	br	4027044 <__flash_rwdata_start+0xffff4770>
 4027620:	01000034 	movhi	r4,0
 4027624:	21005f84 	addi	r4,r4,382
 4027628:	d9002c15 	stw	r4,176(sp)
 402762c:	003c9106 	br	4026874 <__flash_rwdata_start+0xffff3fa0>
 4027630:	e005883a 	mov	r2,fp
 4027634:	003e7906 	br	402701c <__flash_rwdata_start+0xffff4748>
 4027638:	d9002a17 	ldw	r4,168(sp)
 402763c:	df002783 	ldbu	fp,158(sp)
 4027640:	dcc02e15 	stw	r19,184(sp)
 4027644:	d9002915 	stw	r4,164(sp)
 4027648:	d9002b15 	stw	r4,172(sp)
 402764c:	d8002a15 	stw	zero,168(sp)
 4027650:	d8003215 	stw	zero,200(sp)
 4027654:	003a3b06 	br	4025f44 <__flash_rwdata_start+0xffff3670>
 4027658:	9080004c 	andi	r2,r18,1
 402765c:	0039883a 	mov	fp,zero
 4027660:	10000426 	beq	r2,zero,4027674 <___vfprintf_internal_r+0x1ea4>
 4027664:	00800c04 	movi	r2,48
 4027668:	dc001dc4 	addi	r16,sp,119
 402766c:	d8801dc5 	stb	r2,119(sp)
 4027670:	003b6406 	br	4026404 <__flash_rwdata_start+0xffff3b30>
 4027674:	d8002b15 	stw	zero,172(sp)
 4027678:	dc001e04 	addi	r16,sp,120
 402767c:	003a2b06 	br	4025f2c <__flash_rwdata_start+0xffff3658>
 4027680:	8c7fff84 	addi	r17,r17,-2
 4027684:	b5bfffc4 	addi	r22,r22,-1
 4027688:	dd802615 	stw	r22,152(sp)
 402768c:	dc4022c5 	stb	r17,139(sp)
 4027690:	b000bf16 	blt	r22,zero,4027990 <___vfprintf_internal_r+0x21c0>
 4027694:	00800ac4 	movi	r2,43
 4027698:	d8802305 	stb	r2,140(sp)
 402769c:	00800244 	movi	r2,9
 40276a0:	15807016 	blt	r2,r22,4027864 <___vfprintf_internal_r+0x2094>
 40276a4:	00800c04 	movi	r2,48
 40276a8:	b5800c04 	addi	r22,r22,48
 40276ac:	d8802345 	stb	r2,141(sp)
 40276b0:	dd802385 	stb	r22,142(sp)
 40276b4:	d88023c4 	addi	r2,sp,143
 40276b8:	df0022c4 	addi	fp,sp,139
 40276bc:	d8c03317 	ldw	r3,204(sp)
 40276c0:	1739c83a 	sub	fp,r2,fp
 40276c4:	d9003317 	ldw	r4,204(sp)
 40276c8:	e0c7883a 	add	r3,fp,r3
 40276cc:	df003a15 	stw	fp,232(sp)
 40276d0:	d8c02b15 	stw	r3,172(sp)
 40276d4:	00800044 	movi	r2,1
 40276d8:	1100b30e 	bge	r2,r4,40279a8 <___vfprintf_internal_r+0x21d8>
 40276dc:	d8c02b17 	ldw	r3,172(sp)
 40276e0:	18c00044 	addi	r3,r3,1
 40276e4:	d8c02b15 	stw	r3,172(sp)
 40276e8:	1805883a 	mov	r2,r3
 40276ec:	1800ac16 	blt	r3,zero,40279a0 <___vfprintf_internal_r+0x21d0>
 40276f0:	d8003215 	stw	zero,200(sp)
 40276f4:	003e5d06 	br	402706c <__flash_rwdata_start+0xffff4798>
 40276f8:	d9002d17 	ldw	r4,180(sp)
 40276fc:	d9801e04 	addi	r6,sp,120
 4027700:	b80b883a 	mov	r5,r23
 4027704:	402c4c00 	call	402c4c0 <__sprint_r>
 4027708:	1039351e 	bne	r2,zero,4025be0 <__flash_rwdata_start+0xffff330c>
 402770c:	dc402617 	ldw	r17,152(sp)
 4027710:	d8c02017 	ldw	r3,128(sp)
 4027714:	d8801f17 	ldw	r2,124(sp)
 4027718:	da000404 	addi	r8,sp,16
 402771c:	003ed606 	br	4027278 <__flash_rwdata_start+0xffff49a4>
 4027720:	182b883a 	mov	r21,r3
 4027724:	d8002a15 	stw	zero,168(sp)
 4027728:	00388c06 	br	402595c <__flash_rwdata_start+0xffff3088>
 402772c:	d8802a17 	ldw	r2,168(sp)
 4027730:	103e071e 	bne	r2,zero,4026f50 <__flash_rwdata_start+0xffff467c>
 4027734:	dc002a15 	stw	r16,168(sp)
 4027738:	003e0506 	br	4026f50 <__flash_rwdata_start+0xffff467c>
 402773c:	d9002a17 	ldw	r4,168(sp)
 4027740:	20c00044 	addi	r3,r4,1
 4027744:	003e0f06 	br	4026f84 <__flash_rwdata_start+0xffff46b0>
 4027748:	01400184 	movi	r5,6
 402774c:	d9402a15 	stw	r5,168(sp)
 4027750:	003dff06 	br	4026f50 <__flash_rwdata_start+0xffff467c>
 4027754:	d8802104 	addi	r2,sp,132
 4027758:	d8800315 	stw	r2,12(sp)
 402775c:	d8802504 	addi	r2,sp,148
 4027760:	d8800215 	stw	r2,8(sp)
 4027764:	d8802604 	addi	r2,sp,152
 4027768:	d8800115 	stw	r2,4(sp)
 402776c:	d8802a17 	ldw	r2,168(sp)
 4027770:	d9403617 	ldw	r5,216(sp)
 4027774:	d9002d17 	ldw	r4,180(sp)
 4027778:	d8800015 	stw	r2,0(sp)
 402777c:	01c000c4 	movi	r7,3
 4027780:	980d883a 	mov	r6,r19
 4027784:	da003d15 	stw	r8,244(sp)
 4027788:	4027f000 	call	4027f00 <_dtoa_r>
 402778c:	d8c02a17 	ldw	r3,168(sp)
 4027790:	da003d17 	ldw	r8,244(sp)
 4027794:	1021883a 	mov	r16,r2
 4027798:	10f9883a 	add	fp,r2,r3
 402779c:	81000007 	ldb	r4,0(r16)
 40277a0:	00800c04 	movi	r2,48
 40277a4:	20805e26 	beq	r4,r2,4027920 <___vfprintf_internal_r+0x2150>
 40277a8:	d8c02617 	ldw	r3,152(sp)
 40277ac:	e0f9883a 	add	fp,fp,r3
 40277b0:	003e0a06 	br	4026fdc <__flash_rwdata_start+0xffff4708>
 40277b4:	00c00b44 	movi	r3,45
 40277b8:	24e0003c 	xorhi	r19,r4,32768
 40277bc:	d8c02905 	stb	r3,164(sp)
 40277c0:	003de906 	br	4026f68 <__flash_rwdata_start+0xffff4694>
 40277c4:	d8c03217 	ldw	r3,200(sp)
 40277c8:	00c07a0e 	bge	zero,r3,40279b4 <___vfprintf_internal_r+0x21e4>
 40277cc:	00800044 	movi	r2,1
 40277d0:	d9003317 	ldw	r4,204(sp)
 40277d4:	1105883a 	add	r2,r2,r4
 40277d8:	d8802b15 	stw	r2,172(sp)
 40277dc:	10004e16 	blt	r2,zero,4027918 <___vfprintf_internal_r+0x2148>
 40277e0:	044019c4 	movi	r17,103
 40277e4:	003e2106 	br	402706c <__flash_rwdata_start+0xffff4798>
 40277e8:	d9002a17 	ldw	r4,168(sp)
 40277ec:	d8802104 	addi	r2,sp,132
 40277f0:	d8800315 	stw	r2,12(sp)
 40277f4:	d9000015 	stw	r4,0(sp)
 40277f8:	d8802504 	addi	r2,sp,148
 40277fc:	d9403617 	ldw	r5,216(sp)
 4027800:	d9002d17 	ldw	r4,180(sp)
 4027804:	d8800215 	stw	r2,8(sp)
 4027808:	d8802604 	addi	r2,sp,152
 402780c:	d8800115 	stw	r2,4(sp)
 4027810:	01c000c4 	movi	r7,3
 4027814:	980d883a 	mov	r6,r19
 4027818:	da003d15 	stw	r8,244(sp)
 402781c:	4027f000 	call	4027f00 <_dtoa_r>
 4027820:	d8c02a17 	ldw	r3,168(sp)
 4027824:	da003d17 	ldw	r8,244(sp)
 4027828:	1021883a 	mov	r16,r2
 402782c:	00801184 	movi	r2,70
 4027830:	80f9883a 	add	fp,r16,r3
 4027834:	88bfd926 	beq	r17,r2,402779c <__flash_rwdata_start+0xffff4ec8>
 4027838:	003de806 	br	4026fdc <__flash_rwdata_start+0xffff4708>
 402783c:	d9002a17 	ldw	r4,168(sp)
 4027840:	00c04d0e 	bge	zero,r3,4027978 <___vfprintf_internal_r+0x21a8>
 4027844:	2000441e 	bne	r4,zero,4027958 <___vfprintf_internal_r+0x2188>
 4027848:	9480004c 	andi	r18,r18,1
 402784c:	9000421e 	bne	r18,zero,4027958 <___vfprintf_internal_r+0x2188>
 4027850:	1805883a 	mov	r2,r3
 4027854:	18006f16 	blt	r3,zero,4027a14 <___vfprintf_internal_r+0x2244>
 4027858:	d8c03217 	ldw	r3,200(sp)
 402785c:	d8c02b15 	stw	r3,172(sp)
 4027860:	003e0206 	br	402706c <__flash_rwdata_start+0xffff4798>
 4027864:	df0022c4 	addi	fp,sp,139
 4027868:	dc002a15 	stw	r16,168(sp)
 402786c:	4027883a 	mov	r19,r8
 4027870:	e021883a 	mov	r16,fp
 4027874:	b009883a 	mov	r4,r22
 4027878:	01400284 	movi	r5,10
 402787c:	40255fc0 	call	40255fc <__modsi3>
 4027880:	10800c04 	addi	r2,r2,48
 4027884:	843fffc4 	addi	r16,r16,-1
 4027888:	b009883a 	mov	r4,r22
 402788c:	01400284 	movi	r5,10
 4027890:	80800005 	stb	r2,0(r16)
 4027894:	40255780 	call	4025578 <__divsi3>
 4027898:	102d883a 	mov	r22,r2
 402789c:	00800244 	movi	r2,9
 40278a0:	15bff416 	blt	r2,r22,4027874 <__flash_rwdata_start+0xffff4fa0>
 40278a4:	9811883a 	mov	r8,r19
 40278a8:	b0800c04 	addi	r2,r22,48
 40278ac:	8027883a 	mov	r19,r16
 40278b0:	997fffc4 	addi	r5,r19,-1
 40278b4:	98bfffc5 	stb	r2,-1(r19)
 40278b8:	dc002a17 	ldw	r16,168(sp)
 40278bc:	2f006d2e 	bgeu	r5,fp,4027a74 <___vfprintf_internal_r+0x22a4>
 40278c0:	d9c02384 	addi	r7,sp,142
 40278c4:	3ccfc83a 	sub	r7,r7,r19
 40278c8:	d9002344 	addi	r4,sp,141
 40278cc:	e1cf883a 	add	r7,fp,r7
 40278d0:	00000106 	br	40278d8 <___vfprintf_internal_r+0x2108>
 40278d4:	28800003 	ldbu	r2,0(r5)
 40278d8:	20800005 	stb	r2,0(r4)
 40278dc:	21000044 	addi	r4,r4,1
 40278e0:	29400044 	addi	r5,r5,1
 40278e4:	393ffb1e 	bne	r7,r4,40278d4 <__flash_rwdata_start+0xffff5000>
 40278e8:	d8802304 	addi	r2,sp,140
 40278ec:	14c5c83a 	sub	r2,r2,r19
 40278f0:	d8c02344 	addi	r3,sp,141
 40278f4:	1885883a 	add	r2,r3,r2
 40278f8:	003f7006 	br	40276bc <__flash_rwdata_start+0xffff4de8>
 40278fc:	0005883a 	mov	r2,zero
 4027900:	003f0f06 	br	4027540 <__flash_rwdata_start+0xffff4c6c>
 4027904:	d8c03217 	ldw	r3,200(sp)
 4027908:	18c00044 	addi	r3,r3,1
 402790c:	d8c02b15 	stw	r3,172(sp)
 4027910:	1805883a 	mov	r2,r3
 4027914:	183fb20e 	bge	r3,zero,40277e0 <__flash_rwdata_start+0xffff4f0c>
 4027918:	0005883a 	mov	r2,zero
 402791c:	003fb006 	br	40277e0 <__flash_rwdata_start+0xffff4f0c>
 4027920:	d9003617 	ldw	r4,216(sp)
 4027924:	000d883a 	mov	r6,zero
 4027928:	000f883a 	mov	r7,zero
 402792c:	980b883a 	mov	r5,r19
 4027930:	d8c03c15 	stw	r3,240(sp)
 4027934:	da003d15 	stw	r8,244(sp)
 4027938:	402fb500 	call	402fb50 <__eqdf2>
 402793c:	d8c03c17 	ldw	r3,240(sp)
 4027940:	da003d17 	ldw	r8,244(sp)
 4027944:	103f9826 	beq	r2,zero,40277a8 <__flash_rwdata_start+0xffff4ed4>
 4027948:	00800044 	movi	r2,1
 402794c:	10c7c83a 	sub	r3,r2,r3
 4027950:	d8c02615 	stw	r3,152(sp)
 4027954:	003f9506 	br	40277ac <__flash_rwdata_start+0xffff4ed8>
 4027958:	d9002a17 	ldw	r4,168(sp)
 402795c:	d8c03217 	ldw	r3,200(sp)
 4027960:	20800044 	addi	r2,r4,1
 4027964:	1885883a 	add	r2,r3,r2
 4027968:	d8802b15 	stw	r2,172(sp)
 402796c:	103dbf0e 	bge	r2,zero,402706c <__flash_rwdata_start+0xffff4798>
 4027970:	0005883a 	mov	r2,zero
 4027974:	003dbd06 	br	402706c <__flash_rwdata_start+0xffff4798>
 4027978:	2000201e 	bne	r4,zero,40279fc <___vfprintf_internal_r+0x222c>
 402797c:	9480004c 	andi	r18,r18,1
 4027980:	90001e1e 	bne	r18,zero,40279fc <___vfprintf_internal_r+0x222c>
 4027984:	00800044 	movi	r2,1
 4027988:	d8802b15 	stw	r2,172(sp)
 402798c:	003db706 	br	402706c <__flash_rwdata_start+0xffff4798>
 4027990:	00800b44 	movi	r2,45
 4027994:	05adc83a 	sub	r22,zero,r22
 4027998:	d8802305 	stb	r2,140(sp)
 402799c:	003f3f06 	br	402769c <__flash_rwdata_start+0xffff4dc8>
 40279a0:	0005883a 	mov	r2,zero
 40279a4:	003f5206 	br	40276f0 <__flash_rwdata_start+0xffff4e1c>
 40279a8:	90a4703a 	and	r18,r18,r2
 40279ac:	903f4e26 	beq	r18,zero,40276e8 <__flash_rwdata_start+0xffff4e14>
 40279b0:	003f4a06 	br	40276dc <__flash_rwdata_start+0xffff4e08>
 40279b4:	00800084 	movi	r2,2
 40279b8:	10c5c83a 	sub	r2,r2,r3
 40279bc:	003f8406 	br	40277d0 <__flash_rwdata_start+0xffff4efc>
 40279c0:	d9402e17 	ldw	r5,184(sp)
 40279c4:	d9002e17 	ldw	r4,184(sp)
 40279c8:	ac400043 	ldbu	r17,1(r21)
 40279cc:	29400017 	ldw	r5,0(r5)
 40279d0:	20800104 	addi	r2,r4,4
 40279d4:	d8802e15 	stw	r2,184(sp)
 40279d8:	d9402a15 	stw	r5,168(sp)
 40279dc:	182b883a 	mov	r21,r3
 40279e0:	283e7b0e 	bge	r5,zero,40273d0 <__flash_rwdata_start+0xffff4afc>
 40279e4:	8c403fcc 	andi	r17,r17,255
 40279e8:	017fffc4 	movi	r5,-1
 40279ec:	8c40201c 	xori	r17,r17,128
 40279f0:	d9402a15 	stw	r5,168(sp)
 40279f4:	8c7fe004 	addi	r17,r17,-128
 40279f8:	0037d706 	br	4025958 <__flash_rwdata_start+0xffff3084>
 40279fc:	d8c02a17 	ldw	r3,168(sp)
 4027a00:	18c00084 	addi	r3,r3,2
 4027a04:	d8c02b15 	stw	r3,172(sp)
 4027a08:	1805883a 	mov	r2,r3
 4027a0c:	183d970e 	bge	r3,zero,402706c <__flash_rwdata_start+0xffff4798>
 4027a10:	003fd706 	br	4027970 <__flash_rwdata_start+0xffff509c>
 4027a14:	0005883a 	mov	r2,zero
 4027a18:	003f8f06 	br	4027858 <__flash_rwdata_start+0xffff4f84>
 4027a1c:	9080004c 	andi	r2,r18,1
 4027a20:	103f821e 	bne	r2,zero,402782c <__flash_rwdata_start+0xffff4f58>
 4027a24:	d8802117 	ldw	r2,132(sp)
 4027a28:	1405c83a 	sub	r2,r2,r16
 4027a2c:	d8803315 	stw	r2,204(sp)
 4027a30:	b47ef426 	beq	r22,r17,4027604 <__flash_rwdata_start+0xffff4d30>
 4027a34:	dd802617 	ldw	r22,152(sp)
 4027a38:	003f1206 	br	4027684 <__flash_rwdata_start+0xffff4db0>
 4027a3c:	d8c02b03 	ldbu	r3,172(sp)
 4027a40:	d8c02785 	stb	r3,158(sp)
 4027a44:	0038df06 	br	4025dc4 <__flash_rwdata_start+0xffff34f0>
 4027a48:	d8c02b03 	ldbu	r3,172(sp)
 4027a4c:	d8c02785 	stb	r3,158(sp)
 4027a50:	0038aa06 	br	4025cfc <__flash_rwdata_start+0xffff3428>
 4027a54:	d8c02b03 	ldbu	r3,172(sp)
 4027a58:	d8c02785 	stb	r3,158(sp)
 4027a5c:	003a4306 	br	402636c <__flash_rwdata_start+0xffff3a98>
 4027a60:	d8c02b03 	ldbu	r3,172(sp)
 4027a64:	d8c02785 	stb	r3,158(sp)
 4027a68:	003af506 	br	4026640 <__flash_rwdata_start+0xffff3d6c>
 4027a6c:	0005883a 	mov	r2,zero
 4027a70:	003d7b06 	br	4027060 <__flash_rwdata_start+0xffff478c>
 4027a74:	d8802344 	addi	r2,sp,141
 4027a78:	003f1006 	br	40276bc <__flash_rwdata_start+0xffff4de8>
 4027a7c:	d8c02b03 	ldbu	r3,172(sp)
 4027a80:	d8c02785 	stb	r3,158(sp)
 4027a84:	0038fd06 	br	4025e7c <__flash_rwdata_start+0xffff35a8>
 4027a88:	d8c02b03 	ldbu	r3,172(sp)
 4027a8c:	d8c02785 	stb	r3,158(sp)
 4027a90:	003a9706 	br	40264f0 <__flash_rwdata_start+0xffff3c1c>
 4027a94:	d8c02b03 	ldbu	r3,172(sp)
 4027a98:	d8c02785 	stb	r3,158(sp)
 4027a9c:	003a1806 	br	4026300 <__flash_rwdata_start+0xffff3a2c>
 4027aa0:	d8c02b03 	ldbu	r3,172(sp)
 4027aa4:	d8c02785 	stb	r3,158(sp)
 4027aa8:	003abe06 	br	40265a4 <__flash_rwdata_start+0xffff3cd0>

04027aac <__vfprintf_internal>:
 4027aac:	00800034 	movhi	r2,0
 4027ab0:	10877804 	addi	r2,r2,7648
 4027ab4:	300f883a 	mov	r7,r6
 4027ab8:	280d883a 	mov	r6,r5
 4027abc:	200b883a 	mov	r5,r4
 4027ac0:	11000017 	ldw	r4,0(r2)
 4027ac4:	40257d01 	jmpi	40257d0 <___vfprintf_internal_r>

04027ac8 <__sbprintf>:
 4027ac8:	2880030b 	ldhu	r2,12(r5)
 4027acc:	2ac01917 	ldw	r11,100(r5)
 4027ad0:	2a80038b 	ldhu	r10,14(r5)
 4027ad4:	2a400717 	ldw	r9,28(r5)
 4027ad8:	2a000917 	ldw	r8,36(r5)
 4027adc:	defee204 	addi	sp,sp,-1144
 4027ae0:	00c10004 	movi	r3,1024
 4027ae4:	dc011a15 	stw	r16,1128(sp)
 4027ae8:	10bfff4c 	andi	r2,r2,65533
 4027aec:	2821883a 	mov	r16,r5
 4027af0:	d8cb883a 	add	r5,sp,r3
 4027af4:	dc811c15 	stw	r18,1136(sp)
 4027af8:	dc411b15 	stw	r17,1132(sp)
 4027afc:	dfc11d15 	stw	ra,1140(sp)
 4027b00:	2025883a 	mov	r18,r4
 4027b04:	d881030d 	sth	r2,1036(sp)
 4027b08:	dac11915 	stw	r11,1124(sp)
 4027b0c:	da81038d 	sth	r10,1038(sp)
 4027b10:	da410715 	stw	r9,1052(sp)
 4027b14:	da010915 	stw	r8,1060(sp)
 4027b18:	dec10015 	stw	sp,1024(sp)
 4027b1c:	dec10415 	stw	sp,1040(sp)
 4027b20:	d8c10215 	stw	r3,1032(sp)
 4027b24:	d8c10515 	stw	r3,1044(sp)
 4027b28:	d8010615 	stw	zero,1048(sp)
 4027b2c:	40257d00 	call	40257d0 <___vfprintf_internal_r>
 4027b30:	1023883a 	mov	r17,r2
 4027b34:	10000416 	blt	r2,zero,4027b48 <__sbprintf+0x80>
 4027b38:	d9410004 	addi	r5,sp,1024
 4027b3c:	9009883a 	mov	r4,r18
 4027b40:	40297a40 	call	40297a4 <_fflush_r>
 4027b44:	10000d1e 	bne	r2,zero,4027b7c <__sbprintf+0xb4>
 4027b48:	d881030b 	ldhu	r2,1036(sp)
 4027b4c:	1080100c 	andi	r2,r2,64
 4027b50:	10000326 	beq	r2,zero,4027b60 <__sbprintf+0x98>
 4027b54:	8080030b 	ldhu	r2,12(r16)
 4027b58:	10801014 	ori	r2,r2,64
 4027b5c:	8080030d 	sth	r2,12(r16)
 4027b60:	8805883a 	mov	r2,r17
 4027b64:	dfc11d17 	ldw	ra,1140(sp)
 4027b68:	dc811c17 	ldw	r18,1136(sp)
 4027b6c:	dc411b17 	ldw	r17,1132(sp)
 4027b70:	dc011a17 	ldw	r16,1128(sp)
 4027b74:	dec11e04 	addi	sp,sp,1144
 4027b78:	f800283a 	ret
 4027b7c:	047fffc4 	movi	r17,-1
 4027b80:	003ff106 	br	4027b48 <__flash_rwdata_start+0xffff5274>

04027b84 <__swsetup_r>:
 4027b84:	00800034 	movhi	r2,0
 4027b88:	defffd04 	addi	sp,sp,-12
 4027b8c:	10877804 	addi	r2,r2,7648
 4027b90:	dc400115 	stw	r17,4(sp)
 4027b94:	2023883a 	mov	r17,r4
 4027b98:	11000017 	ldw	r4,0(r2)
 4027b9c:	dc000015 	stw	r16,0(sp)
 4027ba0:	dfc00215 	stw	ra,8(sp)
 4027ba4:	2821883a 	mov	r16,r5
 4027ba8:	20000226 	beq	r4,zero,4027bb4 <__swsetup_r+0x30>
 4027bac:	20800e17 	ldw	r2,56(r4)
 4027bb0:	10003126 	beq	r2,zero,4027c78 <__swsetup_r+0xf4>
 4027bb4:	8080030b 	ldhu	r2,12(r16)
 4027bb8:	10c0020c 	andi	r3,r2,8
 4027bbc:	1009883a 	mov	r4,r2
 4027bc0:	18000f26 	beq	r3,zero,4027c00 <__swsetup_r+0x7c>
 4027bc4:	80c00417 	ldw	r3,16(r16)
 4027bc8:	18001526 	beq	r3,zero,4027c20 <__swsetup_r+0x9c>
 4027bcc:	1100004c 	andi	r4,r2,1
 4027bd0:	20001c1e 	bne	r4,zero,4027c44 <__swsetup_r+0xc0>
 4027bd4:	1080008c 	andi	r2,r2,2
 4027bd8:	1000291e 	bne	r2,zero,4027c80 <__swsetup_r+0xfc>
 4027bdc:	80800517 	ldw	r2,20(r16)
 4027be0:	80800215 	stw	r2,8(r16)
 4027be4:	18001c26 	beq	r3,zero,4027c58 <__swsetup_r+0xd4>
 4027be8:	0005883a 	mov	r2,zero
 4027bec:	dfc00217 	ldw	ra,8(sp)
 4027bf0:	dc400117 	ldw	r17,4(sp)
 4027bf4:	dc000017 	ldw	r16,0(sp)
 4027bf8:	dec00304 	addi	sp,sp,12
 4027bfc:	f800283a 	ret
 4027c00:	2080040c 	andi	r2,r4,16
 4027c04:	10002e26 	beq	r2,zero,4027cc0 <__swsetup_r+0x13c>
 4027c08:	2080010c 	andi	r2,r4,4
 4027c0c:	10001e1e 	bne	r2,zero,4027c88 <__swsetup_r+0x104>
 4027c10:	80c00417 	ldw	r3,16(r16)
 4027c14:	20800214 	ori	r2,r4,8
 4027c18:	8080030d 	sth	r2,12(r16)
 4027c1c:	183feb1e 	bne	r3,zero,4027bcc <__flash_rwdata_start+0xffff52f8>
 4027c20:	1100a00c 	andi	r4,r2,640
 4027c24:	01408004 	movi	r5,512
 4027c28:	217fe826 	beq	r4,r5,4027bcc <__flash_rwdata_start+0xffff52f8>
 4027c2c:	800b883a 	mov	r5,r16
 4027c30:	8809883a 	mov	r4,r17
 4027c34:	402a2780 	call	402a278 <__smakebuf_r>
 4027c38:	8080030b 	ldhu	r2,12(r16)
 4027c3c:	80c00417 	ldw	r3,16(r16)
 4027c40:	003fe206 	br	4027bcc <__flash_rwdata_start+0xffff52f8>
 4027c44:	80800517 	ldw	r2,20(r16)
 4027c48:	80000215 	stw	zero,8(r16)
 4027c4c:	0085c83a 	sub	r2,zero,r2
 4027c50:	80800615 	stw	r2,24(r16)
 4027c54:	183fe41e 	bne	r3,zero,4027be8 <__flash_rwdata_start+0xffff5314>
 4027c58:	80c0030b 	ldhu	r3,12(r16)
 4027c5c:	0005883a 	mov	r2,zero
 4027c60:	1900200c 	andi	r4,r3,128
 4027c64:	203fe126 	beq	r4,zero,4027bec <__flash_rwdata_start+0xffff5318>
 4027c68:	18c01014 	ori	r3,r3,64
 4027c6c:	80c0030d 	sth	r3,12(r16)
 4027c70:	00bfffc4 	movi	r2,-1
 4027c74:	003fdd06 	br	4027bec <__flash_rwdata_start+0xffff5318>
 4027c78:	4029b900 	call	4029b90 <__sinit>
 4027c7c:	003fcd06 	br	4027bb4 <__flash_rwdata_start+0xffff52e0>
 4027c80:	0005883a 	mov	r2,zero
 4027c84:	003fd606 	br	4027be0 <__flash_rwdata_start+0xffff530c>
 4027c88:	81400c17 	ldw	r5,48(r16)
 4027c8c:	28000626 	beq	r5,zero,4027ca8 <__swsetup_r+0x124>
 4027c90:	80801004 	addi	r2,r16,64
 4027c94:	28800326 	beq	r5,r2,4027ca4 <__swsetup_r+0x120>
 4027c98:	8809883a 	mov	r4,r17
 4027c9c:	4029d040 	call	4029d04 <_free_r>
 4027ca0:	8100030b 	ldhu	r4,12(r16)
 4027ca4:	80000c15 	stw	zero,48(r16)
 4027ca8:	80c00417 	ldw	r3,16(r16)
 4027cac:	00bff6c4 	movi	r2,-37
 4027cb0:	1108703a 	and	r4,r2,r4
 4027cb4:	80000115 	stw	zero,4(r16)
 4027cb8:	80c00015 	stw	r3,0(r16)
 4027cbc:	003fd506 	br	4027c14 <__flash_rwdata_start+0xffff5340>
 4027cc0:	00800244 	movi	r2,9
 4027cc4:	88800015 	stw	r2,0(r17)
 4027cc8:	20801014 	ori	r2,r4,64
 4027ccc:	8080030d 	sth	r2,12(r16)
 4027cd0:	00bfffc4 	movi	r2,-1
 4027cd4:	003fc506 	br	4027bec <__flash_rwdata_start+0xffff5318>

04027cd8 <quorem>:
 4027cd8:	defff204 	addi	sp,sp,-56
 4027cdc:	ddc00b15 	stw	r23,44(sp)
 4027ce0:	20800417 	ldw	r2,16(r4)
 4027ce4:	2dc00417 	ldw	r23,16(r5)
 4027ce8:	dfc00d15 	stw	ra,52(sp)
 4027cec:	df000c15 	stw	fp,48(sp)
 4027cf0:	dd800a15 	stw	r22,40(sp)
 4027cf4:	dd400915 	stw	r21,36(sp)
 4027cf8:	dd000815 	stw	r20,32(sp)
 4027cfc:	dcc00715 	stw	r19,28(sp)
 4027d00:	dc800615 	stw	r18,24(sp)
 4027d04:	dc400515 	stw	r17,20(sp)
 4027d08:	dc000415 	stw	r16,16(sp)
 4027d0c:	15c07a16 	blt	r2,r23,4027ef8 <quorem+0x220>
 4027d10:	bdffffc4 	addi	r23,r23,-1
 4027d14:	bde9883a 	add	r20,r23,r23
 4027d18:	28c00504 	addi	r3,r5,20
 4027d1c:	a529883a 	add	r20,r20,r20
 4027d20:	1d39883a 	add	fp,r3,r20
 4027d24:	24c00504 	addi	r19,r4,20
 4027d28:	d9400215 	stw	r5,8(sp)
 4027d2c:	9d29883a 	add	r20,r19,r20
 4027d30:	e1400017 	ldw	r5,0(fp)
 4027d34:	d9000015 	stw	r4,0(sp)
 4027d38:	a1000017 	ldw	r4,0(r20)
 4027d3c:	29400044 	addi	r5,r5,1
 4027d40:	d8c00115 	stw	r3,4(sp)
 4027d44:	dd000315 	stw	r20,12(sp)
 4027d48:	40256700 	call	4025670 <__udivsi3>
 4027d4c:	1025883a 	mov	r18,r2
 4027d50:	10003026 	beq	r2,zero,4027e14 <quorem+0x13c>
 4027d54:	dc400117 	ldw	r17,4(sp)
 4027d58:	9829883a 	mov	r20,r19
 4027d5c:	002d883a 	mov	r22,zero
 4027d60:	0021883a 	mov	r16,zero
 4027d64:	8d400017 	ldw	r21,0(r17)
 4027d68:	900b883a 	mov	r5,r18
 4027d6c:	8c400104 	addi	r17,r17,4
 4027d70:	a93fffcc 	andi	r4,r21,65535
 4027d74:	402572c0 	call	402572c <__mulsi3>
 4027d78:	a808d43a 	srli	r4,r21,16
 4027d7c:	900b883a 	mov	r5,r18
 4027d80:	15ad883a 	add	r22,r2,r22
 4027d84:	402572c0 	call	402572c <__mulsi3>
 4027d88:	a1000017 	ldw	r4,0(r20)
 4027d8c:	b00cd43a 	srli	r6,r22,16
 4027d90:	b0ffffcc 	andi	r3,r22,65535
 4027d94:	217fffcc 	andi	r5,r4,65535
 4027d98:	2c21883a 	add	r16,r5,r16
 4027d9c:	80c7c83a 	sub	r3,r16,r3
 4027da0:	2008d43a 	srli	r4,r4,16
 4027da4:	1185883a 	add	r2,r2,r6
 4027da8:	1821d43a 	srai	r16,r3,16
 4027dac:	117fffcc 	andi	r5,r2,65535
 4027db0:	2149c83a 	sub	r4,r4,r5
 4027db4:	2421883a 	add	r16,r4,r16
 4027db8:	8008943a 	slli	r4,r16,16
 4027dbc:	18ffffcc 	andi	r3,r3,65535
 4027dc0:	102cd43a 	srli	r22,r2,16
 4027dc4:	20c8b03a 	or	r4,r4,r3
 4027dc8:	a1000015 	stw	r4,0(r20)
 4027dcc:	8021d43a 	srai	r16,r16,16
 4027dd0:	a5000104 	addi	r20,r20,4
 4027dd4:	e47fe32e 	bgeu	fp,r17,4027d64 <__flash_rwdata_start+0xffff5490>
 4027dd8:	d8c00317 	ldw	r3,12(sp)
 4027ddc:	18800017 	ldw	r2,0(r3)
 4027de0:	10000c1e 	bne	r2,zero,4027e14 <quorem+0x13c>
 4027de4:	18bfff04 	addi	r2,r3,-4
 4027de8:	9880082e 	bgeu	r19,r2,4027e0c <quorem+0x134>
 4027dec:	18ffff17 	ldw	r3,-4(r3)
 4027df0:	18000326 	beq	r3,zero,4027e00 <quorem+0x128>
 4027df4:	00000506 	br	4027e0c <quorem+0x134>
 4027df8:	10c00017 	ldw	r3,0(r2)
 4027dfc:	1800031e 	bne	r3,zero,4027e0c <quorem+0x134>
 4027e00:	10bfff04 	addi	r2,r2,-4
 4027e04:	bdffffc4 	addi	r23,r23,-1
 4027e08:	98bffb36 	bltu	r19,r2,4027df8 <__flash_rwdata_start+0xffff5524>
 4027e0c:	d8c00017 	ldw	r3,0(sp)
 4027e10:	1dc00415 	stw	r23,16(r3)
 4027e14:	d9400217 	ldw	r5,8(sp)
 4027e18:	d9000017 	ldw	r4,0(sp)
 4027e1c:	402b9180 	call	402b918 <__mcmp>
 4027e20:	10002816 	blt	r2,zero,4027ec4 <quorem+0x1ec>
 4027e24:	dc400117 	ldw	r17,4(sp)
 4027e28:	94800044 	addi	r18,r18,1
 4027e2c:	980d883a 	mov	r6,r19
 4027e30:	0007883a 	mov	r3,zero
 4027e34:	31000017 	ldw	r4,0(r6)
 4027e38:	89400017 	ldw	r5,0(r17)
 4027e3c:	31800104 	addi	r6,r6,4
 4027e40:	20bfffcc 	andi	r2,r4,65535
 4027e44:	10c7883a 	add	r3,r2,r3
 4027e48:	28bfffcc 	andi	r2,r5,65535
 4027e4c:	1885c83a 	sub	r2,r3,r2
 4027e50:	280ad43a 	srli	r5,r5,16
 4027e54:	2008d43a 	srli	r4,r4,16
 4027e58:	1007d43a 	srai	r3,r2,16
 4027e5c:	10bfffcc 	andi	r2,r2,65535
 4027e60:	2149c83a 	sub	r4,r4,r5
 4027e64:	20c9883a 	add	r4,r4,r3
 4027e68:	200a943a 	slli	r5,r4,16
 4027e6c:	8c400104 	addi	r17,r17,4
 4027e70:	2007d43a 	srai	r3,r4,16
 4027e74:	2884b03a 	or	r2,r5,r2
 4027e78:	30bfff15 	stw	r2,-4(r6)
 4027e7c:	e47fed2e 	bgeu	fp,r17,4027e34 <__flash_rwdata_start+0xffff5560>
 4027e80:	bdc5883a 	add	r2,r23,r23
 4027e84:	1085883a 	add	r2,r2,r2
 4027e88:	9887883a 	add	r3,r19,r2
 4027e8c:	18800017 	ldw	r2,0(r3)
 4027e90:	10000c1e 	bne	r2,zero,4027ec4 <quorem+0x1ec>
 4027e94:	18bfff04 	addi	r2,r3,-4
 4027e98:	9880082e 	bgeu	r19,r2,4027ebc <quorem+0x1e4>
 4027e9c:	18ffff17 	ldw	r3,-4(r3)
 4027ea0:	18000326 	beq	r3,zero,4027eb0 <quorem+0x1d8>
 4027ea4:	00000506 	br	4027ebc <quorem+0x1e4>
 4027ea8:	10c00017 	ldw	r3,0(r2)
 4027eac:	1800031e 	bne	r3,zero,4027ebc <quorem+0x1e4>
 4027eb0:	10bfff04 	addi	r2,r2,-4
 4027eb4:	bdffffc4 	addi	r23,r23,-1
 4027eb8:	98bffb36 	bltu	r19,r2,4027ea8 <__flash_rwdata_start+0xffff55d4>
 4027ebc:	d8c00017 	ldw	r3,0(sp)
 4027ec0:	1dc00415 	stw	r23,16(r3)
 4027ec4:	9005883a 	mov	r2,r18
 4027ec8:	dfc00d17 	ldw	ra,52(sp)
 4027ecc:	df000c17 	ldw	fp,48(sp)
 4027ed0:	ddc00b17 	ldw	r23,44(sp)
 4027ed4:	dd800a17 	ldw	r22,40(sp)
 4027ed8:	dd400917 	ldw	r21,36(sp)
 4027edc:	dd000817 	ldw	r20,32(sp)
 4027ee0:	dcc00717 	ldw	r19,28(sp)
 4027ee4:	dc800617 	ldw	r18,24(sp)
 4027ee8:	dc400517 	ldw	r17,20(sp)
 4027eec:	dc000417 	ldw	r16,16(sp)
 4027ef0:	dec00e04 	addi	sp,sp,56
 4027ef4:	f800283a 	ret
 4027ef8:	0005883a 	mov	r2,zero
 4027efc:	003ff206 	br	4027ec8 <__flash_rwdata_start+0xffff55f4>

04027f00 <_dtoa_r>:
 4027f00:	20801017 	ldw	r2,64(r4)
 4027f04:	deffde04 	addi	sp,sp,-136
 4027f08:	df002015 	stw	fp,128(sp)
 4027f0c:	dcc01b15 	stw	r19,108(sp)
 4027f10:	dc801a15 	stw	r18,104(sp)
 4027f14:	dc401915 	stw	r17,100(sp)
 4027f18:	dc001815 	stw	r16,96(sp)
 4027f1c:	dfc02115 	stw	ra,132(sp)
 4027f20:	ddc01f15 	stw	r23,124(sp)
 4027f24:	dd801e15 	stw	r22,120(sp)
 4027f28:	dd401d15 	stw	r21,116(sp)
 4027f2c:	dd001c15 	stw	r20,112(sp)
 4027f30:	d9c00315 	stw	r7,12(sp)
 4027f34:	2039883a 	mov	fp,r4
 4027f38:	3023883a 	mov	r17,r6
 4027f3c:	2825883a 	mov	r18,r5
 4027f40:	dc002417 	ldw	r16,144(sp)
 4027f44:	3027883a 	mov	r19,r6
 4027f48:	10000826 	beq	r2,zero,4027f6c <_dtoa_r+0x6c>
 4027f4c:	21801117 	ldw	r6,68(r4)
 4027f50:	00c00044 	movi	r3,1
 4027f54:	100b883a 	mov	r5,r2
 4027f58:	1986983a 	sll	r3,r3,r6
 4027f5c:	11800115 	stw	r6,4(r2)
 4027f60:	10c00215 	stw	r3,8(r2)
 4027f64:	402b03c0 	call	402b03c <_Bfree>
 4027f68:	e0001015 	stw	zero,64(fp)
 4027f6c:	88002e16 	blt	r17,zero,4028028 <_dtoa_r+0x128>
 4027f70:	80000015 	stw	zero,0(r16)
 4027f74:	889ffc2c 	andhi	r2,r17,32752
 4027f78:	00dffc34 	movhi	r3,32752
 4027f7c:	10c01c26 	beq	r2,r3,4027ff0 <_dtoa_r+0xf0>
 4027f80:	000d883a 	mov	r6,zero
 4027f84:	000f883a 	mov	r7,zero
 4027f88:	9009883a 	mov	r4,r18
 4027f8c:	980b883a 	mov	r5,r19
 4027f90:	402fb500 	call	402fb50 <__eqdf2>
 4027f94:	10002b1e 	bne	r2,zero,4028044 <_dtoa_r+0x144>
 4027f98:	d9c02317 	ldw	r7,140(sp)
 4027f9c:	00800044 	movi	r2,1
 4027fa0:	38800015 	stw	r2,0(r7)
 4027fa4:	d8802517 	ldw	r2,148(sp)
 4027fa8:	10019e26 	beq	r2,zero,4028624 <_dtoa_r+0x724>
 4027fac:	d8c02517 	ldw	r3,148(sp)
 4027fb0:	00800034 	movhi	r2,0
 4027fb4:	10805f44 	addi	r2,r2,381
 4027fb8:	18800015 	stw	r2,0(r3)
 4027fbc:	10bfffc4 	addi	r2,r2,-1
 4027fc0:	dfc02117 	ldw	ra,132(sp)
 4027fc4:	df002017 	ldw	fp,128(sp)
 4027fc8:	ddc01f17 	ldw	r23,124(sp)
 4027fcc:	dd801e17 	ldw	r22,120(sp)
 4027fd0:	dd401d17 	ldw	r21,116(sp)
 4027fd4:	dd001c17 	ldw	r20,112(sp)
 4027fd8:	dcc01b17 	ldw	r19,108(sp)
 4027fdc:	dc801a17 	ldw	r18,104(sp)
 4027fe0:	dc401917 	ldw	r17,100(sp)
 4027fe4:	dc001817 	ldw	r16,96(sp)
 4027fe8:	dec02204 	addi	sp,sp,136
 4027fec:	f800283a 	ret
 4027ff0:	d8c02317 	ldw	r3,140(sp)
 4027ff4:	0089c3c4 	movi	r2,9999
 4027ff8:	18800015 	stw	r2,0(r3)
 4027ffc:	90017726 	beq	r18,zero,40285dc <_dtoa_r+0x6dc>
 4028000:	00800034 	movhi	r2,0
 4028004:	10806b04 	addi	r2,r2,428
 4028008:	d9002517 	ldw	r4,148(sp)
 402800c:	203fec26 	beq	r4,zero,4027fc0 <__flash_rwdata_start+0xffff56ec>
 4028010:	10c000c7 	ldb	r3,3(r2)
 4028014:	1801781e 	bne	r3,zero,40285f8 <_dtoa_r+0x6f8>
 4028018:	10c000c4 	addi	r3,r2,3
 402801c:	d9802517 	ldw	r6,148(sp)
 4028020:	30c00015 	stw	r3,0(r6)
 4028024:	003fe606 	br	4027fc0 <__flash_rwdata_start+0xffff56ec>
 4028028:	04e00034 	movhi	r19,32768
 402802c:	9cffffc4 	addi	r19,r19,-1
 4028030:	00800044 	movi	r2,1
 4028034:	8ce6703a 	and	r19,r17,r19
 4028038:	80800015 	stw	r2,0(r16)
 402803c:	9823883a 	mov	r17,r19
 4028040:	003fcc06 	br	4027f74 <__flash_rwdata_start+0xffff56a0>
 4028044:	d8800204 	addi	r2,sp,8
 4028048:	d8800015 	stw	r2,0(sp)
 402804c:	d9c00104 	addi	r7,sp,4
 4028050:	900b883a 	mov	r5,r18
 4028054:	980d883a 	mov	r6,r19
 4028058:	e009883a 	mov	r4,fp
 402805c:	8820d53a 	srli	r16,r17,20
 4028060:	402bce40 	call	402bce4 <__d2b>
 4028064:	d8800915 	stw	r2,36(sp)
 4028068:	8001651e 	bne	r16,zero,4028600 <_dtoa_r+0x700>
 402806c:	dd800217 	ldw	r22,8(sp)
 4028070:	dc000117 	ldw	r16,4(sp)
 4028074:	00800804 	movi	r2,32
 4028078:	b421883a 	add	r16,r22,r16
 402807c:	80c10c84 	addi	r3,r16,1074
 4028080:	10c2d10e 	bge	r2,r3,4028bc8 <_dtoa_r+0xcc8>
 4028084:	00801004 	movi	r2,64
 4028088:	81010484 	addi	r4,r16,1042
 402808c:	10c7c83a 	sub	r3,r2,r3
 4028090:	9108d83a 	srl	r4,r18,r4
 4028094:	88e2983a 	sll	r17,r17,r3
 4028098:	2448b03a 	or	r4,r4,r17
 402809c:	402fbd80 	call	402fbd8 <__floatunsidf>
 40280a0:	017f8434 	movhi	r5,65040
 40280a4:	01800044 	movi	r6,1
 40280a8:	1009883a 	mov	r4,r2
 40280ac:	194b883a 	add	r5,r3,r5
 40280b0:	843fffc4 	addi	r16,r16,-1
 40280b4:	d9801115 	stw	r6,68(sp)
 40280b8:	000d883a 	mov	r6,zero
 40280bc:	01cffe34 	movhi	r7,16376
 40280c0:	40248040 	call	4024804 <__subdf3>
 40280c4:	0198dbf4 	movhi	r6,25455
 40280c8:	01cff4f4 	movhi	r7,16339
 40280cc:	3190d844 	addi	r6,r6,17249
 40280d0:	39e1e9c4 	addi	r7,r7,-30809
 40280d4:	1009883a 	mov	r4,r2
 40280d8:	180b883a 	mov	r5,r3
 40280dc:	4023f980 	call	4023f98 <__muldf3>
 40280e0:	01a2d874 	movhi	r6,35681
 40280e4:	01cff1f4 	movhi	r7,16327
 40280e8:	31b22cc4 	addi	r6,r6,-14157
 40280ec:	39e28a04 	addi	r7,r7,-30168
 40280f0:	180b883a 	mov	r5,r3
 40280f4:	1009883a 	mov	r4,r2
 40280f8:	4022b4c0 	call	4022b4c <__adddf3>
 40280fc:	8009883a 	mov	r4,r16
 4028100:	1029883a 	mov	r20,r2
 4028104:	1823883a 	mov	r17,r3
 4028108:	40251800 	call	4025180 <__floatsidf>
 402810c:	019427f4 	movhi	r6,20639
 4028110:	01cff4f4 	movhi	r7,16339
 4028114:	319e7ec4 	addi	r6,r6,31227
 4028118:	39d104c4 	addi	r7,r7,17427
 402811c:	1009883a 	mov	r4,r2
 4028120:	180b883a 	mov	r5,r3
 4028124:	4023f980 	call	4023f98 <__muldf3>
 4028128:	100d883a 	mov	r6,r2
 402812c:	180f883a 	mov	r7,r3
 4028130:	a009883a 	mov	r4,r20
 4028134:	880b883a 	mov	r5,r17
 4028138:	4022b4c0 	call	4022b4c <__adddf3>
 402813c:	1009883a 	mov	r4,r2
 4028140:	180b883a 	mov	r5,r3
 4028144:	1029883a 	mov	r20,r2
 4028148:	1823883a 	mov	r17,r3
 402814c:	40251000 	call	4025100 <__fixdfsi>
 4028150:	000d883a 	mov	r6,zero
 4028154:	000f883a 	mov	r7,zero
 4028158:	a009883a 	mov	r4,r20
 402815c:	880b883a 	mov	r5,r17
 4028160:	d8800515 	stw	r2,20(sp)
 4028164:	4023ea40 	call	4023ea4 <__ledf2>
 4028168:	10028716 	blt	r2,zero,4028b88 <_dtoa_r+0xc88>
 402816c:	d8c00517 	ldw	r3,20(sp)
 4028170:	00800584 	movi	r2,22
 4028174:	10c27536 	bltu	r2,r3,4028b4c <_dtoa_r+0xc4c>
 4028178:	180490fa 	slli	r2,r3,3
 402817c:	00c00034 	movhi	r3,0
 4028180:	18c08604 	addi	r3,r3,536
 4028184:	1885883a 	add	r2,r3,r2
 4028188:	11000017 	ldw	r4,0(r2)
 402818c:	11400117 	ldw	r5,4(r2)
 4028190:	900d883a 	mov	r6,r18
 4028194:	980f883a 	mov	r7,r19
 4028198:	4023dc80 	call	4023dc8 <__gedf2>
 402819c:	00828d0e 	bge	zero,r2,4028bd4 <_dtoa_r+0xcd4>
 40281a0:	d9000517 	ldw	r4,20(sp)
 40281a4:	d8000e15 	stw	zero,56(sp)
 40281a8:	213fffc4 	addi	r4,r4,-1
 40281ac:	d9000515 	stw	r4,20(sp)
 40281b0:	b42dc83a 	sub	r22,r22,r16
 40281b4:	b5bfffc4 	addi	r22,r22,-1
 40281b8:	b0026f16 	blt	r22,zero,4028b78 <_dtoa_r+0xc78>
 40281bc:	d8000815 	stw	zero,32(sp)
 40281c0:	d9c00517 	ldw	r7,20(sp)
 40281c4:	38026416 	blt	r7,zero,4028b58 <_dtoa_r+0xc58>
 40281c8:	b1ed883a 	add	r22,r22,r7
 40281cc:	d9c00d15 	stw	r7,52(sp)
 40281d0:	d8000a15 	stw	zero,40(sp)
 40281d4:	d9800317 	ldw	r6,12(sp)
 40281d8:	00800244 	movi	r2,9
 40281dc:	11811436 	bltu	r2,r6,4028630 <_dtoa_r+0x730>
 40281e0:	00800144 	movi	r2,5
 40281e4:	1184e10e 	bge	r2,r6,402956c <_dtoa_r+0x166c>
 40281e8:	31bfff04 	addi	r6,r6,-4
 40281ec:	d9800315 	stw	r6,12(sp)
 40281f0:	0023883a 	mov	r17,zero
 40281f4:	d9800317 	ldw	r6,12(sp)
 40281f8:	008000c4 	movi	r2,3
 40281fc:	30836726 	beq	r6,r2,4028f9c <_dtoa_r+0x109c>
 4028200:	1183410e 	bge	r2,r6,4028f08 <_dtoa_r+0x1008>
 4028204:	d9c00317 	ldw	r7,12(sp)
 4028208:	00800104 	movi	r2,4
 402820c:	38827c26 	beq	r7,r2,4028c00 <_dtoa_r+0xd00>
 4028210:	00800144 	movi	r2,5
 4028214:	3884c41e 	bne	r7,r2,4029528 <_dtoa_r+0x1628>
 4028218:	00800044 	movi	r2,1
 402821c:	d8800b15 	stw	r2,44(sp)
 4028220:	d8c00517 	ldw	r3,20(sp)
 4028224:	d9002217 	ldw	r4,136(sp)
 4028228:	1907883a 	add	r3,r3,r4
 402822c:	19800044 	addi	r6,r3,1
 4028230:	d8c00c15 	stw	r3,48(sp)
 4028234:	d9800615 	stw	r6,24(sp)
 4028238:	0183a40e 	bge	zero,r6,40290cc <_dtoa_r+0x11cc>
 402823c:	d9800617 	ldw	r6,24(sp)
 4028240:	3021883a 	mov	r16,r6
 4028244:	e0001115 	stw	zero,68(fp)
 4028248:	008005c4 	movi	r2,23
 402824c:	1184c92e 	bgeu	r2,r6,4029574 <_dtoa_r+0x1674>
 4028250:	00c00044 	movi	r3,1
 4028254:	00800104 	movi	r2,4
 4028258:	1085883a 	add	r2,r2,r2
 402825c:	11000504 	addi	r4,r2,20
 4028260:	180b883a 	mov	r5,r3
 4028264:	18c00044 	addi	r3,r3,1
 4028268:	313ffb2e 	bgeu	r6,r4,4028258 <__flash_rwdata_start+0xffff5984>
 402826c:	e1401115 	stw	r5,68(fp)
 4028270:	e009883a 	mov	r4,fp
 4028274:	402af940 	call	402af94 <_Balloc>
 4028278:	d8800715 	stw	r2,28(sp)
 402827c:	e0801015 	stw	r2,64(fp)
 4028280:	00800384 	movi	r2,14
 4028284:	1400f736 	bltu	r2,r16,4028664 <_dtoa_r+0x764>
 4028288:	8800f626 	beq	r17,zero,4028664 <_dtoa_r+0x764>
 402828c:	d9c00517 	ldw	r7,20(sp)
 4028290:	01c39a0e 	bge	zero,r7,40290fc <_dtoa_r+0x11fc>
 4028294:	388003cc 	andi	r2,r7,15
 4028298:	100490fa 	slli	r2,r2,3
 402829c:	382bd13a 	srai	r21,r7,4
 40282a0:	00c00034 	movhi	r3,0
 40282a4:	18c08604 	addi	r3,r3,536
 40282a8:	1885883a 	add	r2,r3,r2
 40282ac:	a8c0040c 	andi	r3,r21,16
 40282b0:	12400017 	ldw	r9,0(r2)
 40282b4:	12000117 	ldw	r8,4(r2)
 40282b8:	18037926 	beq	r3,zero,40290a0 <_dtoa_r+0x11a0>
 40282bc:	00800034 	movhi	r2,0
 40282c0:	10807c04 	addi	r2,r2,496
 40282c4:	11800817 	ldw	r6,32(r2)
 40282c8:	11c00917 	ldw	r7,36(r2)
 40282cc:	9009883a 	mov	r4,r18
 40282d0:	980b883a 	mov	r5,r19
 40282d4:	da001715 	stw	r8,92(sp)
 40282d8:	da401615 	stw	r9,88(sp)
 40282dc:	40233f80 	call	40233f8 <__divdf3>
 40282e0:	da001717 	ldw	r8,92(sp)
 40282e4:	da401617 	ldw	r9,88(sp)
 40282e8:	ad4003cc 	andi	r21,r21,15
 40282ec:	040000c4 	movi	r16,3
 40282f0:	1023883a 	mov	r17,r2
 40282f4:	1829883a 	mov	r20,r3
 40282f8:	a8001126 	beq	r21,zero,4028340 <_dtoa_r+0x440>
 40282fc:	05c00034 	movhi	r23,0
 4028300:	bdc07c04 	addi	r23,r23,496
 4028304:	4805883a 	mov	r2,r9
 4028308:	4007883a 	mov	r3,r8
 402830c:	a980004c 	andi	r6,r21,1
 4028310:	1009883a 	mov	r4,r2
 4028314:	a82bd07a 	srai	r21,r21,1
 4028318:	180b883a 	mov	r5,r3
 402831c:	30000426 	beq	r6,zero,4028330 <_dtoa_r+0x430>
 4028320:	b9800017 	ldw	r6,0(r23)
 4028324:	b9c00117 	ldw	r7,4(r23)
 4028328:	84000044 	addi	r16,r16,1
 402832c:	4023f980 	call	4023f98 <__muldf3>
 4028330:	bdc00204 	addi	r23,r23,8
 4028334:	a83ff51e 	bne	r21,zero,402830c <__flash_rwdata_start+0xffff5a38>
 4028338:	1013883a 	mov	r9,r2
 402833c:	1811883a 	mov	r8,r3
 4028340:	480d883a 	mov	r6,r9
 4028344:	400f883a 	mov	r7,r8
 4028348:	8809883a 	mov	r4,r17
 402834c:	a00b883a 	mov	r5,r20
 4028350:	40233f80 	call	40233f8 <__divdf3>
 4028354:	d8800f15 	stw	r2,60(sp)
 4028358:	d8c01015 	stw	r3,64(sp)
 402835c:	d8c00e17 	ldw	r3,56(sp)
 4028360:	18000626 	beq	r3,zero,402837c <_dtoa_r+0x47c>
 4028364:	d9000f17 	ldw	r4,60(sp)
 4028368:	d9401017 	ldw	r5,64(sp)
 402836c:	000d883a 	mov	r6,zero
 4028370:	01cffc34 	movhi	r7,16368
 4028374:	4023ea40 	call	4023ea4 <__ledf2>
 4028378:	10040b16 	blt	r2,zero,40293a8 <_dtoa_r+0x14a8>
 402837c:	8009883a 	mov	r4,r16
 4028380:	40251800 	call	4025180 <__floatsidf>
 4028384:	d9800f17 	ldw	r6,60(sp)
 4028388:	d9c01017 	ldw	r7,64(sp)
 402838c:	1009883a 	mov	r4,r2
 4028390:	180b883a 	mov	r5,r3
 4028394:	4023f980 	call	4023f98 <__muldf3>
 4028398:	000d883a 	mov	r6,zero
 402839c:	01d00734 	movhi	r7,16412
 40283a0:	1009883a 	mov	r4,r2
 40283a4:	180b883a 	mov	r5,r3
 40283a8:	4022b4c0 	call	4022b4c <__adddf3>
 40283ac:	1021883a 	mov	r16,r2
 40283b0:	d8800617 	ldw	r2,24(sp)
 40283b4:	047f3034 	movhi	r17,64704
 40283b8:	1c63883a 	add	r17,r3,r17
 40283bc:	10031826 	beq	r2,zero,4029020 <_dtoa_r+0x1120>
 40283c0:	d8c00517 	ldw	r3,20(sp)
 40283c4:	db000617 	ldw	r12,24(sp)
 40283c8:	d8c01315 	stw	r3,76(sp)
 40283cc:	d9000b17 	ldw	r4,44(sp)
 40283d0:	20038f26 	beq	r4,zero,4029210 <_dtoa_r+0x1310>
 40283d4:	60bfffc4 	addi	r2,r12,-1
 40283d8:	100490fa 	slli	r2,r2,3
 40283dc:	00c00034 	movhi	r3,0
 40283e0:	18c08604 	addi	r3,r3,536
 40283e4:	1885883a 	add	r2,r3,r2
 40283e8:	11800017 	ldw	r6,0(r2)
 40283ec:	11c00117 	ldw	r7,4(r2)
 40283f0:	d8800717 	ldw	r2,28(sp)
 40283f4:	0009883a 	mov	r4,zero
 40283f8:	014ff834 	movhi	r5,16352
 40283fc:	db001615 	stw	r12,88(sp)
 4028400:	15c00044 	addi	r23,r2,1
 4028404:	40233f80 	call	40233f8 <__divdf3>
 4028408:	800d883a 	mov	r6,r16
 402840c:	880f883a 	mov	r7,r17
 4028410:	1009883a 	mov	r4,r2
 4028414:	180b883a 	mov	r5,r3
 4028418:	40248040 	call	4024804 <__subdf3>
 402841c:	d9401017 	ldw	r5,64(sp)
 4028420:	d9000f17 	ldw	r4,60(sp)
 4028424:	102b883a 	mov	r21,r2
 4028428:	d8c01215 	stw	r3,72(sp)
 402842c:	40251000 	call	4025100 <__fixdfsi>
 4028430:	1009883a 	mov	r4,r2
 4028434:	1029883a 	mov	r20,r2
 4028438:	40251800 	call	4025180 <__floatsidf>
 402843c:	d9000f17 	ldw	r4,60(sp)
 4028440:	d9401017 	ldw	r5,64(sp)
 4028444:	100d883a 	mov	r6,r2
 4028448:	180f883a 	mov	r7,r3
 402844c:	40248040 	call	4024804 <__subdf3>
 4028450:	1823883a 	mov	r17,r3
 4028454:	d8c00717 	ldw	r3,28(sp)
 4028458:	d9401217 	ldw	r5,72(sp)
 402845c:	a2000c04 	addi	r8,r20,48
 4028460:	1021883a 	mov	r16,r2
 4028464:	1a000005 	stb	r8,0(r3)
 4028468:	800d883a 	mov	r6,r16
 402846c:	880f883a 	mov	r7,r17
 4028470:	a809883a 	mov	r4,r21
 4028474:	4029883a 	mov	r20,r8
 4028478:	4023dc80 	call	4023dc8 <__gedf2>
 402847c:	00841d16 	blt	zero,r2,40294f4 <_dtoa_r+0x15f4>
 4028480:	800d883a 	mov	r6,r16
 4028484:	880f883a 	mov	r7,r17
 4028488:	0009883a 	mov	r4,zero
 402848c:	014ffc34 	movhi	r5,16368
 4028490:	40248040 	call	4024804 <__subdf3>
 4028494:	d9401217 	ldw	r5,72(sp)
 4028498:	100d883a 	mov	r6,r2
 402849c:	180f883a 	mov	r7,r3
 40284a0:	a809883a 	mov	r4,r21
 40284a4:	4023dc80 	call	4023dc8 <__gedf2>
 40284a8:	db001617 	ldw	r12,88(sp)
 40284ac:	00840e16 	blt	zero,r2,40294e8 <_dtoa_r+0x15e8>
 40284b0:	00800044 	movi	r2,1
 40284b4:	13006b0e 	bge	r2,r12,4028664 <_dtoa_r+0x764>
 40284b8:	d9000717 	ldw	r4,28(sp)
 40284bc:	dd800f15 	stw	r22,60(sp)
 40284c0:	dcc01015 	stw	r19,64(sp)
 40284c4:	2319883a 	add	r12,r4,r12
 40284c8:	dcc01217 	ldw	r19,72(sp)
 40284cc:	602d883a 	mov	r22,r12
 40284d0:	dc801215 	stw	r18,72(sp)
 40284d4:	b825883a 	mov	r18,r23
 40284d8:	00000906 	br	4028500 <_dtoa_r+0x600>
 40284dc:	40248040 	call	4024804 <__subdf3>
 40284e0:	a80d883a 	mov	r6,r21
 40284e4:	980f883a 	mov	r7,r19
 40284e8:	1009883a 	mov	r4,r2
 40284ec:	180b883a 	mov	r5,r3
 40284f0:	4023ea40 	call	4023ea4 <__ledf2>
 40284f4:	1003e816 	blt	r2,zero,4029498 <_dtoa_r+0x1598>
 40284f8:	b825883a 	mov	r18,r23
 40284fc:	bd83e926 	beq	r23,r22,40294a4 <_dtoa_r+0x15a4>
 4028500:	a809883a 	mov	r4,r21
 4028504:	980b883a 	mov	r5,r19
 4028508:	000d883a 	mov	r6,zero
 402850c:	01d00934 	movhi	r7,16420
 4028510:	4023f980 	call	4023f98 <__muldf3>
 4028514:	000d883a 	mov	r6,zero
 4028518:	01d00934 	movhi	r7,16420
 402851c:	8009883a 	mov	r4,r16
 4028520:	880b883a 	mov	r5,r17
 4028524:	102b883a 	mov	r21,r2
 4028528:	1827883a 	mov	r19,r3
 402852c:	4023f980 	call	4023f98 <__muldf3>
 4028530:	180b883a 	mov	r5,r3
 4028534:	1009883a 	mov	r4,r2
 4028538:	1821883a 	mov	r16,r3
 402853c:	1023883a 	mov	r17,r2
 4028540:	40251000 	call	4025100 <__fixdfsi>
 4028544:	1009883a 	mov	r4,r2
 4028548:	1029883a 	mov	r20,r2
 402854c:	40251800 	call	4025180 <__floatsidf>
 4028550:	8809883a 	mov	r4,r17
 4028554:	800b883a 	mov	r5,r16
 4028558:	100d883a 	mov	r6,r2
 402855c:	180f883a 	mov	r7,r3
 4028560:	40248040 	call	4024804 <__subdf3>
 4028564:	a5000c04 	addi	r20,r20,48
 4028568:	a80d883a 	mov	r6,r21
 402856c:	980f883a 	mov	r7,r19
 4028570:	1009883a 	mov	r4,r2
 4028574:	180b883a 	mov	r5,r3
 4028578:	95000005 	stb	r20,0(r18)
 402857c:	1021883a 	mov	r16,r2
 4028580:	1823883a 	mov	r17,r3
 4028584:	4023ea40 	call	4023ea4 <__ledf2>
 4028588:	bdc00044 	addi	r23,r23,1
 402858c:	800d883a 	mov	r6,r16
 4028590:	880f883a 	mov	r7,r17
 4028594:	0009883a 	mov	r4,zero
 4028598:	014ffc34 	movhi	r5,16368
 402859c:	103fcf0e 	bge	r2,zero,40284dc <__flash_rwdata_start+0xffff5c08>
 40285a0:	d8c01317 	ldw	r3,76(sp)
 40285a4:	d8c00515 	stw	r3,20(sp)
 40285a8:	d9400917 	ldw	r5,36(sp)
 40285ac:	e009883a 	mov	r4,fp
 40285b0:	402b03c0 	call	402b03c <_Bfree>
 40285b4:	d9000517 	ldw	r4,20(sp)
 40285b8:	d9802317 	ldw	r6,140(sp)
 40285bc:	d9c02517 	ldw	r7,148(sp)
 40285c0:	b8000005 	stb	zero,0(r23)
 40285c4:	20800044 	addi	r2,r4,1
 40285c8:	30800015 	stw	r2,0(r6)
 40285cc:	3802aa26 	beq	r7,zero,4029078 <_dtoa_r+0x1178>
 40285d0:	3dc00015 	stw	r23,0(r7)
 40285d4:	d8800717 	ldw	r2,28(sp)
 40285d8:	003e7906 	br	4027fc0 <__flash_rwdata_start+0xffff56ec>
 40285dc:	00800434 	movhi	r2,16
 40285e0:	10bfffc4 	addi	r2,r2,-1
 40285e4:	88a2703a 	and	r17,r17,r2
 40285e8:	883e851e 	bne	r17,zero,4028000 <__flash_rwdata_start+0xffff572c>
 40285ec:	00800034 	movhi	r2,0
 40285f0:	10806804 	addi	r2,r2,416
 40285f4:	003e8406 	br	4028008 <__flash_rwdata_start+0xffff5734>
 40285f8:	10c00204 	addi	r3,r2,8
 40285fc:	003e8706 	br	402801c <__flash_rwdata_start+0xffff5748>
 4028600:	01400434 	movhi	r5,16
 4028604:	297fffc4 	addi	r5,r5,-1
 4028608:	994a703a 	and	r5,r19,r5
 402860c:	9009883a 	mov	r4,r18
 4028610:	843f0044 	addi	r16,r16,-1023
 4028614:	294ffc34 	orhi	r5,r5,16368
 4028618:	dd800217 	ldw	r22,8(sp)
 402861c:	d8001115 	stw	zero,68(sp)
 4028620:	003ea506 	br	40280b8 <__flash_rwdata_start+0xffff57e4>
 4028624:	00800034 	movhi	r2,0
 4028628:	10805f04 	addi	r2,r2,380
 402862c:	003e6406 	br	4027fc0 <__flash_rwdata_start+0xffff56ec>
 4028630:	e0001115 	stw	zero,68(fp)
 4028634:	000b883a 	mov	r5,zero
 4028638:	e009883a 	mov	r4,fp
 402863c:	402af940 	call	402af94 <_Balloc>
 4028640:	01bfffc4 	movi	r6,-1
 4028644:	01c00044 	movi	r7,1
 4028648:	d8800715 	stw	r2,28(sp)
 402864c:	d9800c15 	stw	r6,48(sp)
 4028650:	e0801015 	stw	r2,64(fp)
 4028654:	d8000315 	stw	zero,12(sp)
 4028658:	d9c00b15 	stw	r7,44(sp)
 402865c:	d9800615 	stw	r6,24(sp)
 4028660:	d8002215 	stw	zero,136(sp)
 4028664:	d8800117 	ldw	r2,4(sp)
 4028668:	10008916 	blt	r2,zero,4028890 <_dtoa_r+0x990>
 402866c:	d9000517 	ldw	r4,20(sp)
 4028670:	00c00384 	movi	r3,14
 4028674:	19008616 	blt	r3,r4,4028890 <_dtoa_r+0x990>
 4028678:	200490fa 	slli	r2,r4,3
 402867c:	00c00034 	movhi	r3,0
 4028680:	d9802217 	ldw	r6,136(sp)
 4028684:	18c08604 	addi	r3,r3,536
 4028688:	1885883a 	add	r2,r3,r2
 402868c:	14000017 	ldw	r16,0(r2)
 4028690:	14400117 	ldw	r17,4(r2)
 4028694:	30016316 	blt	r6,zero,4028c24 <_dtoa_r+0xd24>
 4028698:	800d883a 	mov	r6,r16
 402869c:	880f883a 	mov	r7,r17
 40286a0:	9009883a 	mov	r4,r18
 40286a4:	980b883a 	mov	r5,r19
 40286a8:	40233f80 	call	40233f8 <__divdf3>
 40286ac:	180b883a 	mov	r5,r3
 40286b0:	1009883a 	mov	r4,r2
 40286b4:	40251000 	call	4025100 <__fixdfsi>
 40286b8:	1009883a 	mov	r4,r2
 40286bc:	102b883a 	mov	r21,r2
 40286c0:	40251800 	call	4025180 <__floatsidf>
 40286c4:	800d883a 	mov	r6,r16
 40286c8:	880f883a 	mov	r7,r17
 40286cc:	1009883a 	mov	r4,r2
 40286d0:	180b883a 	mov	r5,r3
 40286d4:	4023f980 	call	4023f98 <__muldf3>
 40286d8:	100d883a 	mov	r6,r2
 40286dc:	180f883a 	mov	r7,r3
 40286e0:	9009883a 	mov	r4,r18
 40286e4:	980b883a 	mov	r5,r19
 40286e8:	40248040 	call	4024804 <__subdf3>
 40286ec:	d9c00717 	ldw	r7,28(sp)
 40286f0:	1009883a 	mov	r4,r2
 40286f4:	a8800c04 	addi	r2,r21,48
 40286f8:	38800005 	stb	r2,0(r7)
 40286fc:	3dc00044 	addi	r23,r7,1
 4028700:	d9c00617 	ldw	r7,24(sp)
 4028704:	01800044 	movi	r6,1
 4028708:	180b883a 	mov	r5,r3
 402870c:	2005883a 	mov	r2,r4
 4028710:	39803826 	beq	r7,r6,40287f4 <_dtoa_r+0x8f4>
 4028714:	000d883a 	mov	r6,zero
 4028718:	01d00934 	movhi	r7,16420
 402871c:	4023f980 	call	4023f98 <__muldf3>
 4028720:	000d883a 	mov	r6,zero
 4028724:	000f883a 	mov	r7,zero
 4028728:	1009883a 	mov	r4,r2
 402872c:	180b883a 	mov	r5,r3
 4028730:	1025883a 	mov	r18,r2
 4028734:	1827883a 	mov	r19,r3
 4028738:	402fb500 	call	402fb50 <__eqdf2>
 402873c:	103f9a26 	beq	r2,zero,40285a8 <__flash_rwdata_start+0xffff5cd4>
 4028740:	d9c00617 	ldw	r7,24(sp)
 4028744:	d8c00717 	ldw	r3,28(sp)
 4028748:	b829883a 	mov	r20,r23
 402874c:	38bfffc4 	addi	r2,r7,-1
 4028750:	18ad883a 	add	r22,r3,r2
 4028754:	00000a06 	br	4028780 <_dtoa_r+0x880>
 4028758:	4023f980 	call	4023f98 <__muldf3>
 402875c:	000d883a 	mov	r6,zero
 4028760:	000f883a 	mov	r7,zero
 4028764:	1009883a 	mov	r4,r2
 4028768:	180b883a 	mov	r5,r3
 402876c:	1025883a 	mov	r18,r2
 4028770:	1827883a 	mov	r19,r3
 4028774:	b829883a 	mov	r20,r23
 4028778:	402fb500 	call	402fb50 <__eqdf2>
 402877c:	103f8a26 	beq	r2,zero,40285a8 <__flash_rwdata_start+0xffff5cd4>
 4028780:	800d883a 	mov	r6,r16
 4028784:	880f883a 	mov	r7,r17
 4028788:	9009883a 	mov	r4,r18
 402878c:	980b883a 	mov	r5,r19
 4028790:	40233f80 	call	40233f8 <__divdf3>
 4028794:	180b883a 	mov	r5,r3
 4028798:	1009883a 	mov	r4,r2
 402879c:	40251000 	call	4025100 <__fixdfsi>
 40287a0:	1009883a 	mov	r4,r2
 40287a4:	102b883a 	mov	r21,r2
 40287a8:	40251800 	call	4025180 <__floatsidf>
 40287ac:	800d883a 	mov	r6,r16
 40287b0:	880f883a 	mov	r7,r17
 40287b4:	1009883a 	mov	r4,r2
 40287b8:	180b883a 	mov	r5,r3
 40287bc:	4023f980 	call	4023f98 <__muldf3>
 40287c0:	100d883a 	mov	r6,r2
 40287c4:	180f883a 	mov	r7,r3
 40287c8:	9009883a 	mov	r4,r18
 40287cc:	980b883a 	mov	r5,r19
 40287d0:	40248040 	call	4024804 <__subdf3>
 40287d4:	aa000c04 	addi	r8,r21,48
 40287d8:	a2000005 	stb	r8,0(r20)
 40287dc:	000d883a 	mov	r6,zero
 40287e0:	01d00934 	movhi	r7,16420
 40287e4:	1009883a 	mov	r4,r2
 40287e8:	180b883a 	mov	r5,r3
 40287ec:	a5c00044 	addi	r23,r20,1
 40287f0:	b53fd91e 	bne	r22,r20,4028758 <__flash_rwdata_start+0xffff5e84>
 40287f4:	100d883a 	mov	r6,r2
 40287f8:	180f883a 	mov	r7,r3
 40287fc:	1009883a 	mov	r4,r2
 4028800:	180b883a 	mov	r5,r3
 4028804:	4022b4c0 	call	4022b4c <__adddf3>
 4028808:	100d883a 	mov	r6,r2
 402880c:	180f883a 	mov	r7,r3
 4028810:	8009883a 	mov	r4,r16
 4028814:	880b883a 	mov	r5,r17
 4028818:	1027883a 	mov	r19,r2
 402881c:	1825883a 	mov	r18,r3
 4028820:	4023ea40 	call	4023ea4 <__ledf2>
 4028824:	10000816 	blt	r2,zero,4028848 <_dtoa_r+0x948>
 4028828:	980d883a 	mov	r6,r19
 402882c:	900f883a 	mov	r7,r18
 4028830:	8009883a 	mov	r4,r16
 4028834:	880b883a 	mov	r5,r17
 4028838:	402fb500 	call	402fb50 <__eqdf2>
 402883c:	103f5a1e 	bne	r2,zero,40285a8 <__flash_rwdata_start+0xffff5cd4>
 4028840:	ad40004c 	andi	r21,r21,1
 4028844:	a83f5826 	beq	r21,zero,40285a8 <__flash_rwdata_start+0xffff5cd4>
 4028848:	bd3fffc3 	ldbu	r20,-1(r23)
 402884c:	b8bfffc4 	addi	r2,r23,-1
 4028850:	1007883a 	mov	r3,r2
 4028854:	01400e44 	movi	r5,57
 4028858:	d9800717 	ldw	r6,28(sp)
 402885c:	00000506 	br	4028874 <_dtoa_r+0x974>
 4028860:	18ffffc4 	addi	r3,r3,-1
 4028864:	11824726 	beq	r2,r6,4029184 <_dtoa_r+0x1284>
 4028868:	1d000003 	ldbu	r20,0(r3)
 402886c:	102f883a 	mov	r23,r2
 4028870:	10bfffc4 	addi	r2,r2,-1
 4028874:	a1003fcc 	andi	r4,r20,255
 4028878:	2100201c 	xori	r4,r4,128
 402887c:	213fe004 	addi	r4,r4,-128
 4028880:	217ff726 	beq	r4,r5,4028860 <__flash_rwdata_start+0xffff5f8c>
 4028884:	a2000044 	addi	r8,r20,1
 4028888:	12000005 	stb	r8,0(r2)
 402888c:	003f4606 	br	40285a8 <__flash_rwdata_start+0xffff5cd4>
 4028890:	d9000b17 	ldw	r4,44(sp)
 4028894:	2000c826 	beq	r4,zero,4028bb8 <_dtoa_r+0xcb8>
 4028898:	d9800317 	ldw	r6,12(sp)
 402889c:	00c00044 	movi	r3,1
 40288a0:	1980f90e 	bge	r3,r6,4028c88 <_dtoa_r+0xd88>
 40288a4:	d8800617 	ldw	r2,24(sp)
 40288a8:	d8c00a17 	ldw	r3,40(sp)
 40288ac:	157fffc4 	addi	r21,r2,-1
 40288b0:	1d41f316 	blt	r3,r21,4029080 <_dtoa_r+0x1180>
 40288b4:	1d6bc83a 	sub	r21,r3,r21
 40288b8:	d9c00617 	ldw	r7,24(sp)
 40288bc:	3802aa16 	blt	r7,zero,4029368 <_dtoa_r+0x1468>
 40288c0:	dd000817 	ldw	r20,32(sp)
 40288c4:	d8800617 	ldw	r2,24(sp)
 40288c8:	d8c00817 	ldw	r3,32(sp)
 40288cc:	01400044 	movi	r5,1
 40288d0:	e009883a 	mov	r4,fp
 40288d4:	1887883a 	add	r3,r3,r2
 40288d8:	d8c00815 	stw	r3,32(sp)
 40288dc:	b0ad883a 	add	r22,r22,r2
 40288e0:	402b3c80 	call	402b3c8 <__i2b>
 40288e4:	1023883a 	mov	r17,r2
 40288e8:	a0000826 	beq	r20,zero,402890c <_dtoa_r+0xa0c>
 40288ec:	0580070e 	bge	zero,r22,402890c <_dtoa_r+0xa0c>
 40288f0:	a005883a 	mov	r2,r20
 40288f4:	b500b916 	blt	r22,r20,4028bdc <_dtoa_r+0xcdc>
 40288f8:	d9000817 	ldw	r4,32(sp)
 40288fc:	a0a9c83a 	sub	r20,r20,r2
 4028900:	b0adc83a 	sub	r22,r22,r2
 4028904:	2089c83a 	sub	r4,r4,r2
 4028908:	d9000815 	stw	r4,32(sp)
 402890c:	d9800a17 	ldw	r6,40(sp)
 4028910:	0181810e 	bge	zero,r6,4028f18 <_dtoa_r+0x1018>
 4028914:	d9c00b17 	ldw	r7,44(sp)
 4028918:	3800b326 	beq	r7,zero,4028be8 <_dtoa_r+0xce8>
 402891c:	a800b226 	beq	r21,zero,4028be8 <_dtoa_r+0xce8>
 4028920:	880b883a 	mov	r5,r17
 4028924:	a80d883a 	mov	r6,r21
 4028928:	e009883a 	mov	r4,fp
 402892c:	402b6900 	call	402b690 <__pow5mult>
 4028930:	d9800917 	ldw	r6,36(sp)
 4028934:	100b883a 	mov	r5,r2
 4028938:	e009883a 	mov	r4,fp
 402893c:	1023883a 	mov	r17,r2
 4028940:	402b4040 	call	402b404 <__multiply>
 4028944:	1021883a 	mov	r16,r2
 4028948:	d8800a17 	ldw	r2,40(sp)
 402894c:	d9400917 	ldw	r5,36(sp)
 4028950:	e009883a 	mov	r4,fp
 4028954:	1545c83a 	sub	r2,r2,r21
 4028958:	d8800a15 	stw	r2,40(sp)
 402895c:	402b03c0 	call	402b03c <_Bfree>
 4028960:	d8c00a17 	ldw	r3,40(sp)
 4028964:	18009f1e 	bne	r3,zero,4028be4 <_dtoa_r+0xce4>
 4028968:	05c00044 	movi	r23,1
 402896c:	e009883a 	mov	r4,fp
 4028970:	b80b883a 	mov	r5,r23
 4028974:	402b3c80 	call	402b3c8 <__i2b>
 4028978:	d9000d17 	ldw	r4,52(sp)
 402897c:	102b883a 	mov	r21,r2
 4028980:	2000ce26 	beq	r4,zero,4028cbc <_dtoa_r+0xdbc>
 4028984:	200d883a 	mov	r6,r4
 4028988:	100b883a 	mov	r5,r2
 402898c:	e009883a 	mov	r4,fp
 4028990:	402b6900 	call	402b690 <__pow5mult>
 4028994:	d9800317 	ldw	r6,12(sp)
 4028998:	102b883a 	mov	r21,r2
 402899c:	b981810e 	bge	r23,r6,4028fa4 <_dtoa_r+0x10a4>
 40289a0:	0027883a 	mov	r19,zero
 40289a4:	a8800417 	ldw	r2,16(r21)
 40289a8:	05c00804 	movi	r23,32
 40289ac:	10800104 	addi	r2,r2,4
 40289b0:	1085883a 	add	r2,r2,r2
 40289b4:	1085883a 	add	r2,r2,r2
 40289b8:	a885883a 	add	r2,r21,r2
 40289bc:	11000017 	ldw	r4,0(r2)
 40289c0:	402b2b00 	call	402b2b0 <__hi0bits>
 40289c4:	b885c83a 	sub	r2,r23,r2
 40289c8:	1585883a 	add	r2,r2,r22
 40289cc:	108007cc 	andi	r2,r2,31
 40289d0:	1000b326 	beq	r2,zero,4028ca0 <_dtoa_r+0xda0>
 40289d4:	00c00804 	movi	r3,32
 40289d8:	1887c83a 	sub	r3,r3,r2
 40289dc:	01000104 	movi	r4,4
 40289e0:	20c2cd0e 	bge	r4,r3,4029518 <_dtoa_r+0x1618>
 40289e4:	00c00704 	movi	r3,28
 40289e8:	1885c83a 	sub	r2,r3,r2
 40289ec:	d8c00817 	ldw	r3,32(sp)
 40289f0:	a0a9883a 	add	r20,r20,r2
 40289f4:	b0ad883a 	add	r22,r22,r2
 40289f8:	1887883a 	add	r3,r3,r2
 40289fc:	d8c00815 	stw	r3,32(sp)
 4028a00:	d9800817 	ldw	r6,32(sp)
 4028a04:	0180040e 	bge	zero,r6,4028a18 <_dtoa_r+0xb18>
 4028a08:	800b883a 	mov	r5,r16
 4028a0c:	e009883a 	mov	r4,fp
 4028a10:	402b7d00 	call	402b7d0 <__lshift>
 4028a14:	1021883a 	mov	r16,r2
 4028a18:	0580050e 	bge	zero,r22,4028a30 <_dtoa_r+0xb30>
 4028a1c:	a80b883a 	mov	r5,r21
 4028a20:	b00d883a 	mov	r6,r22
 4028a24:	e009883a 	mov	r4,fp
 4028a28:	402b7d00 	call	402b7d0 <__lshift>
 4028a2c:	102b883a 	mov	r21,r2
 4028a30:	d9c00e17 	ldw	r7,56(sp)
 4028a34:	3801211e 	bne	r7,zero,4028ebc <_dtoa_r+0xfbc>
 4028a38:	d9800617 	ldw	r6,24(sp)
 4028a3c:	0181380e 	bge	zero,r6,4028f20 <_dtoa_r+0x1020>
 4028a40:	d8c00b17 	ldw	r3,44(sp)
 4028a44:	1800ab1e 	bne	r3,zero,4028cf4 <_dtoa_r+0xdf4>
 4028a48:	dc800717 	ldw	r18,28(sp)
 4028a4c:	dcc00617 	ldw	r19,24(sp)
 4028a50:	9029883a 	mov	r20,r18
 4028a54:	00000206 	br	4028a60 <_dtoa_r+0xb60>
 4028a58:	402b0640 	call	402b064 <__multadd>
 4028a5c:	1021883a 	mov	r16,r2
 4028a60:	a80b883a 	mov	r5,r21
 4028a64:	8009883a 	mov	r4,r16
 4028a68:	4027cd80 	call	4027cd8 <quorem>
 4028a6c:	10800c04 	addi	r2,r2,48
 4028a70:	90800005 	stb	r2,0(r18)
 4028a74:	94800044 	addi	r18,r18,1
 4028a78:	9507c83a 	sub	r3,r18,r20
 4028a7c:	000f883a 	mov	r7,zero
 4028a80:	01800284 	movi	r6,10
 4028a84:	800b883a 	mov	r5,r16
 4028a88:	e009883a 	mov	r4,fp
 4028a8c:	1cfff216 	blt	r3,r19,4028a58 <__flash_rwdata_start+0xffff6184>
 4028a90:	1011883a 	mov	r8,r2
 4028a94:	d8800617 	ldw	r2,24(sp)
 4028a98:	0082370e 	bge	zero,r2,4029378 <_dtoa_r+0x1478>
 4028a9c:	d9000717 	ldw	r4,28(sp)
 4028aa0:	0025883a 	mov	r18,zero
 4028aa4:	20af883a 	add	r23,r4,r2
 4028aa8:	01800044 	movi	r6,1
 4028aac:	800b883a 	mov	r5,r16
 4028ab0:	e009883a 	mov	r4,fp
 4028ab4:	da001715 	stw	r8,92(sp)
 4028ab8:	402b7d00 	call	402b7d0 <__lshift>
 4028abc:	a80b883a 	mov	r5,r21
 4028ac0:	1009883a 	mov	r4,r2
 4028ac4:	d8800915 	stw	r2,36(sp)
 4028ac8:	402b9180 	call	402b918 <__mcmp>
 4028acc:	da001717 	ldw	r8,92(sp)
 4028ad0:	0081800e 	bge	zero,r2,40290d4 <_dtoa_r+0x11d4>
 4028ad4:	b93fffc3 	ldbu	r4,-1(r23)
 4028ad8:	b8bfffc4 	addi	r2,r23,-1
 4028adc:	1007883a 	mov	r3,r2
 4028ae0:	01800e44 	movi	r6,57
 4028ae4:	d9c00717 	ldw	r7,28(sp)
 4028ae8:	00000506 	br	4028b00 <_dtoa_r+0xc00>
 4028aec:	18ffffc4 	addi	r3,r3,-1
 4028af0:	11c12326 	beq	r2,r7,4028f80 <_dtoa_r+0x1080>
 4028af4:	19000003 	ldbu	r4,0(r3)
 4028af8:	102f883a 	mov	r23,r2
 4028afc:	10bfffc4 	addi	r2,r2,-1
 4028b00:	21403fcc 	andi	r5,r4,255
 4028b04:	2940201c 	xori	r5,r5,128
 4028b08:	297fe004 	addi	r5,r5,-128
 4028b0c:	29bff726 	beq	r5,r6,4028aec <__flash_rwdata_start+0xffff6218>
 4028b10:	21000044 	addi	r4,r4,1
 4028b14:	11000005 	stb	r4,0(r2)
 4028b18:	a80b883a 	mov	r5,r21
 4028b1c:	e009883a 	mov	r4,fp
 4028b20:	402b03c0 	call	402b03c <_Bfree>
 4028b24:	883ea026 	beq	r17,zero,40285a8 <__flash_rwdata_start+0xffff5cd4>
 4028b28:	90000426 	beq	r18,zero,4028b3c <_dtoa_r+0xc3c>
 4028b2c:	94400326 	beq	r18,r17,4028b3c <_dtoa_r+0xc3c>
 4028b30:	900b883a 	mov	r5,r18
 4028b34:	e009883a 	mov	r4,fp
 4028b38:	402b03c0 	call	402b03c <_Bfree>
 4028b3c:	880b883a 	mov	r5,r17
 4028b40:	e009883a 	mov	r4,fp
 4028b44:	402b03c0 	call	402b03c <_Bfree>
 4028b48:	003e9706 	br	40285a8 <__flash_rwdata_start+0xffff5cd4>
 4028b4c:	01800044 	movi	r6,1
 4028b50:	d9800e15 	stw	r6,56(sp)
 4028b54:	003d9606 	br	40281b0 <__flash_rwdata_start+0xffff58dc>
 4028b58:	d8800817 	ldw	r2,32(sp)
 4028b5c:	d8c00517 	ldw	r3,20(sp)
 4028b60:	d8000d15 	stw	zero,52(sp)
 4028b64:	10c5c83a 	sub	r2,r2,r3
 4028b68:	00c9c83a 	sub	r4,zero,r3
 4028b6c:	d8800815 	stw	r2,32(sp)
 4028b70:	d9000a15 	stw	r4,40(sp)
 4028b74:	003d9706 	br	40281d4 <__flash_rwdata_start+0xffff5900>
 4028b78:	05adc83a 	sub	r22,zero,r22
 4028b7c:	dd800815 	stw	r22,32(sp)
 4028b80:	002d883a 	mov	r22,zero
 4028b84:	003d8e06 	br	40281c0 <__flash_rwdata_start+0xffff58ec>
 4028b88:	d9000517 	ldw	r4,20(sp)
 4028b8c:	40251800 	call	4025180 <__floatsidf>
 4028b90:	100d883a 	mov	r6,r2
 4028b94:	180f883a 	mov	r7,r3
 4028b98:	a009883a 	mov	r4,r20
 4028b9c:	880b883a 	mov	r5,r17
 4028ba0:	402fb500 	call	402fb50 <__eqdf2>
 4028ba4:	103d7126 	beq	r2,zero,402816c <__flash_rwdata_start+0xffff5898>
 4028ba8:	d9c00517 	ldw	r7,20(sp)
 4028bac:	39ffffc4 	addi	r7,r7,-1
 4028bb0:	d9c00515 	stw	r7,20(sp)
 4028bb4:	003d6d06 	br	402816c <__flash_rwdata_start+0xffff5898>
 4028bb8:	dd400a17 	ldw	r21,40(sp)
 4028bbc:	dd000817 	ldw	r20,32(sp)
 4028bc0:	0023883a 	mov	r17,zero
 4028bc4:	003f4806 	br	40288e8 <__flash_rwdata_start+0xffff6014>
 4028bc8:	10e3c83a 	sub	r17,r2,r3
 4028bcc:	9448983a 	sll	r4,r18,r17
 4028bd0:	003d3206 	br	402809c <__flash_rwdata_start+0xffff57c8>
 4028bd4:	d8000e15 	stw	zero,56(sp)
 4028bd8:	003d7506 	br	40281b0 <__flash_rwdata_start+0xffff58dc>
 4028bdc:	b005883a 	mov	r2,r22
 4028be0:	003f4506 	br	40288f8 <__flash_rwdata_start+0xffff6024>
 4028be4:	dc000915 	stw	r16,36(sp)
 4028be8:	d9800a17 	ldw	r6,40(sp)
 4028bec:	d9400917 	ldw	r5,36(sp)
 4028bf0:	e009883a 	mov	r4,fp
 4028bf4:	402b6900 	call	402b690 <__pow5mult>
 4028bf8:	1021883a 	mov	r16,r2
 4028bfc:	003f5a06 	br	4028968 <__flash_rwdata_start+0xffff6094>
 4028c00:	01c00044 	movi	r7,1
 4028c04:	d9c00b15 	stw	r7,44(sp)
 4028c08:	d8802217 	ldw	r2,136(sp)
 4028c0c:	0081280e 	bge	zero,r2,40290b0 <_dtoa_r+0x11b0>
 4028c10:	100d883a 	mov	r6,r2
 4028c14:	1021883a 	mov	r16,r2
 4028c18:	d8800c15 	stw	r2,48(sp)
 4028c1c:	d8800615 	stw	r2,24(sp)
 4028c20:	003d8806 	br	4028244 <__flash_rwdata_start+0xffff5970>
 4028c24:	d8800617 	ldw	r2,24(sp)
 4028c28:	00be9b16 	blt	zero,r2,4028698 <__flash_rwdata_start+0xffff5dc4>
 4028c2c:	10010f1e 	bne	r2,zero,402906c <_dtoa_r+0x116c>
 4028c30:	880b883a 	mov	r5,r17
 4028c34:	000d883a 	mov	r6,zero
 4028c38:	01d00534 	movhi	r7,16404
 4028c3c:	8009883a 	mov	r4,r16
 4028c40:	4023f980 	call	4023f98 <__muldf3>
 4028c44:	900d883a 	mov	r6,r18
 4028c48:	980f883a 	mov	r7,r19
 4028c4c:	1009883a 	mov	r4,r2
 4028c50:	180b883a 	mov	r5,r3
 4028c54:	4023dc80 	call	4023dc8 <__gedf2>
 4028c58:	002b883a 	mov	r21,zero
 4028c5c:	0023883a 	mov	r17,zero
 4028c60:	1000bf16 	blt	r2,zero,4028f60 <_dtoa_r+0x1060>
 4028c64:	d9802217 	ldw	r6,136(sp)
 4028c68:	ddc00717 	ldw	r23,28(sp)
 4028c6c:	018c303a 	nor	r6,zero,r6
 4028c70:	d9800515 	stw	r6,20(sp)
 4028c74:	a80b883a 	mov	r5,r21
 4028c78:	e009883a 	mov	r4,fp
 4028c7c:	402b03c0 	call	402b03c <_Bfree>
 4028c80:	883e4926 	beq	r17,zero,40285a8 <__flash_rwdata_start+0xffff5cd4>
 4028c84:	003fad06 	br	4028b3c <__flash_rwdata_start+0xffff6268>
 4028c88:	d9c01117 	ldw	r7,68(sp)
 4028c8c:	3801bc26 	beq	r7,zero,4029380 <_dtoa_r+0x1480>
 4028c90:	10810cc4 	addi	r2,r2,1075
 4028c94:	dd400a17 	ldw	r21,40(sp)
 4028c98:	dd000817 	ldw	r20,32(sp)
 4028c9c:	003f0a06 	br	40288c8 <__flash_rwdata_start+0xffff5ff4>
 4028ca0:	00800704 	movi	r2,28
 4028ca4:	d9000817 	ldw	r4,32(sp)
 4028ca8:	a0a9883a 	add	r20,r20,r2
 4028cac:	b0ad883a 	add	r22,r22,r2
 4028cb0:	2089883a 	add	r4,r4,r2
 4028cb4:	d9000815 	stw	r4,32(sp)
 4028cb8:	003f5106 	br	4028a00 <__flash_rwdata_start+0xffff612c>
 4028cbc:	d8c00317 	ldw	r3,12(sp)
 4028cc0:	b8c1fc0e 	bge	r23,r3,40294b4 <_dtoa_r+0x15b4>
 4028cc4:	0027883a 	mov	r19,zero
 4028cc8:	b805883a 	mov	r2,r23
 4028ccc:	003f3e06 	br	40289c8 <__flash_rwdata_start+0xffff60f4>
 4028cd0:	880b883a 	mov	r5,r17
 4028cd4:	e009883a 	mov	r4,fp
 4028cd8:	000f883a 	mov	r7,zero
 4028cdc:	01800284 	movi	r6,10
 4028ce0:	402b0640 	call	402b064 <__multadd>
 4028ce4:	d9000c17 	ldw	r4,48(sp)
 4028ce8:	1023883a 	mov	r17,r2
 4028cec:	0102040e 	bge	zero,r4,4029500 <_dtoa_r+0x1600>
 4028cf0:	d9000615 	stw	r4,24(sp)
 4028cf4:	0500050e 	bge	zero,r20,4028d0c <_dtoa_r+0xe0c>
 4028cf8:	880b883a 	mov	r5,r17
 4028cfc:	a00d883a 	mov	r6,r20
 4028d00:	e009883a 	mov	r4,fp
 4028d04:	402b7d00 	call	402b7d0 <__lshift>
 4028d08:	1023883a 	mov	r17,r2
 4028d0c:	9801241e 	bne	r19,zero,40291a0 <_dtoa_r+0x12a0>
 4028d10:	8829883a 	mov	r20,r17
 4028d14:	d9000617 	ldw	r4,24(sp)
 4028d18:	dcc00717 	ldw	r19,28(sp)
 4028d1c:	9480004c 	andi	r18,r18,1
 4028d20:	20bfffc4 	addi	r2,r4,-1
 4028d24:	9885883a 	add	r2,r19,r2
 4028d28:	d8800415 	stw	r2,16(sp)
 4028d2c:	dc800615 	stw	r18,24(sp)
 4028d30:	a80b883a 	mov	r5,r21
 4028d34:	8009883a 	mov	r4,r16
 4028d38:	4027cd80 	call	4027cd8 <quorem>
 4028d3c:	880b883a 	mov	r5,r17
 4028d40:	8009883a 	mov	r4,r16
 4028d44:	102f883a 	mov	r23,r2
 4028d48:	402b9180 	call	402b918 <__mcmp>
 4028d4c:	a80b883a 	mov	r5,r21
 4028d50:	a00d883a 	mov	r6,r20
 4028d54:	e009883a 	mov	r4,fp
 4028d58:	102d883a 	mov	r22,r2
 4028d5c:	402b9780 	call	402b978 <__mdiff>
 4028d60:	1007883a 	mov	r3,r2
 4028d64:	10800317 	ldw	r2,12(r2)
 4028d68:	bc800c04 	addi	r18,r23,48
 4028d6c:	180b883a 	mov	r5,r3
 4028d70:	10004e1e 	bne	r2,zero,4028eac <_dtoa_r+0xfac>
 4028d74:	8009883a 	mov	r4,r16
 4028d78:	d8c01615 	stw	r3,88(sp)
 4028d7c:	402b9180 	call	402b918 <__mcmp>
 4028d80:	d8c01617 	ldw	r3,88(sp)
 4028d84:	e009883a 	mov	r4,fp
 4028d88:	d8801615 	stw	r2,88(sp)
 4028d8c:	180b883a 	mov	r5,r3
 4028d90:	402b03c0 	call	402b03c <_Bfree>
 4028d94:	d8801617 	ldw	r2,88(sp)
 4028d98:	1000041e 	bne	r2,zero,4028dac <_dtoa_r+0xeac>
 4028d9c:	d9800317 	ldw	r6,12(sp)
 4028da0:	3000021e 	bne	r6,zero,4028dac <_dtoa_r+0xeac>
 4028da4:	d8c00617 	ldw	r3,24(sp)
 4028da8:	18003726 	beq	r3,zero,4028e88 <_dtoa_r+0xf88>
 4028dac:	b0002016 	blt	r22,zero,4028e30 <_dtoa_r+0xf30>
 4028db0:	b000041e 	bne	r22,zero,4028dc4 <_dtoa_r+0xec4>
 4028db4:	d9000317 	ldw	r4,12(sp)
 4028db8:	2000021e 	bne	r4,zero,4028dc4 <_dtoa_r+0xec4>
 4028dbc:	d8c00617 	ldw	r3,24(sp)
 4028dc0:	18001b26 	beq	r3,zero,4028e30 <_dtoa_r+0xf30>
 4028dc4:	00810716 	blt	zero,r2,40291e4 <_dtoa_r+0x12e4>
 4028dc8:	d8c00417 	ldw	r3,16(sp)
 4028dcc:	9d800044 	addi	r22,r19,1
 4028dd0:	9c800005 	stb	r18,0(r19)
 4028dd4:	b02f883a 	mov	r23,r22
 4028dd8:	98c10626 	beq	r19,r3,40291f4 <_dtoa_r+0x12f4>
 4028ddc:	800b883a 	mov	r5,r16
 4028de0:	000f883a 	mov	r7,zero
 4028de4:	01800284 	movi	r6,10
 4028de8:	e009883a 	mov	r4,fp
 4028dec:	402b0640 	call	402b064 <__multadd>
 4028df0:	1021883a 	mov	r16,r2
 4028df4:	000f883a 	mov	r7,zero
 4028df8:	01800284 	movi	r6,10
 4028dfc:	880b883a 	mov	r5,r17
 4028e00:	e009883a 	mov	r4,fp
 4028e04:	8d002526 	beq	r17,r20,4028e9c <_dtoa_r+0xf9c>
 4028e08:	402b0640 	call	402b064 <__multadd>
 4028e0c:	a00b883a 	mov	r5,r20
 4028e10:	000f883a 	mov	r7,zero
 4028e14:	01800284 	movi	r6,10
 4028e18:	e009883a 	mov	r4,fp
 4028e1c:	1023883a 	mov	r17,r2
 4028e20:	402b0640 	call	402b064 <__multadd>
 4028e24:	1029883a 	mov	r20,r2
 4028e28:	b027883a 	mov	r19,r22
 4028e2c:	003fc006 	br	4028d30 <__flash_rwdata_start+0xffff645c>
 4028e30:	9011883a 	mov	r8,r18
 4028e34:	00800e0e 	bge	zero,r2,4028e70 <_dtoa_r+0xf70>
 4028e38:	800b883a 	mov	r5,r16
 4028e3c:	01800044 	movi	r6,1
 4028e40:	e009883a 	mov	r4,fp
 4028e44:	da001715 	stw	r8,92(sp)
 4028e48:	402b7d00 	call	402b7d0 <__lshift>
 4028e4c:	a80b883a 	mov	r5,r21
 4028e50:	1009883a 	mov	r4,r2
 4028e54:	1021883a 	mov	r16,r2
 4028e58:	402b9180 	call	402b918 <__mcmp>
 4028e5c:	da001717 	ldw	r8,92(sp)
 4028e60:	0081960e 	bge	zero,r2,40294bc <_dtoa_r+0x15bc>
 4028e64:	00800e44 	movi	r2,57
 4028e68:	40817026 	beq	r8,r2,402942c <_dtoa_r+0x152c>
 4028e6c:	ba000c44 	addi	r8,r23,49
 4028e70:	8825883a 	mov	r18,r17
 4028e74:	9dc00044 	addi	r23,r19,1
 4028e78:	9a000005 	stb	r8,0(r19)
 4028e7c:	a023883a 	mov	r17,r20
 4028e80:	dc000915 	stw	r16,36(sp)
 4028e84:	003f2406 	br	4028b18 <__flash_rwdata_start+0xffff6244>
 4028e88:	00800e44 	movi	r2,57
 4028e8c:	9011883a 	mov	r8,r18
 4028e90:	90816626 	beq	r18,r2,402942c <_dtoa_r+0x152c>
 4028e94:	05bff516 	blt	zero,r22,4028e6c <__flash_rwdata_start+0xffff6598>
 4028e98:	003ff506 	br	4028e70 <__flash_rwdata_start+0xffff659c>
 4028e9c:	402b0640 	call	402b064 <__multadd>
 4028ea0:	1023883a 	mov	r17,r2
 4028ea4:	1029883a 	mov	r20,r2
 4028ea8:	003fdf06 	br	4028e28 <__flash_rwdata_start+0xffff6554>
 4028eac:	e009883a 	mov	r4,fp
 4028eb0:	402b03c0 	call	402b03c <_Bfree>
 4028eb4:	00800044 	movi	r2,1
 4028eb8:	003fbc06 	br	4028dac <__flash_rwdata_start+0xffff64d8>
 4028ebc:	a80b883a 	mov	r5,r21
 4028ec0:	8009883a 	mov	r4,r16
 4028ec4:	402b9180 	call	402b918 <__mcmp>
 4028ec8:	103edb0e 	bge	r2,zero,4028a38 <__flash_rwdata_start+0xffff6164>
 4028ecc:	800b883a 	mov	r5,r16
 4028ed0:	000f883a 	mov	r7,zero
 4028ed4:	01800284 	movi	r6,10
 4028ed8:	e009883a 	mov	r4,fp
 4028edc:	402b0640 	call	402b064 <__multadd>
 4028ee0:	1021883a 	mov	r16,r2
 4028ee4:	d8800517 	ldw	r2,20(sp)
 4028ee8:	d8c00b17 	ldw	r3,44(sp)
 4028eec:	10bfffc4 	addi	r2,r2,-1
 4028ef0:	d8800515 	stw	r2,20(sp)
 4028ef4:	183f761e 	bne	r3,zero,4028cd0 <__flash_rwdata_start+0xffff63fc>
 4028ef8:	d9000c17 	ldw	r4,48(sp)
 4028efc:	0101730e 	bge	zero,r4,40294cc <_dtoa_r+0x15cc>
 4028f00:	d9000615 	stw	r4,24(sp)
 4028f04:	003ed006 	br	4028a48 <__flash_rwdata_start+0xffff6174>
 4028f08:	00800084 	movi	r2,2
 4028f0c:	3081861e 	bne	r6,r2,4029528 <_dtoa_r+0x1628>
 4028f10:	d8000b15 	stw	zero,44(sp)
 4028f14:	003f3c06 	br	4028c08 <__flash_rwdata_start+0xffff6334>
 4028f18:	dc000917 	ldw	r16,36(sp)
 4028f1c:	003e9206 	br	4028968 <__flash_rwdata_start+0xffff6094>
 4028f20:	d9c00317 	ldw	r7,12(sp)
 4028f24:	00800084 	movi	r2,2
 4028f28:	11fec50e 	bge	r2,r7,4028a40 <__flash_rwdata_start+0xffff616c>
 4028f2c:	d9000617 	ldw	r4,24(sp)
 4028f30:	20013c1e 	bne	r4,zero,4029424 <_dtoa_r+0x1524>
 4028f34:	a80b883a 	mov	r5,r21
 4028f38:	000f883a 	mov	r7,zero
 4028f3c:	01800144 	movi	r6,5
 4028f40:	e009883a 	mov	r4,fp
 4028f44:	402b0640 	call	402b064 <__multadd>
 4028f48:	100b883a 	mov	r5,r2
 4028f4c:	8009883a 	mov	r4,r16
 4028f50:	102b883a 	mov	r21,r2
 4028f54:	402b9180 	call	402b918 <__mcmp>
 4028f58:	dc000915 	stw	r16,36(sp)
 4028f5c:	00bf410e 	bge	zero,r2,4028c64 <__flash_rwdata_start+0xffff6390>
 4028f60:	d9c00717 	ldw	r7,28(sp)
 4028f64:	00800c44 	movi	r2,49
 4028f68:	38800005 	stb	r2,0(r7)
 4028f6c:	d8800517 	ldw	r2,20(sp)
 4028f70:	3dc00044 	addi	r23,r7,1
 4028f74:	10800044 	addi	r2,r2,1
 4028f78:	d8800515 	stw	r2,20(sp)
 4028f7c:	003f3d06 	br	4028c74 <__flash_rwdata_start+0xffff63a0>
 4028f80:	d9800517 	ldw	r6,20(sp)
 4028f84:	d9c00717 	ldw	r7,28(sp)
 4028f88:	00800c44 	movi	r2,49
 4028f8c:	31800044 	addi	r6,r6,1
 4028f90:	d9800515 	stw	r6,20(sp)
 4028f94:	38800005 	stb	r2,0(r7)
 4028f98:	003edf06 	br	4028b18 <__flash_rwdata_start+0xffff6244>
 4028f9c:	d8000b15 	stw	zero,44(sp)
 4028fa0:	003c9f06 	br	4028220 <__flash_rwdata_start+0xffff594c>
 4028fa4:	903e7e1e 	bne	r18,zero,40289a0 <__flash_rwdata_start+0xffff60cc>
 4028fa8:	00800434 	movhi	r2,16
 4028fac:	10bfffc4 	addi	r2,r2,-1
 4028fb0:	9884703a 	and	r2,r19,r2
 4028fb4:	1000ea1e 	bne	r2,zero,4029360 <_dtoa_r+0x1460>
 4028fb8:	9cdffc2c 	andhi	r19,r19,32752
 4028fbc:	9800e826 	beq	r19,zero,4029360 <_dtoa_r+0x1460>
 4028fc0:	d9c00817 	ldw	r7,32(sp)
 4028fc4:	b5800044 	addi	r22,r22,1
 4028fc8:	04c00044 	movi	r19,1
 4028fcc:	39c00044 	addi	r7,r7,1
 4028fd0:	d9c00815 	stw	r7,32(sp)
 4028fd4:	d8800d17 	ldw	r2,52(sp)
 4028fd8:	103e721e 	bne	r2,zero,40289a4 <__flash_rwdata_start+0xffff60d0>
 4028fdc:	00800044 	movi	r2,1
 4028fe0:	003e7906 	br	40289c8 <__flash_rwdata_start+0xffff60f4>
 4028fe4:	8009883a 	mov	r4,r16
 4028fe8:	40251800 	call	4025180 <__floatsidf>
 4028fec:	d9800f17 	ldw	r6,60(sp)
 4028ff0:	d9c01017 	ldw	r7,64(sp)
 4028ff4:	1009883a 	mov	r4,r2
 4028ff8:	180b883a 	mov	r5,r3
 4028ffc:	4023f980 	call	4023f98 <__muldf3>
 4029000:	000d883a 	mov	r6,zero
 4029004:	01d00734 	movhi	r7,16412
 4029008:	1009883a 	mov	r4,r2
 402900c:	180b883a 	mov	r5,r3
 4029010:	4022b4c0 	call	4022b4c <__adddf3>
 4029014:	047f3034 	movhi	r17,64704
 4029018:	1021883a 	mov	r16,r2
 402901c:	1c63883a 	add	r17,r3,r17
 4029020:	d9000f17 	ldw	r4,60(sp)
 4029024:	d9401017 	ldw	r5,64(sp)
 4029028:	000d883a 	mov	r6,zero
 402902c:	01d00534 	movhi	r7,16404
 4029030:	40248040 	call	4024804 <__subdf3>
 4029034:	800d883a 	mov	r6,r16
 4029038:	880f883a 	mov	r7,r17
 402903c:	1009883a 	mov	r4,r2
 4029040:	180b883a 	mov	r5,r3
 4029044:	102b883a 	mov	r21,r2
 4029048:	1829883a 	mov	r20,r3
 402904c:	4023dc80 	call	4023dc8 <__gedf2>
 4029050:	00806c16 	blt	zero,r2,4029204 <_dtoa_r+0x1304>
 4029054:	89e0003c 	xorhi	r7,r17,32768
 4029058:	800d883a 	mov	r6,r16
 402905c:	a809883a 	mov	r4,r21
 4029060:	a00b883a 	mov	r5,r20
 4029064:	4023ea40 	call	4023ea4 <__ledf2>
 4029068:	103d7e0e 	bge	r2,zero,4028664 <__flash_rwdata_start+0xffff5d90>
 402906c:	002b883a 	mov	r21,zero
 4029070:	0023883a 	mov	r17,zero
 4029074:	003efb06 	br	4028c64 <__flash_rwdata_start+0xffff6390>
 4029078:	d8800717 	ldw	r2,28(sp)
 402907c:	003bd006 	br	4027fc0 <__flash_rwdata_start+0xffff56ec>
 4029080:	d9000a17 	ldw	r4,40(sp)
 4029084:	d9800d17 	ldw	r6,52(sp)
 4029088:	dd400a15 	stw	r21,40(sp)
 402908c:	a905c83a 	sub	r2,r21,r4
 4029090:	308d883a 	add	r6,r6,r2
 4029094:	d9800d15 	stw	r6,52(sp)
 4029098:	002b883a 	mov	r21,zero
 402909c:	003e0606 	br	40288b8 <__flash_rwdata_start+0xffff5fe4>
 40290a0:	9023883a 	mov	r17,r18
 40290a4:	9829883a 	mov	r20,r19
 40290a8:	04000084 	movi	r16,2
 40290ac:	003c9206 	br	40282f8 <__flash_rwdata_start+0xffff5a24>
 40290b0:	04000044 	movi	r16,1
 40290b4:	dc000c15 	stw	r16,48(sp)
 40290b8:	dc000615 	stw	r16,24(sp)
 40290bc:	dc002215 	stw	r16,136(sp)
 40290c0:	e0001115 	stw	zero,68(fp)
 40290c4:	000b883a 	mov	r5,zero
 40290c8:	003c6906 	br	4028270 <__flash_rwdata_start+0xffff599c>
 40290cc:	3021883a 	mov	r16,r6
 40290d0:	003ffb06 	br	40290c0 <__flash_rwdata_start+0xffff67ec>
 40290d4:	1000021e 	bne	r2,zero,40290e0 <_dtoa_r+0x11e0>
 40290d8:	4200004c 	andi	r8,r8,1
 40290dc:	403e7d1e 	bne	r8,zero,4028ad4 <__flash_rwdata_start+0xffff6200>
 40290e0:	01000c04 	movi	r4,48
 40290e4:	00000106 	br	40290ec <_dtoa_r+0x11ec>
 40290e8:	102f883a 	mov	r23,r2
 40290ec:	b8bfffc4 	addi	r2,r23,-1
 40290f0:	10c00007 	ldb	r3,0(r2)
 40290f4:	193ffc26 	beq	r3,r4,40290e8 <__flash_rwdata_start+0xffff6814>
 40290f8:	003e8706 	br	4028b18 <__flash_rwdata_start+0xffff6244>
 40290fc:	d8800517 	ldw	r2,20(sp)
 4029100:	00a3c83a 	sub	r17,zero,r2
 4029104:	8800a426 	beq	r17,zero,4029398 <_dtoa_r+0x1498>
 4029108:	888003cc 	andi	r2,r17,15
 402910c:	100490fa 	slli	r2,r2,3
 4029110:	00c00034 	movhi	r3,0
 4029114:	18c08604 	addi	r3,r3,536
 4029118:	1885883a 	add	r2,r3,r2
 402911c:	11800017 	ldw	r6,0(r2)
 4029120:	11c00117 	ldw	r7,4(r2)
 4029124:	9009883a 	mov	r4,r18
 4029128:	980b883a 	mov	r5,r19
 402912c:	8823d13a 	srai	r17,r17,4
 4029130:	4023f980 	call	4023f98 <__muldf3>
 4029134:	d8800f15 	stw	r2,60(sp)
 4029138:	d8c01015 	stw	r3,64(sp)
 402913c:	8800e826 	beq	r17,zero,40294e0 <_dtoa_r+0x15e0>
 4029140:	05000034 	movhi	r20,0
 4029144:	a5007c04 	addi	r20,r20,496
 4029148:	04000084 	movi	r16,2
 402914c:	8980004c 	andi	r6,r17,1
 4029150:	1009883a 	mov	r4,r2
 4029154:	8823d07a 	srai	r17,r17,1
 4029158:	180b883a 	mov	r5,r3
 402915c:	30000426 	beq	r6,zero,4029170 <_dtoa_r+0x1270>
 4029160:	a1800017 	ldw	r6,0(r20)
 4029164:	a1c00117 	ldw	r7,4(r20)
 4029168:	84000044 	addi	r16,r16,1
 402916c:	4023f980 	call	4023f98 <__muldf3>
 4029170:	a5000204 	addi	r20,r20,8
 4029174:	883ff51e 	bne	r17,zero,402914c <__flash_rwdata_start+0xffff6878>
 4029178:	d8800f15 	stw	r2,60(sp)
 402917c:	d8c01015 	stw	r3,64(sp)
 4029180:	003c7606 	br	402835c <__flash_rwdata_start+0xffff5a88>
 4029184:	00c00c04 	movi	r3,48
 4029188:	10c00005 	stb	r3,0(r2)
 402918c:	d8c00517 	ldw	r3,20(sp)
 4029190:	bd3fffc3 	ldbu	r20,-1(r23)
 4029194:	18c00044 	addi	r3,r3,1
 4029198:	d8c00515 	stw	r3,20(sp)
 402919c:	003db906 	br	4028884 <__flash_rwdata_start+0xffff5fb0>
 40291a0:	89400117 	ldw	r5,4(r17)
 40291a4:	e009883a 	mov	r4,fp
 40291a8:	402af940 	call	402af94 <_Balloc>
 40291ac:	89800417 	ldw	r6,16(r17)
 40291b0:	89400304 	addi	r5,r17,12
 40291b4:	11000304 	addi	r4,r2,12
 40291b8:	31800084 	addi	r6,r6,2
 40291bc:	318d883a 	add	r6,r6,r6
 40291c0:	318d883a 	add	r6,r6,r6
 40291c4:	1027883a 	mov	r19,r2
 40291c8:	402ad240 	call	402ad24 <memcpy>
 40291cc:	01800044 	movi	r6,1
 40291d0:	980b883a 	mov	r5,r19
 40291d4:	e009883a 	mov	r4,fp
 40291d8:	402b7d00 	call	402b7d0 <__lshift>
 40291dc:	1029883a 	mov	r20,r2
 40291e0:	003ecc06 	br	4028d14 <__flash_rwdata_start+0xffff6440>
 40291e4:	00800e44 	movi	r2,57
 40291e8:	90809026 	beq	r18,r2,402942c <_dtoa_r+0x152c>
 40291ec:	92000044 	addi	r8,r18,1
 40291f0:	003f1f06 	br	4028e70 <__flash_rwdata_start+0xffff659c>
 40291f4:	9011883a 	mov	r8,r18
 40291f8:	8825883a 	mov	r18,r17
 40291fc:	a023883a 	mov	r17,r20
 4029200:	003e2906 	br	4028aa8 <__flash_rwdata_start+0xffff61d4>
 4029204:	002b883a 	mov	r21,zero
 4029208:	0023883a 	mov	r17,zero
 402920c:	003f5406 	br	4028f60 <__flash_rwdata_start+0xffff668c>
 4029210:	61bfffc4 	addi	r6,r12,-1
 4029214:	300490fa 	slli	r2,r6,3
 4029218:	00c00034 	movhi	r3,0
 402921c:	18c08604 	addi	r3,r3,536
 4029220:	1885883a 	add	r2,r3,r2
 4029224:	11000017 	ldw	r4,0(r2)
 4029228:	11400117 	ldw	r5,4(r2)
 402922c:	d8800717 	ldw	r2,28(sp)
 4029230:	880f883a 	mov	r7,r17
 4029234:	d9801215 	stw	r6,72(sp)
 4029238:	800d883a 	mov	r6,r16
 402923c:	db001615 	stw	r12,88(sp)
 4029240:	15c00044 	addi	r23,r2,1
 4029244:	4023f980 	call	4023f98 <__muldf3>
 4029248:	d9401017 	ldw	r5,64(sp)
 402924c:	d9000f17 	ldw	r4,60(sp)
 4029250:	d8c01515 	stw	r3,84(sp)
 4029254:	d8801415 	stw	r2,80(sp)
 4029258:	40251000 	call	4025100 <__fixdfsi>
 402925c:	1009883a 	mov	r4,r2
 4029260:	1021883a 	mov	r16,r2
 4029264:	40251800 	call	4025180 <__floatsidf>
 4029268:	d9000f17 	ldw	r4,60(sp)
 402926c:	d9401017 	ldw	r5,64(sp)
 4029270:	100d883a 	mov	r6,r2
 4029274:	180f883a 	mov	r7,r3
 4029278:	40248040 	call	4024804 <__subdf3>
 402927c:	1829883a 	mov	r20,r3
 4029280:	d8c00717 	ldw	r3,28(sp)
 4029284:	84000c04 	addi	r16,r16,48
 4029288:	1023883a 	mov	r17,r2
 402928c:	1c000005 	stb	r16,0(r3)
 4029290:	db001617 	ldw	r12,88(sp)
 4029294:	00800044 	movi	r2,1
 4029298:	60802226 	beq	r12,r2,4029324 <_dtoa_r+0x1424>
 402929c:	d9c00717 	ldw	r7,28(sp)
 40292a0:	8805883a 	mov	r2,r17
 40292a4:	b82b883a 	mov	r21,r23
 40292a8:	3b19883a 	add	r12,r7,r12
 40292ac:	6023883a 	mov	r17,r12
 40292b0:	a007883a 	mov	r3,r20
 40292b4:	dc800f15 	stw	r18,60(sp)
 40292b8:	000d883a 	mov	r6,zero
 40292bc:	01d00934 	movhi	r7,16420
 40292c0:	1009883a 	mov	r4,r2
 40292c4:	180b883a 	mov	r5,r3
 40292c8:	4023f980 	call	4023f98 <__muldf3>
 40292cc:	180b883a 	mov	r5,r3
 40292d0:	1009883a 	mov	r4,r2
 40292d4:	1829883a 	mov	r20,r3
 40292d8:	1025883a 	mov	r18,r2
 40292dc:	40251000 	call	4025100 <__fixdfsi>
 40292e0:	1009883a 	mov	r4,r2
 40292e4:	1021883a 	mov	r16,r2
 40292e8:	40251800 	call	4025180 <__floatsidf>
 40292ec:	100d883a 	mov	r6,r2
 40292f0:	180f883a 	mov	r7,r3
 40292f4:	9009883a 	mov	r4,r18
 40292f8:	a00b883a 	mov	r5,r20
 40292fc:	84000c04 	addi	r16,r16,48
 4029300:	40248040 	call	4024804 <__subdf3>
 4029304:	ad400044 	addi	r21,r21,1
 4029308:	ac3fffc5 	stb	r16,-1(r21)
 402930c:	ac7fea1e 	bne	r21,r17,40292b8 <__flash_rwdata_start+0xffff69e4>
 4029310:	1023883a 	mov	r17,r2
 4029314:	d8801217 	ldw	r2,72(sp)
 4029318:	dc800f17 	ldw	r18,60(sp)
 402931c:	1829883a 	mov	r20,r3
 4029320:	b8af883a 	add	r23,r23,r2
 4029324:	d9001417 	ldw	r4,80(sp)
 4029328:	d9401517 	ldw	r5,84(sp)
 402932c:	000d883a 	mov	r6,zero
 4029330:	01cff834 	movhi	r7,16352
 4029334:	4022b4c0 	call	4022b4c <__adddf3>
 4029338:	880d883a 	mov	r6,r17
 402933c:	a00f883a 	mov	r7,r20
 4029340:	1009883a 	mov	r4,r2
 4029344:	180b883a 	mov	r5,r3
 4029348:	4023ea40 	call	4023ea4 <__ledf2>
 402934c:	10003e0e 	bge	r2,zero,4029448 <_dtoa_r+0x1548>
 4029350:	d9001317 	ldw	r4,76(sp)
 4029354:	bd3fffc3 	ldbu	r20,-1(r23)
 4029358:	d9000515 	stw	r4,20(sp)
 402935c:	003d3b06 	br	402884c <__flash_rwdata_start+0xffff5f78>
 4029360:	0027883a 	mov	r19,zero
 4029364:	003f1b06 	br	4028fd4 <__flash_rwdata_start+0xffff6700>
 4029368:	d8800817 	ldw	r2,32(sp)
 402936c:	11e9c83a 	sub	r20,r2,r7
 4029370:	0005883a 	mov	r2,zero
 4029374:	003d5406 	br	40288c8 <__flash_rwdata_start+0xffff5ff4>
 4029378:	00800044 	movi	r2,1
 402937c:	003dc706 	br	4028a9c <__flash_rwdata_start+0xffff61c8>
 4029380:	d8c00217 	ldw	r3,8(sp)
 4029384:	00800d84 	movi	r2,54
 4029388:	dd400a17 	ldw	r21,40(sp)
 402938c:	10c5c83a 	sub	r2,r2,r3
 4029390:	dd000817 	ldw	r20,32(sp)
 4029394:	003d4c06 	br	40288c8 <__flash_rwdata_start+0xffff5ff4>
 4029398:	dc800f15 	stw	r18,60(sp)
 402939c:	dcc01015 	stw	r19,64(sp)
 40293a0:	04000084 	movi	r16,2
 40293a4:	003bed06 	br	402835c <__flash_rwdata_start+0xffff5a88>
 40293a8:	d9000617 	ldw	r4,24(sp)
 40293ac:	203f0d26 	beq	r4,zero,4028fe4 <__flash_rwdata_start+0xffff6710>
 40293b0:	d9800c17 	ldw	r6,48(sp)
 40293b4:	01bcab0e 	bge	zero,r6,4028664 <__flash_rwdata_start+0xffff5d90>
 40293b8:	d9401017 	ldw	r5,64(sp)
 40293bc:	d9000f17 	ldw	r4,60(sp)
 40293c0:	000d883a 	mov	r6,zero
 40293c4:	01d00934 	movhi	r7,16420
 40293c8:	4023f980 	call	4023f98 <__muldf3>
 40293cc:	81000044 	addi	r4,r16,1
 40293d0:	d8800f15 	stw	r2,60(sp)
 40293d4:	d8c01015 	stw	r3,64(sp)
 40293d8:	40251800 	call	4025180 <__floatsidf>
 40293dc:	d9800f17 	ldw	r6,60(sp)
 40293e0:	d9c01017 	ldw	r7,64(sp)
 40293e4:	1009883a 	mov	r4,r2
 40293e8:	180b883a 	mov	r5,r3
 40293ec:	4023f980 	call	4023f98 <__muldf3>
 40293f0:	01d00734 	movhi	r7,16412
 40293f4:	000d883a 	mov	r6,zero
 40293f8:	1009883a 	mov	r4,r2
 40293fc:	180b883a 	mov	r5,r3
 4029400:	4022b4c0 	call	4022b4c <__adddf3>
 4029404:	d9c00517 	ldw	r7,20(sp)
 4029408:	047f3034 	movhi	r17,64704
 402940c:	1021883a 	mov	r16,r2
 4029410:	39ffffc4 	addi	r7,r7,-1
 4029414:	d9c01315 	stw	r7,76(sp)
 4029418:	1c63883a 	add	r17,r3,r17
 402941c:	db000c17 	ldw	r12,48(sp)
 4029420:	003bea06 	br	40283cc <__flash_rwdata_start+0xffff5af8>
 4029424:	dc000915 	stw	r16,36(sp)
 4029428:	003e0e06 	br	4028c64 <__flash_rwdata_start+0xffff6390>
 402942c:	01000e44 	movi	r4,57
 4029430:	8825883a 	mov	r18,r17
 4029434:	9dc00044 	addi	r23,r19,1
 4029438:	99000005 	stb	r4,0(r19)
 402943c:	a023883a 	mov	r17,r20
 4029440:	dc000915 	stw	r16,36(sp)
 4029444:	003da406 	br	4028ad8 <__flash_rwdata_start+0xffff6204>
 4029448:	d9801417 	ldw	r6,80(sp)
 402944c:	d9c01517 	ldw	r7,84(sp)
 4029450:	0009883a 	mov	r4,zero
 4029454:	014ff834 	movhi	r5,16352
 4029458:	40248040 	call	4024804 <__subdf3>
 402945c:	880d883a 	mov	r6,r17
 4029460:	a00f883a 	mov	r7,r20
 4029464:	1009883a 	mov	r4,r2
 4029468:	180b883a 	mov	r5,r3
 402946c:	4023dc80 	call	4023dc8 <__gedf2>
 4029470:	00bc7c0e 	bge	zero,r2,4028664 <__flash_rwdata_start+0xffff5d90>
 4029474:	01000c04 	movi	r4,48
 4029478:	00000106 	br	4029480 <_dtoa_r+0x1580>
 402947c:	102f883a 	mov	r23,r2
 4029480:	b8bfffc4 	addi	r2,r23,-1
 4029484:	10c00007 	ldb	r3,0(r2)
 4029488:	193ffc26 	beq	r3,r4,402947c <__flash_rwdata_start+0xffff6ba8>
 402948c:	d9801317 	ldw	r6,76(sp)
 4029490:	d9800515 	stw	r6,20(sp)
 4029494:	003c4406 	br	40285a8 <__flash_rwdata_start+0xffff5cd4>
 4029498:	d9801317 	ldw	r6,76(sp)
 402949c:	d9800515 	stw	r6,20(sp)
 40294a0:	003cea06 	br	402884c <__flash_rwdata_start+0xffff5f78>
 40294a4:	dd800f17 	ldw	r22,60(sp)
 40294a8:	dcc01017 	ldw	r19,64(sp)
 40294ac:	dc801217 	ldw	r18,72(sp)
 40294b0:	003c6c06 	br	4028664 <__flash_rwdata_start+0xffff5d90>
 40294b4:	903e031e 	bne	r18,zero,4028cc4 <__flash_rwdata_start+0xffff63f0>
 40294b8:	003ebb06 	br	4028fa8 <__flash_rwdata_start+0xffff66d4>
 40294bc:	103e6c1e 	bne	r2,zero,4028e70 <__flash_rwdata_start+0xffff659c>
 40294c0:	4080004c 	andi	r2,r8,1
 40294c4:	103e6a26 	beq	r2,zero,4028e70 <__flash_rwdata_start+0xffff659c>
 40294c8:	003e6606 	br	4028e64 <__flash_rwdata_start+0xffff6590>
 40294cc:	d8c00317 	ldw	r3,12(sp)
 40294d0:	00800084 	movi	r2,2
 40294d4:	10c02916 	blt	r2,r3,402957c <_dtoa_r+0x167c>
 40294d8:	d9000c17 	ldw	r4,48(sp)
 40294dc:	003e8806 	br	4028f00 <__flash_rwdata_start+0xffff662c>
 40294e0:	04000084 	movi	r16,2
 40294e4:	003b9d06 	br	402835c <__flash_rwdata_start+0xffff5a88>
 40294e8:	d9001317 	ldw	r4,76(sp)
 40294ec:	d9000515 	stw	r4,20(sp)
 40294f0:	003cd606 	br	402884c <__flash_rwdata_start+0xffff5f78>
 40294f4:	d8801317 	ldw	r2,76(sp)
 40294f8:	d8800515 	stw	r2,20(sp)
 40294fc:	003c2a06 	br	40285a8 <__flash_rwdata_start+0xffff5cd4>
 4029500:	d9800317 	ldw	r6,12(sp)
 4029504:	00800084 	movi	r2,2
 4029508:	11801516 	blt	r2,r6,4029560 <_dtoa_r+0x1660>
 402950c:	d9c00c17 	ldw	r7,48(sp)
 4029510:	d9c00615 	stw	r7,24(sp)
 4029514:	003df706 	br	4028cf4 <__flash_rwdata_start+0xffff6420>
 4029518:	193d3926 	beq	r3,r4,4028a00 <__flash_rwdata_start+0xffff612c>
 402951c:	00c00f04 	movi	r3,60
 4029520:	1885c83a 	sub	r2,r3,r2
 4029524:	003ddf06 	br	4028ca4 <__flash_rwdata_start+0xffff63d0>
 4029528:	e009883a 	mov	r4,fp
 402952c:	e0001115 	stw	zero,68(fp)
 4029530:	000b883a 	mov	r5,zero
 4029534:	402af940 	call	402af94 <_Balloc>
 4029538:	d8800715 	stw	r2,28(sp)
 402953c:	d8c00717 	ldw	r3,28(sp)
 4029540:	00bfffc4 	movi	r2,-1
 4029544:	01000044 	movi	r4,1
 4029548:	d8800c15 	stw	r2,48(sp)
 402954c:	e0c01015 	stw	r3,64(fp)
 4029550:	d9000b15 	stw	r4,44(sp)
 4029554:	d8800615 	stw	r2,24(sp)
 4029558:	d8002215 	stw	zero,136(sp)
 402955c:	003c4106 	br	4028664 <__flash_rwdata_start+0xffff5d90>
 4029560:	d8c00c17 	ldw	r3,48(sp)
 4029564:	d8c00615 	stw	r3,24(sp)
 4029568:	003e7006 	br	4028f2c <__flash_rwdata_start+0xffff6658>
 402956c:	04400044 	movi	r17,1
 4029570:	003b2006 	br	40281f4 <__flash_rwdata_start+0xffff5920>
 4029574:	000b883a 	mov	r5,zero
 4029578:	003b3d06 	br	4028270 <__flash_rwdata_start+0xffff599c>
 402957c:	d8800c17 	ldw	r2,48(sp)
 4029580:	d8800615 	stw	r2,24(sp)
 4029584:	003e6906 	br	4028f2c <__flash_rwdata_start+0xffff6658>

04029588 <__sflush_r>:
 4029588:	2880030b 	ldhu	r2,12(r5)
 402958c:	defffb04 	addi	sp,sp,-20
 4029590:	dcc00315 	stw	r19,12(sp)
 4029594:	dc400115 	stw	r17,4(sp)
 4029598:	dfc00415 	stw	ra,16(sp)
 402959c:	dc800215 	stw	r18,8(sp)
 40295a0:	dc000015 	stw	r16,0(sp)
 40295a4:	10c0020c 	andi	r3,r2,8
 40295a8:	2823883a 	mov	r17,r5
 40295ac:	2027883a 	mov	r19,r4
 40295b0:	1800311e 	bne	r3,zero,4029678 <__sflush_r+0xf0>
 40295b4:	28c00117 	ldw	r3,4(r5)
 40295b8:	10820014 	ori	r2,r2,2048
 40295bc:	2880030d 	sth	r2,12(r5)
 40295c0:	00c04b0e 	bge	zero,r3,40296f0 <__sflush_r+0x168>
 40295c4:	8a000a17 	ldw	r8,40(r17)
 40295c8:	40002326 	beq	r8,zero,4029658 <__sflush_r+0xd0>
 40295cc:	9c000017 	ldw	r16,0(r19)
 40295d0:	10c4000c 	andi	r3,r2,4096
 40295d4:	98000015 	stw	zero,0(r19)
 40295d8:	18004826 	beq	r3,zero,40296fc <__sflush_r+0x174>
 40295dc:	89801417 	ldw	r6,80(r17)
 40295e0:	10c0010c 	andi	r3,r2,4
 40295e4:	18000626 	beq	r3,zero,4029600 <__sflush_r+0x78>
 40295e8:	88c00117 	ldw	r3,4(r17)
 40295ec:	88800c17 	ldw	r2,48(r17)
 40295f0:	30cdc83a 	sub	r6,r6,r3
 40295f4:	10000226 	beq	r2,zero,4029600 <__sflush_r+0x78>
 40295f8:	88800f17 	ldw	r2,60(r17)
 40295fc:	308dc83a 	sub	r6,r6,r2
 4029600:	89400717 	ldw	r5,28(r17)
 4029604:	000f883a 	mov	r7,zero
 4029608:	9809883a 	mov	r4,r19
 402960c:	403ee83a 	callr	r8
 4029610:	00ffffc4 	movi	r3,-1
 4029614:	10c04426 	beq	r2,r3,4029728 <__sflush_r+0x1a0>
 4029618:	88c0030b 	ldhu	r3,12(r17)
 402961c:	89000417 	ldw	r4,16(r17)
 4029620:	88000115 	stw	zero,4(r17)
 4029624:	197dffcc 	andi	r5,r3,63487
 4029628:	8940030d 	sth	r5,12(r17)
 402962c:	89000015 	stw	r4,0(r17)
 4029630:	18c4000c 	andi	r3,r3,4096
 4029634:	18002c1e 	bne	r3,zero,40296e8 <__sflush_r+0x160>
 4029638:	89400c17 	ldw	r5,48(r17)
 402963c:	9c000015 	stw	r16,0(r19)
 4029640:	28000526 	beq	r5,zero,4029658 <__sflush_r+0xd0>
 4029644:	88801004 	addi	r2,r17,64
 4029648:	28800226 	beq	r5,r2,4029654 <__sflush_r+0xcc>
 402964c:	9809883a 	mov	r4,r19
 4029650:	4029d040 	call	4029d04 <_free_r>
 4029654:	88000c15 	stw	zero,48(r17)
 4029658:	0005883a 	mov	r2,zero
 402965c:	dfc00417 	ldw	ra,16(sp)
 4029660:	dcc00317 	ldw	r19,12(sp)
 4029664:	dc800217 	ldw	r18,8(sp)
 4029668:	dc400117 	ldw	r17,4(sp)
 402966c:	dc000017 	ldw	r16,0(sp)
 4029670:	dec00504 	addi	sp,sp,20
 4029674:	f800283a 	ret
 4029678:	2c800417 	ldw	r18,16(r5)
 402967c:	903ff626 	beq	r18,zero,4029658 <__flash_rwdata_start+0xffff6d84>
 4029680:	2c000017 	ldw	r16,0(r5)
 4029684:	108000cc 	andi	r2,r2,3
 4029688:	2c800015 	stw	r18,0(r5)
 402968c:	84a1c83a 	sub	r16,r16,r18
 4029690:	1000131e 	bne	r2,zero,40296e0 <__sflush_r+0x158>
 4029694:	28800517 	ldw	r2,20(r5)
 4029698:	88800215 	stw	r2,8(r17)
 402969c:	04000316 	blt	zero,r16,40296ac <__sflush_r+0x124>
 40296a0:	003fed06 	br	4029658 <__flash_rwdata_start+0xffff6d84>
 40296a4:	90a5883a 	add	r18,r18,r2
 40296a8:	043feb0e 	bge	zero,r16,4029658 <__flash_rwdata_start+0xffff6d84>
 40296ac:	88800917 	ldw	r2,36(r17)
 40296b0:	89400717 	ldw	r5,28(r17)
 40296b4:	800f883a 	mov	r7,r16
 40296b8:	900d883a 	mov	r6,r18
 40296bc:	9809883a 	mov	r4,r19
 40296c0:	103ee83a 	callr	r2
 40296c4:	80a1c83a 	sub	r16,r16,r2
 40296c8:	00bff616 	blt	zero,r2,40296a4 <__flash_rwdata_start+0xffff6dd0>
 40296cc:	88c0030b 	ldhu	r3,12(r17)
 40296d0:	00bfffc4 	movi	r2,-1
 40296d4:	18c01014 	ori	r3,r3,64
 40296d8:	88c0030d 	sth	r3,12(r17)
 40296dc:	003fdf06 	br	402965c <__flash_rwdata_start+0xffff6d88>
 40296e0:	0005883a 	mov	r2,zero
 40296e4:	003fec06 	br	4029698 <__flash_rwdata_start+0xffff6dc4>
 40296e8:	88801415 	stw	r2,80(r17)
 40296ec:	003fd206 	br	4029638 <__flash_rwdata_start+0xffff6d64>
 40296f0:	28c00f17 	ldw	r3,60(r5)
 40296f4:	00ffb316 	blt	zero,r3,40295c4 <__flash_rwdata_start+0xffff6cf0>
 40296f8:	003fd706 	br	4029658 <__flash_rwdata_start+0xffff6d84>
 40296fc:	89400717 	ldw	r5,28(r17)
 4029700:	000d883a 	mov	r6,zero
 4029704:	01c00044 	movi	r7,1
 4029708:	9809883a 	mov	r4,r19
 402970c:	403ee83a 	callr	r8
 4029710:	100d883a 	mov	r6,r2
 4029714:	00bfffc4 	movi	r2,-1
 4029718:	30801426 	beq	r6,r2,402976c <__sflush_r+0x1e4>
 402971c:	8880030b 	ldhu	r2,12(r17)
 4029720:	8a000a17 	ldw	r8,40(r17)
 4029724:	003fae06 	br	40295e0 <__flash_rwdata_start+0xffff6d0c>
 4029728:	98c00017 	ldw	r3,0(r19)
 402972c:	183fba26 	beq	r3,zero,4029618 <__flash_rwdata_start+0xffff6d44>
 4029730:	01000744 	movi	r4,29
 4029734:	19000626 	beq	r3,r4,4029750 <__sflush_r+0x1c8>
 4029738:	01000584 	movi	r4,22
 402973c:	19000426 	beq	r3,r4,4029750 <__sflush_r+0x1c8>
 4029740:	88c0030b 	ldhu	r3,12(r17)
 4029744:	18c01014 	ori	r3,r3,64
 4029748:	88c0030d 	sth	r3,12(r17)
 402974c:	003fc306 	br	402965c <__flash_rwdata_start+0xffff6d88>
 4029750:	8880030b 	ldhu	r2,12(r17)
 4029754:	88c00417 	ldw	r3,16(r17)
 4029758:	88000115 	stw	zero,4(r17)
 402975c:	10bdffcc 	andi	r2,r2,63487
 4029760:	8880030d 	sth	r2,12(r17)
 4029764:	88c00015 	stw	r3,0(r17)
 4029768:	003fb306 	br	4029638 <__flash_rwdata_start+0xffff6d64>
 402976c:	98800017 	ldw	r2,0(r19)
 4029770:	103fea26 	beq	r2,zero,402971c <__flash_rwdata_start+0xffff6e48>
 4029774:	00c00744 	movi	r3,29
 4029778:	10c00226 	beq	r2,r3,4029784 <__sflush_r+0x1fc>
 402977c:	00c00584 	movi	r3,22
 4029780:	10c0031e 	bne	r2,r3,4029790 <__sflush_r+0x208>
 4029784:	9c000015 	stw	r16,0(r19)
 4029788:	0005883a 	mov	r2,zero
 402978c:	003fb306 	br	402965c <__flash_rwdata_start+0xffff6d88>
 4029790:	88c0030b 	ldhu	r3,12(r17)
 4029794:	3005883a 	mov	r2,r6
 4029798:	18c01014 	ori	r3,r3,64
 402979c:	88c0030d 	sth	r3,12(r17)
 40297a0:	003fae06 	br	402965c <__flash_rwdata_start+0xffff6d88>

040297a4 <_fflush_r>:
 40297a4:	defffd04 	addi	sp,sp,-12
 40297a8:	dc000115 	stw	r16,4(sp)
 40297ac:	dfc00215 	stw	ra,8(sp)
 40297b0:	2021883a 	mov	r16,r4
 40297b4:	20000226 	beq	r4,zero,40297c0 <_fflush_r+0x1c>
 40297b8:	20800e17 	ldw	r2,56(r4)
 40297bc:	10000c26 	beq	r2,zero,40297f0 <_fflush_r+0x4c>
 40297c0:	2880030f 	ldh	r2,12(r5)
 40297c4:	1000051e 	bne	r2,zero,40297dc <_fflush_r+0x38>
 40297c8:	0005883a 	mov	r2,zero
 40297cc:	dfc00217 	ldw	ra,8(sp)
 40297d0:	dc000117 	ldw	r16,4(sp)
 40297d4:	dec00304 	addi	sp,sp,12
 40297d8:	f800283a 	ret
 40297dc:	8009883a 	mov	r4,r16
 40297e0:	dfc00217 	ldw	ra,8(sp)
 40297e4:	dc000117 	ldw	r16,4(sp)
 40297e8:	dec00304 	addi	sp,sp,12
 40297ec:	40295881 	jmpi	4029588 <__sflush_r>
 40297f0:	d9400015 	stw	r5,0(sp)
 40297f4:	4029b900 	call	4029b90 <__sinit>
 40297f8:	d9400017 	ldw	r5,0(sp)
 40297fc:	003ff006 	br	40297c0 <__flash_rwdata_start+0xffff6eec>

04029800 <fflush>:
 4029800:	20000526 	beq	r4,zero,4029818 <fflush+0x18>
 4029804:	00800034 	movhi	r2,0
 4029808:	10877804 	addi	r2,r2,7648
 402980c:	200b883a 	mov	r5,r4
 4029810:	11000017 	ldw	r4,0(r2)
 4029814:	40297a41 	jmpi	40297a4 <_fflush_r>
 4029818:	00800034 	movhi	r2,0
 402981c:	10877704 	addi	r2,r2,7644
 4029820:	11000017 	ldw	r4,0(r2)
 4029824:	014100f4 	movhi	r5,1027
 4029828:	2965e904 	addi	r5,r5,-26716
 402982c:	402a0d81 	jmpi	402a0d8 <_fwalk_reent>

04029830 <__fp_unlock>:
 4029830:	0005883a 	mov	r2,zero
 4029834:	f800283a 	ret

04029838 <_cleanup_r>:
 4029838:	014100f4 	movhi	r5,1027
 402983c:	29771304 	addi	r5,r5,-9140
 4029840:	402a0d81 	jmpi	402a0d8 <_fwalk_reent>

04029844 <__sinit.part.1>:
 4029844:	defff704 	addi	sp,sp,-36
 4029848:	00c100f4 	movhi	r3,1027
 402984c:	dfc00815 	stw	ra,32(sp)
 4029850:	ddc00715 	stw	r23,28(sp)
 4029854:	dd800615 	stw	r22,24(sp)
 4029858:	dd400515 	stw	r21,20(sp)
 402985c:	dd000415 	stw	r20,16(sp)
 4029860:	dcc00315 	stw	r19,12(sp)
 4029864:	dc800215 	stw	r18,8(sp)
 4029868:	dc400115 	stw	r17,4(sp)
 402986c:	dc000015 	stw	r16,0(sp)
 4029870:	18e60e04 	addi	r3,r3,-26568
 4029874:	24000117 	ldw	r16,4(r4)
 4029878:	20c00f15 	stw	r3,60(r4)
 402987c:	2080bb04 	addi	r2,r4,748
 4029880:	00c000c4 	movi	r3,3
 4029884:	20c0b915 	stw	r3,740(r4)
 4029888:	2080ba15 	stw	r2,744(r4)
 402988c:	2000b815 	stw	zero,736(r4)
 4029890:	05c00204 	movi	r23,8
 4029894:	00800104 	movi	r2,4
 4029898:	2025883a 	mov	r18,r4
 402989c:	b80d883a 	mov	r6,r23
 40298a0:	81001704 	addi	r4,r16,92
 40298a4:	000b883a 	mov	r5,zero
 40298a8:	80000015 	stw	zero,0(r16)
 40298ac:	80000115 	stw	zero,4(r16)
 40298b0:	80000215 	stw	zero,8(r16)
 40298b4:	8080030d 	sth	r2,12(r16)
 40298b8:	80001915 	stw	zero,100(r16)
 40298bc:	8000038d 	sth	zero,14(r16)
 40298c0:	80000415 	stw	zero,16(r16)
 40298c4:	80000515 	stw	zero,20(r16)
 40298c8:	80000615 	stw	zero,24(r16)
 40298cc:	402ae6c0 	call	402ae6c <memset>
 40298d0:	058100f4 	movhi	r22,1027
 40298d4:	94400217 	ldw	r17,8(r18)
 40298d8:	054100f4 	movhi	r21,1027
 40298dc:	050100f4 	movhi	r20,1027
 40298e0:	04c100f4 	movhi	r19,1027
 40298e4:	b5b04504 	addi	r22,r22,-16108
 40298e8:	ad705c04 	addi	r21,r21,-16016
 40298ec:	a5307b04 	addi	r20,r20,-15892
 40298f0:	9cf09204 	addi	r19,r19,-15800
 40298f4:	85800815 	stw	r22,32(r16)
 40298f8:	85400915 	stw	r21,36(r16)
 40298fc:	85000a15 	stw	r20,40(r16)
 4029900:	84c00b15 	stw	r19,44(r16)
 4029904:	84000715 	stw	r16,28(r16)
 4029908:	00800284 	movi	r2,10
 402990c:	8880030d 	sth	r2,12(r17)
 4029910:	00800044 	movi	r2,1
 4029914:	b80d883a 	mov	r6,r23
 4029918:	89001704 	addi	r4,r17,92
 402991c:	000b883a 	mov	r5,zero
 4029920:	88000015 	stw	zero,0(r17)
 4029924:	88000115 	stw	zero,4(r17)
 4029928:	88000215 	stw	zero,8(r17)
 402992c:	88001915 	stw	zero,100(r17)
 4029930:	8880038d 	sth	r2,14(r17)
 4029934:	88000415 	stw	zero,16(r17)
 4029938:	88000515 	stw	zero,20(r17)
 402993c:	88000615 	stw	zero,24(r17)
 4029940:	402ae6c0 	call	402ae6c <memset>
 4029944:	94000317 	ldw	r16,12(r18)
 4029948:	00800484 	movi	r2,18
 402994c:	8c400715 	stw	r17,28(r17)
 4029950:	8d800815 	stw	r22,32(r17)
 4029954:	8d400915 	stw	r21,36(r17)
 4029958:	8d000a15 	stw	r20,40(r17)
 402995c:	8cc00b15 	stw	r19,44(r17)
 4029960:	8080030d 	sth	r2,12(r16)
 4029964:	00800084 	movi	r2,2
 4029968:	80000015 	stw	zero,0(r16)
 402996c:	80000115 	stw	zero,4(r16)
 4029970:	80000215 	stw	zero,8(r16)
 4029974:	80001915 	stw	zero,100(r16)
 4029978:	8080038d 	sth	r2,14(r16)
 402997c:	80000415 	stw	zero,16(r16)
 4029980:	80000515 	stw	zero,20(r16)
 4029984:	80000615 	stw	zero,24(r16)
 4029988:	b80d883a 	mov	r6,r23
 402998c:	000b883a 	mov	r5,zero
 4029990:	81001704 	addi	r4,r16,92
 4029994:	402ae6c0 	call	402ae6c <memset>
 4029998:	00800044 	movi	r2,1
 402999c:	84000715 	stw	r16,28(r16)
 40299a0:	85800815 	stw	r22,32(r16)
 40299a4:	85400915 	stw	r21,36(r16)
 40299a8:	85000a15 	stw	r20,40(r16)
 40299ac:	84c00b15 	stw	r19,44(r16)
 40299b0:	90800e15 	stw	r2,56(r18)
 40299b4:	dfc00817 	ldw	ra,32(sp)
 40299b8:	ddc00717 	ldw	r23,28(sp)
 40299bc:	dd800617 	ldw	r22,24(sp)
 40299c0:	dd400517 	ldw	r21,20(sp)
 40299c4:	dd000417 	ldw	r20,16(sp)
 40299c8:	dcc00317 	ldw	r19,12(sp)
 40299cc:	dc800217 	ldw	r18,8(sp)
 40299d0:	dc400117 	ldw	r17,4(sp)
 40299d4:	dc000017 	ldw	r16,0(sp)
 40299d8:	dec00904 	addi	sp,sp,36
 40299dc:	f800283a 	ret

040299e0 <__fp_lock>:
 40299e0:	0005883a 	mov	r2,zero
 40299e4:	f800283a 	ret

040299e8 <__sfmoreglue>:
 40299e8:	defffc04 	addi	sp,sp,-16
 40299ec:	dc800215 	stw	r18,8(sp)
 40299f0:	2825883a 	mov	r18,r5
 40299f4:	dc000015 	stw	r16,0(sp)
 40299f8:	01401a04 	movi	r5,104
 40299fc:	2021883a 	mov	r16,r4
 4029a00:	913fffc4 	addi	r4,r18,-1
 4029a04:	dfc00315 	stw	ra,12(sp)
 4029a08:	dc400115 	stw	r17,4(sp)
 4029a0c:	402572c0 	call	402572c <__mulsi3>
 4029a10:	8009883a 	mov	r4,r16
 4029a14:	11401d04 	addi	r5,r2,116
 4029a18:	1023883a 	mov	r17,r2
 4029a1c:	402a4340 	call	402a434 <_malloc_r>
 4029a20:	1021883a 	mov	r16,r2
 4029a24:	10000726 	beq	r2,zero,4029a44 <__sfmoreglue+0x5c>
 4029a28:	11000304 	addi	r4,r2,12
 4029a2c:	10000015 	stw	zero,0(r2)
 4029a30:	14800115 	stw	r18,4(r2)
 4029a34:	11000215 	stw	r4,8(r2)
 4029a38:	89801a04 	addi	r6,r17,104
 4029a3c:	000b883a 	mov	r5,zero
 4029a40:	402ae6c0 	call	402ae6c <memset>
 4029a44:	8005883a 	mov	r2,r16
 4029a48:	dfc00317 	ldw	ra,12(sp)
 4029a4c:	dc800217 	ldw	r18,8(sp)
 4029a50:	dc400117 	ldw	r17,4(sp)
 4029a54:	dc000017 	ldw	r16,0(sp)
 4029a58:	dec00404 	addi	sp,sp,16
 4029a5c:	f800283a 	ret

04029a60 <__sfp>:
 4029a60:	defffb04 	addi	sp,sp,-20
 4029a64:	dc000015 	stw	r16,0(sp)
 4029a68:	04000034 	movhi	r16,0
 4029a6c:	84077704 	addi	r16,r16,7644
 4029a70:	dcc00315 	stw	r19,12(sp)
 4029a74:	2027883a 	mov	r19,r4
 4029a78:	81000017 	ldw	r4,0(r16)
 4029a7c:	dfc00415 	stw	ra,16(sp)
 4029a80:	dc800215 	stw	r18,8(sp)
 4029a84:	20800e17 	ldw	r2,56(r4)
 4029a88:	dc400115 	stw	r17,4(sp)
 4029a8c:	1000021e 	bne	r2,zero,4029a98 <__sfp+0x38>
 4029a90:	40298440 	call	4029844 <__sinit.part.1>
 4029a94:	81000017 	ldw	r4,0(r16)
 4029a98:	2480b804 	addi	r18,r4,736
 4029a9c:	047fffc4 	movi	r17,-1
 4029aa0:	91000117 	ldw	r4,4(r18)
 4029aa4:	94000217 	ldw	r16,8(r18)
 4029aa8:	213fffc4 	addi	r4,r4,-1
 4029aac:	20000a16 	blt	r4,zero,4029ad8 <__sfp+0x78>
 4029ab0:	8080030f 	ldh	r2,12(r16)
 4029ab4:	10000c26 	beq	r2,zero,4029ae8 <__sfp+0x88>
 4029ab8:	80c01d04 	addi	r3,r16,116
 4029abc:	00000206 	br	4029ac8 <__sfp+0x68>
 4029ac0:	18bfe60f 	ldh	r2,-104(r3)
 4029ac4:	10000826 	beq	r2,zero,4029ae8 <__sfp+0x88>
 4029ac8:	213fffc4 	addi	r4,r4,-1
 4029acc:	1c3ffd04 	addi	r16,r3,-12
 4029ad0:	18c01a04 	addi	r3,r3,104
 4029ad4:	247ffa1e 	bne	r4,r17,4029ac0 <__flash_rwdata_start+0xffff71ec>
 4029ad8:	90800017 	ldw	r2,0(r18)
 4029adc:	10001d26 	beq	r2,zero,4029b54 <__sfp+0xf4>
 4029ae0:	1025883a 	mov	r18,r2
 4029ae4:	003fee06 	br	4029aa0 <__flash_rwdata_start+0xffff71cc>
 4029ae8:	00bfffc4 	movi	r2,-1
 4029aec:	8080038d 	sth	r2,14(r16)
 4029af0:	00800044 	movi	r2,1
 4029af4:	8080030d 	sth	r2,12(r16)
 4029af8:	80001915 	stw	zero,100(r16)
 4029afc:	80000015 	stw	zero,0(r16)
 4029b00:	80000215 	stw	zero,8(r16)
 4029b04:	80000115 	stw	zero,4(r16)
 4029b08:	80000415 	stw	zero,16(r16)
 4029b0c:	80000515 	stw	zero,20(r16)
 4029b10:	80000615 	stw	zero,24(r16)
 4029b14:	01800204 	movi	r6,8
 4029b18:	000b883a 	mov	r5,zero
 4029b1c:	81001704 	addi	r4,r16,92
 4029b20:	402ae6c0 	call	402ae6c <memset>
 4029b24:	8005883a 	mov	r2,r16
 4029b28:	80000c15 	stw	zero,48(r16)
 4029b2c:	80000d15 	stw	zero,52(r16)
 4029b30:	80001115 	stw	zero,68(r16)
 4029b34:	80001215 	stw	zero,72(r16)
 4029b38:	dfc00417 	ldw	ra,16(sp)
 4029b3c:	dcc00317 	ldw	r19,12(sp)
 4029b40:	dc800217 	ldw	r18,8(sp)
 4029b44:	dc400117 	ldw	r17,4(sp)
 4029b48:	dc000017 	ldw	r16,0(sp)
 4029b4c:	dec00504 	addi	sp,sp,20
 4029b50:	f800283a 	ret
 4029b54:	01400104 	movi	r5,4
 4029b58:	9809883a 	mov	r4,r19
 4029b5c:	40299e80 	call	40299e8 <__sfmoreglue>
 4029b60:	90800015 	stw	r2,0(r18)
 4029b64:	103fde1e 	bne	r2,zero,4029ae0 <__flash_rwdata_start+0xffff720c>
 4029b68:	00800304 	movi	r2,12
 4029b6c:	98800015 	stw	r2,0(r19)
 4029b70:	0005883a 	mov	r2,zero
 4029b74:	003ff006 	br	4029b38 <__flash_rwdata_start+0xffff7264>

04029b78 <_cleanup>:
 4029b78:	00800034 	movhi	r2,0
 4029b7c:	10877704 	addi	r2,r2,7644
 4029b80:	11000017 	ldw	r4,0(r2)
 4029b84:	014100f4 	movhi	r5,1027
 4029b88:	29771304 	addi	r5,r5,-9140
 4029b8c:	402a0d81 	jmpi	402a0d8 <_fwalk_reent>

04029b90 <__sinit>:
 4029b90:	20800e17 	ldw	r2,56(r4)
 4029b94:	10000126 	beq	r2,zero,4029b9c <__sinit+0xc>
 4029b98:	f800283a 	ret
 4029b9c:	40298441 	jmpi	4029844 <__sinit.part.1>

04029ba0 <__sfp_lock_acquire>:
 4029ba0:	f800283a 	ret

04029ba4 <__sfp_lock_release>:
 4029ba4:	f800283a 	ret

04029ba8 <__sinit_lock_acquire>:
 4029ba8:	f800283a 	ret

04029bac <__sinit_lock_release>:
 4029bac:	f800283a 	ret

04029bb0 <__fp_lock_all>:
 4029bb0:	00800034 	movhi	r2,0
 4029bb4:	10877804 	addi	r2,r2,7648
 4029bb8:	11000017 	ldw	r4,0(r2)
 4029bbc:	014100f4 	movhi	r5,1027
 4029bc0:	29667804 	addi	r5,r5,-26144
 4029bc4:	402a0141 	jmpi	402a014 <_fwalk>

04029bc8 <__fp_unlock_all>:
 4029bc8:	00800034 	movhi	r2,0
 4029bcc:	10877804 	addi	r2,r2,7648
 4029bd0:	11000017 	ldw	r4,0(r2)
 4029bd4:	014100f4 	movhi	r5,1027
 4029bd8:	29660c04 	addi	r5,r5,-26576
 4029bdc:	402a0141 	jmpi	402a014 <_fwalk>

04029be0 <_malloc_trim_r>:
 4029be0:	defffb04 	addi	sp,sp,-20
 4029be4:	dcc00315 	stw	r19,12(sp)
 4029be8:	04c00034 	movhi	r19,0
 4029bec:	dc800215 	stw	r18,8(sp)
 4029bf0:	dc400115 	stw	r17,4(sp)
 4029bf4:	dc000015 	stw	r16,0(sp)
 4029bf8:	dfc00415 	stw	ra,16(sp)
 4029bfc:	2821883a 	mov	r16,r5
 4029c00:	9cc1f204 	addi	r19,r19,1992
 4029c04:	2025883a 	mov	r18,r4
 4029c08:	403021c0 	call	403021c <__malloc_lock>
 4029c0c:	98800217 	ldw	r2,8(r19)
 4029c10:	14400117 	ldw	r17,4(r2)
 4029c14:	00bfff04 	movi	r2,-4
 4029c18:	88a2703a 	and	r17,r17,r2
 4029c1c:	8c21c83a 	sub	r16,r17,r16
 4029c20:	8403fbc4 	addi	r16,r16,4079
 4029c24:	8020d33a 	srli	r16,r16,12
 4029c28:	0083ffc4 	movi	r2,4095
 4029c2c:	843fffc4 	addi	r16,r16,-1
 4029c30:	8020933a 	slli	r16,r16,12
 4029c34:	1400060e 	bge	r2,r16,4029c50 <_malloc_trim_r+0x70>
 4029c38:	000b883a 	mov	r5,zero
 4029c3c:	9009883a 	mov	r4,r18
 4029c40:	402c0c00 	call	402c0c0 <_sbrk_r>
 4029c44:	98c00217 	ldw	r3,8(r19)
 4029c48:	1c47883a 	add	r3,r3,r17
 4029c4c:	10c00a26 	beq	r2,r3,4029c78 <_malloc_trim_r+0x98>
 4029c50:	9009883a 	mov	r4,r18
 4029c54:	40302400 	call	4030240 <__malloc_unlock>
 4029c58:	0005883a 	mov	r2,zero
 4029c5c:	dfc00417 	ldw	ra,16(sp)
 4029c60:	dcc00317 	ldw	r19,12(sp)
 4029c64:	dc800217 	ldw	r18,8(sp)
 4029c68:	dc400117 	ldw	r17,4(sp)
 4029c6c:	dc000017 	ldw	r16,0(sp)
 4029c70:	dec00504 	addi	sp,sp,20
 4029c74:	f800283a 	ret
 4029c78:	040bc83a 	sub	r5,zero,r16
 4029c7c:	9009883a 	mov	r4,r18
 4029c80:	402c0c00 	call	402c0c0 <_sbrk_r>
 4029c84:	00ffffc4 	movi	r3,-1
 4029c88:	10c00d26 	beq	r2,r3,4029cc0 <_malloc_trim_r+0xe0>
 4029c8c:	00c00034 	movhi	r3,0
 4029c90:	18c7a604 	addi	r3,r3,7832
 4029c94:	18800017 	ldw	r2,0(r3)
 4029c98:	99000217 	ldw	r4,8(r19)
 4029c9c:	8c23c83a 	sub	r17,r17,r16
 4029ca0:	8c400054 	ori	r17,r17,1
 4029ca4:	1421c83a 	sub	r16,r2,r16
 4029ca8:	24400115 	stw	r17,4(r4)
 4029cac:	9009883a 	mov	r4,r18
 4029cb0:	1c000015 	stw	r16,0(r3)
 4029cb4:	40302400 	call	4030240 <__malloc_unlock>
 4029cb8:	00800044 	movi	r2,1
 4029cbc:	003fe706 	br	4029c5c <__flash_rwdata_start+0xffff7388>
 4029cc0:	000b883a 	mov	r5,zero
 4029cc4:	9009883a 	mov	r4,r18
 4029cc8:	402c0c00 	call	402c0c0 <_sbrk_r>
 4029ccc:	99000217 	ldw	r4,8(r19)
 4029cd0:	014003c4 	movi	r5,15
 4029cd4:	1107c83a 	sub	r3,r2,r4
 4029cd8:	28ffdd0e 	bge	r5,r3,4029c50 <__flash_rwdata_start+0xffff737c>
 4029cdc:	01400034 	movhi	r5,0
 4029ce0:	29477a04 	addi	r5,r5,7656
 4029ce4:	29400017 	ldw	r5,0(r5)
 4029ce8:	18c00054 	ori	r3,r3,1
 4029cec:	20c00115 	stw	r3,4(r4)
 4029cf0:	00c00034 	movhi	r3,0
 4029cf4:	1145c83a 	sub	r2,r2,r5
 4029cf8:	18c7a604 	addi	r3,r3,7832
 4029cfc:	18800015 	stw	r2,0(r3)
 4029d00:	003fd306 	br	4029c50 <__flash_rwdata_start+0xffff737c>

04029d04 <_free_r>:
 4029d04:	28004126 	beq	r5,zero,4029e0c <_free_r+0x108>
 4029d08:	defffd04 	addi	sp,sp,-12
 4029d0c:	dc400115 	stw	r17,4(sp)
 4029d10:	dc000015 	stw	r16,0(sp)
 4029d14:	2023883a 	mov	r17,r4
 4029d18:	2821883a 	mov	r16,r5
 4029d1c:	dfc00215 	stw	ra,8(sp)
 4029d20:	403021c0 	call	403021c <__malloc_lock>
 4029d24:	81ffff17 	ldw	r7,-4(r16)
 4029d28:	00bfff84 	movi	r2,-2
 4029d2c:	01000034 	movhi	r4,0
 4029d30:	81bffe04 	addi	r6,r16,-8
 4029d34:	3884703a 	and	r2,r7,r2
 4029d38:	2101f204 	addi	r4,r4,1992
 4029d3c:	308b883a 	add	r5,r6,r2
 4029d40:	2a400117 	ldw	r9,4(r5)
 4029d44:	22000217 	ldw	r8,8(r4)
 4029d48:	00ffff04 	movi	r3,-4
 4029d4c:	48c6703a 	and	r3,r9,r3
 4029d50:	2a005726 	beq	r5,r8,4029eb0 <_free_r+0x1ac>
 4029d54:	28c00115 	stw	r3,4(r5)
 4029d58:	39c0004c 	andi	r7,r7,1
 4029d5c:	3800091e 	bne	r7,zero,4029d84 <_free_r+0x80>
 4029d60:	823ffe17 	ldw	r8,-8(r16)
 4029d64:	22400204 	addi	r9,r4,8
 4029d68:	320dc83a 	sub	r6,r6,r8
 4029d6c:	31c00217 	ldw	r7,8(r6)
 4029d70:	1205883a 	add	r2,r2,r8
 4029d74:	3a406526 	beq	r7,r9,4029f0c <_free_r+0x208>
 4029d78:	32000317 	ldw	r8,12(r6)
 4029d7c:	3a000315 	stw	r8,12(r7)
 4029d80:	41c00215 	stw	r7,8(r8)
 4029d84:	28cf883a 	add	r7,r5,r3
 4029d88:	39c00117 	ldw	r7,4(r7)
 4029d8c:	39c0004c 	andi	r7,r7,1
 4029d90:	38003a26 	beq	r7,zero,4029e7c <_free_r+0x178>
 4029d94:	10c00054 	ori	r3,r2,1
 4029d98:	30c00115 	stw	r3,4(r6)
 4029d9c:	3087883a 	add	r3,r6,r2
 4029da0:	18800015 	stw	r2,0(r3)
 4029da4:	00c07fc4 	movi	r3,511
 4029da8:	18801936 	bltu	r3,r2,4029e10 <_free_r+0x10c>
 4029dac:	1004d0fa 	srli	r2,r2,3
 4029db0:	01c00044 	movi	r7,1
 4029db4:	21400117 	ldw	r5,4(r4)
 4029db8:	10c00044 	addi	r3,r2,1
 4029dbc:	18c7883a 	add	r3,r3,r3
 4029dc0:	1005d0ba 	srai	r2,r2,2
 4029dc4:	18c7883a 	add	r3,r3,r3
 4029dc8:	18c7883a 	add	r3,r3,r3
 4029dcc:	1907883a 	add	r3,r3,r4
 4029dd0:	3884983a 	sll	r2,r7,r2
 4029dd4:	19c00017 	ldw	r7,0(r3)
 4029dd8:	1a3ffe04 	addi	r8,r3,-8
 4029ddc:	1144b03a 	or	r2,r2,r5
 4029de0:	32000315 	stw	r8,12(r6)
 4029de4:	31c00215 	stw	r7,8(r6)
 4029de8:	20800115 	stw	r2,4(r4)
 4029dec:	19800015 	stw	r6,0(r3)
 4029df0:	39800315 	stw	r6,12(r7)
 4029df4:	8809883a 	mov	r4,r17
 4029df8:	dfc00217 	ldw	ra,8(sp)
 4029dfc:	dc400117 	ldw	r17,4(sp)
 4029e00:	dc000017 	ldw	r16,0(sp)
 4029e04:	dec00304 	addi	sp,sp,12
 4029e08:	40302401 	jmpi	4030240 <__malloc_unlock>
 4029e0c:	f800283a 	ret
 4029e10:	100ad27a 	srli	r5,r2,9
 4029e14:	00c00104 	movi	r3,4
 4029e18:	19404a36 	bltu	r3,r5,4029f44 <_free_r+0x240>
 4029e1c:	100ad1ba 	srli	r5,r2,6
 4029e20:	28c00e44 	addi	r3,r5,57
 4029e24:	18c7883a 	add	r3,r3,r3
 4029e28:	29400e04 	addi	r5,r5,56
 4029e2c:	18c7883a 	add	r3,r3,r3
 4029e30:	18c7883a 	add	r3,r3,r3
 4029e34:	1909883a 	add	r4,r3,r4
 4029e38:	20c00017 	ldw	r3,0(r4)
 4029e3c:	01c00034 	movhi	r7,0
 4029e40:	213ffe04 	addi	r4,r4,-8
 4029e44:	39c1f204 	addi	r7,r7,1992
 4029e48:	20c04426 	beq	r4,r3,4029f5c <_free_r+0x258>
 4029e4c:	01ffff04 	movi	r7,-4
 4029e50:	19400117 	ldw	r5,4(r3)
 4029e54:	29ca703a 	and	r5,r5,r7
 4029e58:	1140022e 	bgeu	r2,r5,4029e64 <_free_r+0x160>
 4029e5c:	18c00217 	ldw	r3,8(r3)
 4029e60:	20fffb1e 	bne	r4,r3,4029e50 <__flash_rwdata_start+0xffff757c>
 4029e64:	19000317 	ldw	r4,12(r3)
 4029e68:	31000315 	stw	r4,12(r6)
 4029e6c:	30c00215 	stw	r3,8(r6)
 4029e70:	21800215 	stw	r6,8(r4)
 4029e74:	19800315 	stw	r6,12(r3)
 4029e78:	003fde06 	br	4029df4 <__flash_rwdata_start+0xffff7520>
 4029e7c:	29c00217 	ldw	r7,8(r5)
 4029e80:	10c5883a 	add	r2,r2,r3
 4029e84:	00c00034 	movhi	r3,0
 4029e88:	18c1f404 	addi	r3,r3,2000
 4029e8c:	38c03b26 	beq	r7,r3,4029f7c <_free_r+0x278>
 4029e90:	2a000317 	ldw	r8,12(r5)
 4029e94:	11400054 	ori	r5,r2,1
 4029e98:	3087883a 	add	r3,r6,r2
 4029e9c:	3a000315 	stw	r8,12(r7)
 4029ea0:	41c00215 	stw	r7,8(r8)
 4029ea4:	31400115 	stw	r5,4(r6)
 4029ea8:	18800015 	stw	r2,0(r3)
 4029eac:	003fbd06 	br	4029da4 <__flash_rwdata_start+0xffff74d0>
 4029eb0:	39c0004c 	andi	r7,r7,1
 4029eb4:	10c5883a 	add	r2,r2,r3
 4029eb8:	3800071e 	bne	r7,zero,4029ed8 <_free_r+0x1d4>
 4029ebc:	81fffe17 	ldw	r7,-8(r16)
 4029ec0:	31cdc83a 	sub	r6,r6,r7
 4029ec4:	30c00317 	ldw	r3,12(r6)
 4029ec8:	31400217 	ldw	r5,8(r6)
 4029ecc:	11c5883a 	add	r2,r2,r7
 4029ed0:	28c00315 	stw	r3,12(r5)
 4029ed4:	19400215 	stw	r5,8(r3)
 4029ed8:	10c00054 	ori	r3,r2,1
 4029edc:	30c00115 	stw	r3,4(r6)
 4029ee0:	00c00034 	movhi	r3,0
 4029ee4:	18c77b04 	addi	r3,r3,7660
 4029ee8:	18c00017 	ldw	r3,0(r3)
 4029eec:	21800215 	stw	r6,8(r4)
 4029ef0:	10ffc036 	bltu	r2,r3,4029df4 <__flash_rwdata_start+0xffff7520>
 4029ef4:	00800034 	movhi	r2,0
 4029ef8:	10878e04 	addi	r2,r2,7736
 4029efc:	11400017 	ldw	r5,0(r2)
 4029f00:	8809883a 	mov	r4,r17
 4029f04:	4029be00 	call	4029be0 <_malloc_trim_r>
 4029f08:	003fba06 	br	4029df4 <__flash_rwdata_start+0xffff7520>
 4029f0c:	28c9883a 	add	r4,r5,r3
 4029f10:	21000117 	ldw	r4,4(r4)
 4029f14:	2100004c 	andi	r4,r4,1
 4029f18:	2000391e 	bne	r4,zero,402a000 <_free_r+0x2fc>
 4029f1c:	29c00217 	ldw	r7,8(r5)
 4029f20:	29000317 	ldw	r4,12(r5)
 4029f24:	1885883a 	add	r2,r3,r2
 4029f28:	10c00054 	ori	r3,r2,1
 4029f2c:	39000315 	stw	r4,12(r7)
 4029f30:	21c00215 	stw	r7,8(r4)
 4029f34:	30c00115 	stw	r3,4(r6)
 4029f38:	308d883a 	add	r6,r6,r2
 4029f3c:	30800015 	stw	r2,0(r6)
 4029f40:	003fac06 	br	4029df4 <__flash_rwdata_start+0xffff7520>
 4029f44:	00c00504 	movi	r3,20
 4029f48:	19401536 	bltu	r3,r5,4029fa0 <_free_r+0x29c>
 4029f4c:	28c01704 	addi	r3,r5,92
 4029f50:	18c7883a 	add	r3,r3,r3
 4029f54:	294016c4 	addi	r5,r5,91
 4029f58:	003fb406 	br	4029e2c <__flash_rwdata_start+0xffff7558>
 4029f5c:	280bd0ba 	srai	r5,r5,2
 4029f60:	00c00044 	movi	r3,1
 4029f64:	38800117 	ldw	r2,4(r7)
 4029f68:	194a983a 	sll	r5,r3,r5
 4029f6c:	2007883a 	mov	r3,r4
 4029f70:	2884b03a 	or	r2,r5,r2
 4029f74:	38800115 	stw	r2,4(r7)
 4029f78:	003fbb06 	br	4029e68 <__flash_rwdata_start+0xffff7594>
 4029f7c:	21800515 	stw	r6,20(r4)
 4029f80:	21800415 	stw	r6,16(r4)
 4029f84:	10c00054 	ori	r3,r2,1
 4029f88:	31c00315 	stw	r7,12(r6)
 4029f8c:	31c00215 	stw	r7,8(r6)
 4029f90:	30c00115 	stw	r3,4(r6)
 4029f94:	308d883a 	add	r6,r6,r2
 4029f98:	30800015 	stw	r2,0(r6)
 4029f9c:	003f9506 	br	4029df4 <__flash_rwdata_start+0xffff7520>
 4029fa0:	00c01504 	movi	r3,84
 4029fa4:	19400536 	bltu	r3,r5,4029fbc <_free_r+0x2b8>
 4029fa8:	100ad33a 	srli	r5,r2,12
 4029fac:	28c01bc4 	addi	r3,r5,111
 4029fb0:	18c7883a 	add	r3,r3,r3
 4029fb4:	29401b84 	addi	r5,r5,110
 4029fb8:	003f9c06 	br	4029e2c <__flash_rwdata_start+0xffff7558>
 4029fbc:	00c05504 	movi	r3,340
 4029fc0:	19400536 	bltu	r3,r5,4029fd8 <_free_r+0x2d4>
 4029fc4:	100ad3fa 	srli	r5,r2,15
 4029fc8:	28c01e04 	addi	r3,r5,120
 4029fcc:	18c7883a 	add	r3,r3,r3
 4029fd0:	29401dc4 	addi	r5,r5,119
 4029fd4:	003f9506 	br	4029e2c <__flash_rwdata_start+0xffff7558>
 4029fd8:	00c15504 	movi	r3,1364
 4029fdc:	19400536 	bltu	r3,r5,4029ff4 <_free_r+0x2f0>
 4029fe0:	100ad4ba 	srli	r5,r2,18
 4029fe4:	28c01f44 	addi	r3,r5,125
 4029fe8:	18c7883a 	add	r3,r3,r3
 4029fec:	29401f04 	addi	r5,r5,124
 4029ff0:	003f8e06 	br	4029e2c <__flash_rwdata_start+0xffff7558>
 4029ff4:	00c03f84 	movi	r3,254
 4029ff8:	01401f84 	movi	r5,126
 4029ffc:	003f8b06 	br	4029e2c <__flash_rwdata_start+0xffff7558>
 402a000:	10c00054 	ori	r3,r2,1
 402a004:	30c00115 	stw	r3,4(r6)
 402a008:	308d883a 	add	r6,r6,r2
 402a00c:	30800015 	stw	r2,0(r6)
 402a010:	003f7806 	br	4029df4 <__flash_rwdata_start+0xffff7520>

0402a014 <_fwalk>:
 402a014:	defff704 	addi	sp,sp,-36
 402a018:	dd000415 	stw	r20,16(sp)
 402a01c:	dfc00815 	stw	ra,32(sp)
 402a020:	ddc00715 	stw	r23,28(sp)
 402a024:	dd800615 	stw	r22,24(sp)
 402a028:	dd400515 	stw	r21,20(sp)
 402a02c:	dcc00315 	stw	r19,12(sp)
 402a030:	dc800215 	stw	r18,8(sp)
 402a034:	dc400115 	stw	r17,4(sp)
 402a038:	dc000015 	stw	r16,0(sp)
 402a03c:	2500b804 	addi	r20,r4,736
 402a040:	a0002326 	beq	r20,zero,402a0d0 <_fwalk+0xbc>
 402a044:	282b883a 	mov	r21,r5
 402a048:	002f883a 	mov	r23,zero
 402a04c:	05800044 	movi	r22,1
 402a050:	04ffffc4 	movi	r19,-1
 402a054:	a4400117 	ldw	r17,4(r20)
 402a058:	a4800217 	ldw	r18,8(r20)
 402a05c:	8c7fffc4 	addi	r17,r17,-1
 402a060:	88000d16 	blt	r17,zero,402a098 <_fwalk+0x84>
 402a064:	94000304 	addi	r16,r18,12
 402a068:	94800384 	addi	r18,r18,14
 402a06c:	8080000b 	ldhu	r2,0(r16)
 402a070:	8c7fffc4 	addi	r17,r17,-1
 402a074:	813ffd04 	addi	r4,r16,-12
 402a078:	b080042e 	bgeu	r22,r2,402a08c <_fwalk+0x78>
 402a07c:	9080000f 	ldh	r2,0(r18)
 402a080:	14c00226 	beq	r2,r19,402a08c <_fwalk+0x78>
 402a084:	a83ee83a 	callr	r21
 402a088:	b8aeb03a 	or	r23,r23,r2
 402a08c:	84001a04 	addi	r16,r16,104
 402a090:	94801a04 	addi	r18,r18,104
 402a094:	8cfff51e 	bne	r17,r19,402a06c <__flash_rwdata_start+0xffff7798>
 402a098:	a5000017 	ldw	r20,0(r20)
 402a09c:	a03fed1e 	bne	r20,zero,402a054 <__flash_rwdata_start+0xffff7780>
 402a0a0:	b805883a 	mov	r2,r23
 402a0a4:	dfc00817 	ldw	ra,32(sp)
 402a0a8:	ddc00717 	ldw	r23,28(sp)
 402a0ac:	dd800617 	ldw	r22,24(sp)
 402a0b0:	dd400517 	ldw	r21,20(sp)
 402a0b4:	dd000417 	ldw	r20,16(sp)
 402a0b8:	dcc00317 	ldw	r19,12(sp)
 402a0bc:	dc800217 	ldw	r18,8(sp)
 402a0c0:	dc400117 	ldw	r17,4(sp)
 402a0c4:	dc000017 	ldw	r16,0(sp)
 402a0c8:	dec00904 	addi	sp,sp,36
 402a0cc:	f800283a 	ret
 402a0d0:	002f883a 	mov	r23,zero
 402a0d4:	003ff206 	br	402a0a0 <__flash_rwdata_start+0xffff77cc>

0402a0d8 <_fwalk_reent>:
 402a0d8:	defff704 	addi	sp,sp,-36
 402a0dc:	dd000415 	stw	r20,16(sp)
 402a0e0:	dfc00815 	stw	ra,32(sp)
 402a0e4:	ddc00715 	stw	r23,28(sp)
 402a0e8:	dd800615 	stw	r22,24(sp)
 402a0ec:	dd400515 	stw	r21,20(sp)
 402a0f0:	dcc00315 	stw	r19,12(sp)
 402a0f4:	dc800215 	stw	r18,8(sp)
 402a0f8:	dc400115 	stw	r17,4(sp)
 402a0fc:	dc000015 	stw	r16,0(sp)
 402a100:	2500b804 	addi	r20,r4,736
 402a104:	a0002326 	beq	r20,zero,402a194 <_fwalk_reent+0xbc>
 402a108:	282b883a 	mov	r21,r5
 402a10c:	2027883a 	mov	r19,r4
 402a110:	002f883a 	mov	r23,zero
 402a114:	05800044 	movi	r22,1
 402a118:	04bfffc4 	movi	r18,-1
 402a11c:	a4400117 	ldw	r17,4(r20)
 402a120:	a4000217 	ldw	r16,8(r20)
 402a124:	8c7fffc4 	addi	r17,r17,-1
 402a128:	88000c16 	blt	r17,zero,402a15c <_fwalk_reent+0x84>
 402a12c:	84000304 	addi	r16,r16,12
 402a130:	8080000b 	ldhu	r2,0(r16)
 402a134:	8c7fffc4 	addi	r17,r17,-1
 402a138:	817ffd04 	addi	r5,r16,-12
 402a13c:	b080052e 	bgeu	r22,r2,402a154 <_fwalk_reent+0x7c>
 402a140:	8080008f 	ldh	r2,2(r16)
 402a144:	9809883a 	mov	r4,r19
 402a148:	14800226 	beq	r2,r18,402a154 <_fwalk_reent+0x7c>
 402a14c:	a83ee83a 	callr	r21
 402a150:	b8aeb03a 	or	r23,r23,r2
 402a154:	84001a04 	addi	r16,r16,104
 402a158:	8cbff51e 	bne	r17,r18,402a130 <__flash_rwdata_start+0xffff785c>
 402a15c:	a5000017 	ldw	r20,0(r20)
 402a160:	a03fee1e 	bne	r20,zero,402a11c <__flash_rwdata_start+0xffff7848>
 402a164:	b805883a 	mov	r2,r23
 402a168:	dfc00817 	ldw	ra,32(sp)
 402a16c:	ddc00717 	ldw	r23,28(sp)
 402a170:	dd800617 	ldw	r22,24(sp)
 402a174:	dd400517 	ldw	r21,20(sp)
 402a178:	dd000417 	ldw	r20,16(sp)
 402a17c:	dcc00317 	ldw	r19,12(sp)
 402a180:	dc800217 	ldw	r18,8(sp)
 402a184:	dc400117 	ldw	r17,4(sp)
 402a188:	dc000017 	ldw	r16,0(sp)
 402a18c:	dec00904 	addi	sp,sp,36
 402a190:	f800283a 	ret
 402a194:	002f883a 	mov	r23,zero
 402a198:	003ff206 	br	402a164 <__flash_rwdata_start+0xffff7890>

0402a19c <_setlocale_r>:
 402a19c:	30001b26 	beq	r6,zero,402a20c <_setlocale_r+0x70>
 402a1a0:	01400034 	movhi	r5,0
 402a1a4:	defffe04 	addi	sp,sp,-8
 402a1a8:	29406c04 	addi	r5,r5,432
 402a1ac:	3009883a 	mov	r4,r6
 402a1b0:	dc000015 	stw	r16,0(sp)
 402a1b4:	dfc00115 	stw	ra,4(sp)
 402a1b8:	3021883a 	mov	r16,r6
 402a1bc:	402c2500 	call	402c250 <strcmp>
 402a1c0:	1000061e 	bne	r2,zero,402a1dc <_setlocale_r+0x40>
 402a1c4:	00800034 	movhi	r2,0
 402a1c8:	10804e04 	addi	r2,r2,312
 402a1cc:	dfc00117 	ldw	ra,4(sp)
 402a1d0:	dc000017 	ldw	r16,0(sp)
 402a1d4:	dec00204 	addi	sp,sp,8
 402a1d8:	f800283a 	ret
 402a1dc:	01400034 	movhi	r5,0
 402a1e0:	29404e04 	addi	r5,r5,312
 402a1e4:	8009883a 	mov	r4,r16
 402a1e8:	402c2500 	call	402c250 <strcmp>
 402a1ec:	103ff526 	beq	r2,zero,402a1c4 <__flash_rwdata_start+0xffff78f0>
 402a1f0:	01400034 	movhi	r5,0
 402a1f4:	29405704 	addi	r5,r5,348
 402a1f8:	8009883a 	mov	r4,r16
 402a1fc:	402c2500 	call	402c250 <strcmp>
 402a200:	103ff026 	beq	r2,zero,402a1c4 <__flash_rwdata_start+0xffff78f0>
 402a204:	0005883a 	mov	r2,zero
 402a208:	003ff006 	br	402a1cc <__flash_rwdata_start+0xffff78f8>
 402a20c:	00800034 	movhi	r2,0
 402a210:	10804e04 	addi	r2,r2,312
 402a214:	f800283a 	ret

0402a218 <__locale_charset>:
 402a218:	00800034 	movhi	r2,0
 402a21c:	1081dc04 	addi	r2,r2,1904
 402a220:	f800283a 	ret

0402a224 <__locale_mb_cur_max>:
 402a224:	00800034 	movhi	r2,0
 402a228:	10877904 	addi	r2,r2,7652
 402a22c:	10800017 	ldw	r2,0(r2)
 402a230:	f800283a 	ret

0402a234 <__locale_msgcharset>:
 402a234:	00800034 	movhi	r2,0
 402a238:	1081d404 	addi	r2,r2,1872
 402a23c:	f800283a 	ret

0402a240 <__locale_cjk_lang>:
 402a240:	0005883a 	mov	r2,zero
 402a244:	f800283a 	ret

0402a248 <_localeconv_r>:
 402a248:	00800034 	movhi	r2,0
 402a24c:	1081e404 	addi	r2,r2,1936
 402a250:	f800283a 	ret

0402a254 <setlocale>:
 402a254:	00800034 	movhi	r2,0
 402a258:	10877804 	addi	r2,r2,7648
 402a25c:	280d883a 	mov	r6,r5
 402a260:	200b883a 	mov	r5,r4
 402a264:	11000017 	ldw	r4,0(r2)
 402a268:	402a19c1 	jmpi	402a19c <_setlocale_r>

0402a26c <localeconv>:
 402a26c:	00800034 	movhi	r2,0
 402a270:	1081e404 	addi	r2,r2,1936
 402a274:	f800283a 	ret

0402a278 <__smakebuf_r>:
 402a278:	2880030b 	ldhu	r2,12(r5)
 402a27c:	10c0008c 	andi	r3,r2,2
 402a280:	1800411e 	bne	r3,zero,402a388 <__smakebuf_r+0x110>
 402a284:	deffec04 	addi	sp,sp,-80
 402a288:	dc000f15 	stw	r16,60(sp)
 402a28c:	2821883a 	mov	r16,r5
 402a290:	2940038f 	ldh	r5,14(r5)
 402a294:	dc401015 	stw	r17,64(sp)
 402a298:	dfc01315 	stw	ra,76(sp)
 402a29c:	dcc01215 	stw	r19,72(sp)
 402a2a0:	dc801115 	stw	r18,68(sp)
 402a2a4:	2023883a 	mov	r17,r4
 402a2a8:	28001c16 	blt	r5,zero,402a31c <__smakebuf_r+0xa4>
 402a2ac:	d80d883a 	mov	r6,sp
 402a2b0:	402df580 	call	402df58 <_fstat_r>
 402a2b4:	10001816 	blt	r2,zero,402a318 <__smakebuf_r+0xa0>
 402a2b8:	d8800117 	ldw	r2,4(sp)
 402a2bc:	00e00014 	movui	r3,32768
 402a2c0:	10bc000c 	andi	r2,r2,61440
 402a2c4:	14c80020 	cmpeqi	r19,r2,8192
 402a2c8:	10c03726 	beq	r2,r3,402a3a8 <__smakebuf_r+0x130>
 402a2cc:	80c0030b 	ldhu	r3,12(r16)
 402a2d0:	18c20014 	ori	r3,r3,2048
 402a2d4:	80c0030d 	sth	r3,12(r16)
 402a2d8:	00c80004 	movi	r3,8192
 402a2dc:	10c0521e 	bne	r2,r3,402a428 <__smakebuf_r+0x1b0>
 402a2e0:	8140038f 	ldh	r5,14(r16)
 402a2e4:	8809883a 	mov	r4,r17
 402a2e8:	402e47c0 	call	402e47c <_isatty_r>
 402a2ec:	10004c26 	beq	r2,zero,402a420 <__smakebuf_r+0x1a8>
 402a2f0:	8080030b 	ldhu	r2,12(r16)
 402a2f4:	80c010c4 	addi	r3,r16,67
 402a2f8:	80c00015 	stw	r3,0(r16)
 402a2fc:	10800054 	ori	r2,r2,1
 402a300:	8080030d 	sth	r2,12(r16)
 402a304:	00800044 	movi	r2,1
 402a308:	80c00415 	stw	r3,16(r16)
 402a30c:	80800515 	stw	r2,20(r16)
 402a310:	04810004 	movi	r18,1024
 402a314:	00000706 	br	402a334 <__smakebuf_r+0xbc>
 402a318:	8080030b 	ldhu	r2,12(r16)
 402a31c:	10c0200c 	andi	r3,r2,128
 402a320:	18001f1e 	bne	r3,zero,402a3a0 <__smakebuf_r+0x128>
 402a324:	04810004 	movi	r18,1024
 402a328:	10820014 	ori	r2,r2,2048
 402a32c:	8080030d 	sth	r2,12(r16)
 402a330:	0027883a 	mov	r19,zero
 402a334:	900b883a 	mov	r5,r18
 402a338:	8809883a 	mov	r4,r17
 402a33c:	402a4340 	call	402a434 <_malloc_r>
 402a340:	10002c26 	beq	r2,zero,402a3f4 <__smakebuf_r+0x17c>
 402a344:	80c0030b 	ldhu	r3,12(r16)
 402a348:	010100f4 	movhi	r4,1027
 402a34c:	21260e04 	addi	r4,r4,-26568
 402a350:	89000f15 	stw	r4,60(r17)
 402a354:	18c02014 	ori	r3,r3,128
 402a358:	80c0030d 	sth	r3,12(r16)
 402a35c:	80800015 	stw	r2,0(r16)
 402a360:	80800415 	stw	r2,16(r16)
 402a364:	84800515 	stw	r18,20(r16)
 402a368:	98001a1e 	bne	r19,zero,402a3d4 <__smakebuf_r+0x15c>
 402a36c:	dfc01317 	ldw	ra,76(sp)
 402a370:	dcc01217 	ldw	r19,72(sp)
 402a374:	dc801117 	ldw	r18,68(sp)
 402a378:	dc401017 	ldw	r17,64(sp)
 402a37c:	dc000f17 	ldw	r16,60(sp)
 402a380:	dec01404 	addi	sp,sp,80
 402a384:	f800283a 	ret
 402a388:	288010c4 	addi	r2,r5,67
 402a38c:	28800015 	stw	r2,0(r5)
 402a390:	28800415 	stw	r2,16(r5)
 402a394:	00800044 	movi	r2,1
 402a398:	28800515 	stw	r2,20(r5)
 402a39c:	f800283a 	ret
 402a3a0:	04801004 	movi	r18,64
 402a3a4:	003fe006 	br	402a328 <__flash_rwdata_start+0xffff7a54>
 402a3a8:	81000a17 	ldw	r4,40(r16)
 402a3ac:	00c100f4 	movhi	r3,1027
 402a3b0:	18f07b04 	addi	r3,r3,-15892
 402a3b4:	20ffc51e 	bne	r4,r3,402a2cc <__flash_rwdata_start+0xffff79f8>
 402a3b8:	8080030b 	ldhu	r2,12(r16)
 402a3bc:	04810004 	movi	r18,1024
 402a3c0:	84801315 	stw	r18,76(r16)
 402a3c4:	1484b03a 	or	r2,r2,r18
 402a3c8:	8080030d 	sth	r2,12(r16)
 402a3cc:	0027883a 	mov	r19,zero
 402a3d0:	003fd806 	br	402a334 <__flash_rwdata_start+0xffff7a60>
 402a3d4:	8140038f 	ldh	r5,14(r16)
 402a3d8:	8809883a 	mov	r4,r17
 402a3dc:	402e47c0 	call	402e47c <_isatty_r>
 402a3e0:	103fe226 	beq	r2,zero,402a36c <__flash_rwdata_start+0xffff7a98>
 402a3e4:	8080030b 	ldhu	r2,12(r16)
 402a3e8:	10800054 	ori	r2,r2,1
 402a3ec:	8080030d 	sth	r2,12(r16)
 402a3f0:	003fde06 	br	402a36c <__flash_rwdata_start+0xffff7a98>
 402a3f4:	8080030b 	ldhu	r2,12(r16)
 402a3f8:	10c0800c 	andi	r3,r2,512
 402a3fc:	183fdb1e 	bne	r3,zero,402a36c <__flash_rwdata_start+0xffff7a98>
 402a400:	10800094 	ori	r2,r2,2
 402a404:	80c010c4 	addi	r3,r16,67
 402a408:	8080030d 	sth	r2,12(r16)
 402a40c:	00800044 	movi	r2,1
 402a410:	80c00015 	stw	r3,0(r16)
 402a414:	80c00415 	stw	r3,16(r16)
 402a418:	80800515 	stw	r2,20(r16)
 402a41c:	003fd306 	br	402a36c <__flash_rwdata_start+0xffff7a98>
 402a420:	04810004 	movi	r18,1024
 402a424:	003fc306 	br	402a334 <__flash_rwdata_start+0xffff7a60>
 402a428:	0027883a 	mov	r19,zero
 402a42c:	04810004 	movi	r18,1024
 402a430:	003fc006 	br	402a334 <__flash_rwdata_start+0xffff7a60>

0402a434 <_malloc_r>:
 402a434:	defff504 	addi	sp,sp,-44
 402a438:	dc800315 	stw	r18,12(sp)
 402a43c:	dfc00a15 	stw	ra,40(sp)
 402a440:	df000915 	stw	fp,36(sp)
 402a444:	ddc00815 	stw	r23,32(sp)
 402a448:	dd800715 	stw	r22,28(sp)
 402a44c:	dd400615 	stw	r21,24(sp)
 402a450:	dd000515 	stw	r20,20(sp)
 402a454:	dcc00415 	stw	r19,16(sp)
 402a458:	dc400215 	stw	r17,8(sp)
 402a45c:	dc000115 	stw	r16,4(sp)
 402a460:	288002c4 	addi	r2,r5,11
 402a464:	00c00584 	movi	r3,22
 402a468:	2025883a 	mov	r18,r4
 402a46c:	18807f2e 	bgeu	r3,r2,402a66c <_malloc_r+0x238>
 402a470:	047ffe04 	movi	r17,-8
 402a474:	1462703a 	and	r17,r2,r17
 402a478:	8800a316 	blt	r17,zero,402a708 <_malloc_r+0x2d4>
 402a47c:	8940a236 	bltu	r17,r5,402a708 <_malloc_r+0x2d4>
 402a480:	403021c0 	call	403021c <__malloc_lock>
 402a484:	00807dc4 	movi	r2,503
 402a488:	1441e92e 	bgeu	r2,r17,402ac30 <_malloc_r+0x7fc>
 402a48c:	8804d27a 	srli	r2,r17,9
 402a490:	1000a126 	beq	r2,zero,402a718 <_malloc_r+0x2e4>
 402a494:	00c00104 	movi	r3,4
 402a498:	18811e36 	bltu	r3,r2,402a914 <_malloc_r+0x4e0>
 402a49c:	8804d1ba 	srli	r2,r17,6
 402a4a0:	12000e44 	addi	r8,r2,57
 402a4a4:	11c00e04 	addi	r7,r2,56
 402a4a8:	4209883a 	add	r4,r8,r8
 402a4ac:	04c00034 	movhi	r19,0
 402a4b0:	2109883a 	add	r4,r4,r4
 402a4b4:	9cc1f204 	addi	r19,r19,1992
 402a4b8:	2109883a 	add	r4,r4,r4
 402a4bc:	9909883a 	add	r4,r19,r4
 402a4c0:	24000117 	ldw	r16,4(r4)
 402a4c4:	213ffe04 	addi	r4,r4,-8
 402a4c8:	24009726 	beq	r4,r16,402a728 <_malloc_r+0x2f4>
 402a4cc:	80800117 	ldw	r2,4(r16)
 402a4d0:	01bfff04 	movi	r6,-4
 402a4d4:	014003c4 	movi	r5,15
 402a4d8:	1184703a 	and	r2,r2,r6
 402a4dc:	1447c83a 	sub	r3,r2,r17
 402a4e0:	28c00716 	blt	r5,r3,402a500 <_malloc_r+0xcc>
 402a4e4:	1800920e 	bge	r3,zero,402a730 <_malloc_r+0x2fc>
 402a4e8:	84000317 	ldw	r16,12(r16)
 402a4ec:	24008e26 	beq	r4,r16,402a728 <_malloc_r+0x2f4>
 402a4f0:	80800117 	ldw	r2,4(r16)
 402a4f4:	1184703a 	and	r2,r2,r6
 402a4f8:	1447c83a 	sub	r3,r2,r17
 402a4fc:	28fff90e 	bge	r5,r3,402a4e4 <__flash_rwdata_start+0xffff7c10>
 402a500:	3809883a 	mov	r4,r7
 402a504:	01800034 	movhi	r6,0
 402a508:	9c000417 	ldw	r16,16(r19)
 402a50c:	3181f204 	addi	r6,r6,1992
 402a510:	32000204 	addi	r8,r6,8
 402a514:	82013426 	beq	r16,r8,402a9e8 <_malloc_r+0x5b4>
 402a518:	80c00117 	ldw	r3,4(r16)
 402a51c:	00bfff04 	movi	r2,-4
 402a520:	188e703a 	and	r7,r3,r2
 402a524:	3c45c83a 	sub	r2,r7,r17
 402a528:	00c003c4 	movi	r3,15
 402a52c:	18811f16 	blt	r3,r2,402a9ac <_malloc_r+0x578>
 402a530:	32000515 	stw	r8,20(r6)
 402a534:	32000415 	stw	r8,16(r6)
 402a538:	10007f0e 	bge	r2,zero,402a738 <_malloc_r+0x304>
 402a53c:	00807fc4 	movi	r2,511
 402a540:	11c0fd36 	bltu	r2,r7,402a938 <_malloc_r+0x504>
 402a544:	3806d0fa 	srli	r3,r7,3
 402a548:	01c00044 	movi	r7,1
 402a54c:	30800117 	ldw	r2,4(r6)
 402a550:	19400044 	addi	r5,r3,1
 402a554:	294b883a 	add	r5,r5,r5
 402a558:	1807d0ba 	srai	r3,r3,2
 402a55c:	294b883a 	add	r5,r5,r5
 402a560:	294b883a 	add	r5,r5,r5
 402a564:	298b883a 	add	r5,r5,r6
 402a568:	38c6983a 	sll	r3,r7,r3
 402a56c:	29c00017 	ldw	r7,0(r5)
 402a570:	2a7ffe04 	addi	r9,r5,-8
 402a574:	1886b03a 	or	r3,r3,r2
 402a578:	82400315 	stw	r9,12(r16)
 402a57c:	81c00215 	stw	r7,8(r16)
 402a580:	30c00115 	stw	r3,4(r6)
 402a584:	2c000015 	stw	r16,0(r5)
 402a588:	3c000315 	stw	r16,12(r7)
 402a58c:	2005d0ba 	srai	r2,r4,2
 402a590:	01400044 	movi	r5,1
 402a594:	288a983a 	sll	r5,r5,r2
 402a598:	19406f36 	bltu	r3,r5,402a758 <_malloc_r+0x324>
 402a59c:	28c4703a 	and	r2,r5,r3
 402a5a0:	10000a1e 	bne	r2,zero,402a5cc <_malloc_r+0x198>
 402a5a4:	00bfff04 	movi	r2,-4
 402a5a8:	294b883a 	add	r5,r5,r5
 402a5ac:	2088703a 	and	r4,r4,r2
 402a5b0:	28c4703a 	and	r2,r5,r3
 402a5b4:	21000104 	addi	r4,r4,4
 402a5b8:	1000041e 	bne	r2,zero,402a5cc <_malloc_r+0x198>
 402a5bc:	294b883a 	add	r5,r5,r5
 402a5c0:	28c4703a 	and	r2,r5,r3
 402a5c4:	21000104 	addi	r4,r4,4
 402a5c8:	103ffc26 	beq	r2,zero,402a5bc <__flash_rwdata_start+0xffff7ce8>
 402a5cc:	02bfff04 	movi	r10,-4
 402a5d0:	024003c4 	movi	r9,15
 402a5d4:	21800044 	addi	r6,r4,1
 402a5d8:	318d883a 	add	r6,r6,r6
 402a5dc:	318d883a 	add	r6,r6,r6
 402a5e0:	318d883a 	add	r6,r6,r6
 402a5e4:	998d883a 	add	r6,r19,r6
 402a5e8:	333ffe04 	addi	r12,r6,-8
 402a5ec:	2017883a 	mov	r11,r4
 402a5f0:	31800104 	addi	r6,r6,4
 402a5f4:	34000017 	ldw	r16,0(r6)
 402a5f8:	31fffd04 	addi	r7,r6,-12
 402a5fc:	81c0041e 	bne	r16,r7,402a610 <_malloc_r+0x1dc>
 402a600:	0000fb06 	br	402a9f0 <_malloc_r+0x5bc>
 402a604:	1801030e 	bge	r3,zero,402aa14 <_malloc_r+0x5e0>
 402a608:	84000317 	ldw	r16,12(r16)
 402a60c:	81c0f826 	beq	r16,r7,402a9f0 <_malloc_r+0x5bc>
 402a610:	80800117 	ldw	r2,4(r16)
 402a614:	1284703a 	and	r2,r2,r10
 402a618:	1447c83a 	sub	r3,r2,r17
 402a61c:	48fff90e 	bge	r9,r3,402a604 <__flash_rwdata_start+0xffff7d30>
 402a620:	80800317 	ldw	r2,12(r16)
 402a624:	81000217 	ldw	r4,8(r16)
 402a628:	89400054 	ori	r5,r17,1
 402a62c:	81400115 	stw	r5,4(r16)
 402a630:	20800315 	stw	r2,12(r4)
 402a634:	11000215 	stw	r4,8(r2)
 402a638:	8463883a 	add	r17,r16,r17
 402a63c:	9c400515 	stw	r17,20(r19)
 402a640:	9c400415 	stw	r17,16(r19)
 402a644:	18800054 	ori	r2,r3,1
 402a648:	88800115 	stw	r2,4(r17)
 402a64c:	8a000315 	stw	r8,12(r17)
 402a650:	8a000215 	stw	r8,8(r17)
 402a654:	88e3883a 	add	r17,r17,r3
 402a658:	88c00015 	stw	r3,0(r17)
 402a65c:	9009883a 	mov	r4,r18
 402a660:	40302400 	call	4030240 <__malloc_unlock>
 402a664:	80800204 	addi	r2,r16,8
 402a668:	00001b06 	br	402a6d8 <_malloc_r+0x2a4>
 402a66c:	04400404 	movi	r17,16
 402a670:	89402536 	bltu	r17,r5,402a708 <_malloc_r+0x2d4>
 402a674:	403021c0 	call	403021c <__malloc_lock>
 402a678:	00800184 	movi	r2,6
 402a67c:	01000084 	movi	r4,2
 402a680:	04c00034 	movhi	r19,0
 402a684:	1085883a 	add	r2,r2,r2
 402a688:	9cc1f204 	addi	r19,r19,1992
 402a68c:	1085883a 	add	r2,r2,r2
 402a690:	9885883a 	add	r2,r19,r2
 402a694:	14000117 	ldw	r16,4(r2)
 402a698:	10fffe04 	addi	r3,r2,-8
 402a69c:	80c0d926 	beq	r16,r3,402aa04 <_malloc_r+0x5d0>
 402a6a0:	80c00117 	ldw	r3,4(r16)
 402a6a4:	81000317 	ldw	r4,12(r16)
 402a6a8:	00bfff04 	movi	r2,-4
 402a6ac:	1884703a 	and	r2,r3,r2
 402a6b0:	81400217 	ldw	r5,8(r16)
 402a6b4:	8085883a 	add	r2,r16,r2
 402a6b8:	10c00117 	ldw	r3,4(r2)
 402a6bc:	29000315 	stw	r4,12(r5)
 402a6c0:	21400215 	stw	r5,8(r4)
 402a6c4:	18c00054 	ori	r3,r3,1
 402a6c8:	10c00115 	stw	r3,4(r2)
 402a6cc:	9009883a 	mov	r4,r18
 402a6d0:	40302400 	call	4030240 <__malloc_unlock>
 402a6d4:	80800204 	addi	r2,r16,8
 402a6d8:	dfc00a17 	ldw	ra,40(sp)
 402a6dc:	df000917 	ldw	fp,36(sp)
 402a6e0:	ddc00817 	ldw	r23,32(sp)
 402a6e4:	dd800717 	ldw	r22,28(sp)
 402a6e8:	dd400617 	ldw	r21,24(sp)
 402a6ec:	dd000517 	ldw	r20,20(sp)
 402a6f0:	dcc00417 	ldw	r19,16(sp)
 402a6f4:	dc800317 	ldw	r18,12(sp)
 402a6f8:	dc400217 	ldw	r17,8(sp)
 402a6fc:	dc000117 	ldw	r16,4(sp)
 402a700:	dec00b04 	addi	sp,sp,44
 402a704:	f800283a 	ret
 402a708:	00800304 	movi	r2,12
 402a70c:	90800015 	stw	r2,0(r18)
 402a710:	0005883a 	mov	r2,zero
 402a714:	003ff006 	br	402a6d8 <__flash_rwdata_start+0xffff7e04>
 402a718:	01002004 	movi	r4,128
 402a71c:	02001004 	movi	r8,64
 402a720:	01c00fc4 	movi	r7,63
 402a724:	003f6106 	br	402a4ac <__flash_rwdata_start+0xffff7bd8>
 402a728:	4009883a 	mov	r4,r8
 402a72c:	003f7506 	br	402a504 <__flash_rwdata_start+0xffff7c30>
 402a730:	81000317 	ldw	r4,12(r16)
 402a734:	003fde06 	br	402a6b0 <__flash_rwdata_start+0xffff7ddc>
 402a738:	81c5883a 	add	r2,r16,r7
 402a73c:	11400117 	ldw	r5,4(r2)
 402a740:	9009883a 	mov	r4,r18
 402a744:	29400054 	ori	r5,r5,1
 402a748:	11400115 	stw	r5,4(r2)
 402a74c:	40302400 	call	4030240 <__malloc_unlock>
 402a750:	80800204 	addi	r2,r16,8
 402a754:	003fe006 	br	402a6d8 <__flash_rwdata_start+0xffff7e04>
 402a758:	9c000217 	ldw	r16,8(r19)
 402a75c:	00bfff04 	movi	r2,-4
 402a760:	85800117 	ldw	r22,4(r16)
 402a764:	b0ac703a 	and	r22,r22,r2
 402a768:	b4400336 	bltu	r22,r17,402a778 <_malloc_r+0x344>
 402a76c:	b445c83a 	sub	r2,r22,r17
 402a770:	00c003c4 	movi	r3,15
 402a774:	18805d16 	blt	r3,r2,402a8ec <_malloc_r+0x4b8>
 402a778:	05c00034 	movhi	r23,0
 402a77c:	00800034 	movhi	r2,0
 402a780:	10878e04 	addi	r2,r2,7736
 402a784:	bdc77a04 	addi	r23,r23,7656
 402a788:	15400017 	ldw	r21,0(r2)
 402a78c:	b8c00017 	ldw	r3,0(r23)
 402a790:	00bfffc4 	movi	r2,-1
 402a794:	858d883a 	add	r6,r16,r22
 402a798:	8d6b883a 	add	r21,r17,r21
 402a79c:	1880ea26 	beq	r3,r2,402ab48 <_malloc_r+0x714>
 402a7a0:	ad4403c4 	addi	r21,r21,4111
 402a7a4:	00bc0004 	movi	r2,-4096
 402a7a8:	a8aa703a 	and	r21,r21,r2
 402a7ac:	a80b883a 	mov	r5,r21
 402a7b0:	9009883a 	mov	r4,r18
 402a7b4:	d9800015 	stw	r6,0(sp)
 402a7b8:	402c0c00 	call	402c0c0 <_sbrk_r>
 402a7bc:	1029883a 	mov	r20,r2
 402a7c0:	00bfffc4 	movi	r2,-1
 402a7c4:	d9800017 	ldw	r6,0(sp)
 402a7c8:	a080e826 	beq	r20,r2,402ab6c <_malloc_r+0x738>
 402a7cc:	a180a636 	bltu	r20,r6,402aa68 <_malloc_r+0x634>
 402a7d0:	07000034 	movhi	fp,0
 402a7d4:	e707a604 	addi	fp,fp,7832
 402a7d8:	e0800017 	ldw	r2,0(fp)
 402a7dc:	a887883a 	add	r3,r21,r2
 402a7e0:	e0c00015 	stw	r3,0(fp)
 402a7e4:	3500e626 	beq	r6,r20,402ab80 <_malloc_r+0x74c>
 402a7e8:	b9000017 	ldw	r4,0(r23)
 402a7ec:	00bfffc4 	movi	r2,-1
 402a7f0:	2080ee26 	beq	r4,r2,402abac <_malloc_r+0x778>
 402a7f4:	a185c83a 	sub	r2,r20,r6
 402a7f8:	10c5883a 	add	r2,r2,r3
 402a7fc:	e0800015 	stw	r2,0(fp)
 402a800:	a0c001cc 	andi	r3,r20,7
 402a804:	1800bc26 	beq	r3,zero,402aaf8 <_malloc_r+0x6c4>
 402a808:	a0e9c83a 	sub	r20,r20,r3
 402a80c:	00840204 	movi	r2,4104
 402a810:	a5000204 	addi	r20,r20,8
 402a814:	10c7c83a 	sub	r3,r2,r3
 402a818:	a545883a 	add	r2,r20,r21
 402a81c:	1083ffcc 	andi	r2,r2,4095
 402a820:	18abc83a 	sub	r21,r3,r2
 402a824:	a80b883a 	mov	r5,r21
 402a828:	9009883a 	mov	r4,r18
 402a82c:	402c0c00 	call	402c0c0 <_sbrk_r>
 402a830:	00ffffc4 	movi	r3,-1
 402a834:	10c0e126 	beq	r2,r3,402abbc <_malloc_r+0x788>
 402a838:	1505c83a 	sub	r2,r2,r20
 402a83c:	1545883a 	add	r2,r2,r21
 402a840:	10800054 	ori	r2,r2,1
 402a844:	e0c00017 	ldw	r3,0(fp)
 402a848:	9d000215 	stw	r20,8(r19)
 402a84c:	a0800115 	stw	r2,4(r20)
 402a850:	a8c7883a 	add	r3,r21,r3
 402a854:	e0c00015 	stw	r3,0(fp)
 402a858:	84c00e26 	beq	r16,r19,402a894 <_malloc_r+0x460>
 402a85c:	018003c4 	movi	r6,15
 402a860:	3580a72e 	bgeu	r6,r22,402ab00 <_malloc_r+0x6cc>
 402a864:	81400117 	ldw	r5,4(r16)
 402a868:	013ffe04 	movi	r4,-8
 402a86c:	b0bffd04 	addi	r2,r22,-12
 402a870:	1104703a 	and	r2,r2,r4
 402a874:	2900004c 	andi	r4,r5,1
 402a878:	2088b03a 	or	r4,r4,r2
 402a87c:	81000115 	stw	r4,4(r16)
 402a880:	01400144 	movi	r5,5
 402a884:	8089883a 	add	r4,r16,r2
 402a888:	21400115 	stw	r5,4(r4)
 402a88c:	21400215 	stw	r5,8(r4)
 402a890:	3080cd36 	bltu	r6,r2,402abc8 <_malloc_r+0x794>
 402a894:	00800034 	movhi	r2,0
 402a898:	10878d04 	addi	r2,r2,7732
 402a89c:	11000017 	ldw	r4,0(r2)
 402a8a0:	20c0012e 	bgeu	r4,r3,402a8a8 <_malloc_r+0x474>
 402a8a4:	10c00015 	stw	r3,0(r2)
 402a8a8:	00800034 	movhi	r2,0
 402a8ac:	10878c04 	addi	r2,r2,7728
 402a8b0:	11000017 	ldw	r4,0(r2)
 402a8b4:	9c000217 	ldw	r16,8(r19)
 402a8b8:	20c0012e 	bgeu	r4,r3,402a8c0 <_malloc_r+0x48c>
 402a8bc:	10c00015 	stw	r3,0(r2)
 402a8c0:	80c00117 	ldw	r3,4(r16)
 402a8c4:	00bfff04 	movi	r2,-4
 402a8c8:	1886703a 	and	r3,r3,r2
 402a8cc:	1c45c83a 	sub	r2,r3,r17
 402a8d0:	1c400236 	bltu	r3,r17,402a8dc <_malloc_r+0x4a8>
 402a8d4:	00c003c4 	movi	r3,15
 402a8d8:	18800416 	blt	r3,r2,402a8ec <_malloc_r+0x4b8>
 402a8dc:	9009883a 	mov	r4,r18
 402a8e0:	40302400 	call	4030240 <__malloc_unlock>
 402a8e4:	0005883a 	mov	r2,zero
 402a8e8:	003f7b06 	br	402a6d8 <__flash_rwdata_start+0xffff7e04>
 402a8ec:	88c00054 	ori	r3,r17,1
 402a8f0:	80c00115 	stw	r3,4(r16)
 402a8f4:	8463883a 	add	r17,r16,r17
 402a8f8:	10800054 	ori	r2,r2,1
 402a8fc:	9c400215 	stw	r17,8(r19)
 402a900:	88800115 	stw	r2,4(r17)
 402a904:	9009883a 	mov	r4,r18
 402a908:	40302400 	call	4030240 <__malloc_unlock>
 402a90c:	80800204 	addi	r2,r16,8
 402a910:	003f7106 	br	402a6d8 <__flash_rwdata_start+0xffff7e04>
 402a914:	00c00504 	movi	r3,20
 402a918:	18804a2e 	bgeu	r3,r2,402aa44 <_malloc_r+0x610>
 402a91c:	00c01504 	movi	r3,84
 402a920:	18806e36 	bltu	r3,r2,402aadc <_malloc_r+0x6a8>
 402a924:	8804d33a 	srli	r2,r17,12
 402a928:	12001bc4 	addi	r8,r2,111
 402a92c:	11c01b84 	addi	r7,r2,110
 402a930:	4209883a 	add	r4,r8,r8
 402a934:	003edd06 	br	402a4ac <__flash_rwdata_start+0xffff7bd8>
 402a938:	3804d27a 	srli	r2,r7,9
 402a93c:	00c00104 	movi	r3,4
 402a940:	1880442e 	bgeu	r3,r2,402aa54 <_malloc_r+0x620>
 402a944:	00c00504 	movi	r3,20
 402a948:	18808136 	bltu	r3,r2,402ab50 <_malloc_r+0x71c>
 402a94c:	11401704 	addi	r5,r2,92
 402a950:	10c016c4 	addi	r3,r2,91
 402a954:	294b883a 	add	r5,r5,r5
 402a958:	294b883a 	add	r5,r5,r5
 402a95c:	294b883a 	add	r5,r5,r5
 402a960:	994b883a 	add	r5,r19,r5
 402a964:	28800017 	ldw	r2,0(r5)
 402a968:	01800034 	movhi	r6,0
 402a96c:	297ffe04 	addi	r5,r5,-8
 402a970:	3181f204 	addi	r6,r6,1992
 402a974:	28806526 	beq	r5,r2,402ab0c <_malloc_r+0x6d8>
 402a978:	01bfff04 	movi	r6,-4
 402a97c:	10c00117 	ldw	r3,4(r2)
 402a980:	1986703a 	and	r3,r3,r6
 402a984:	38c0022e 	bgeu	r7,r3,402a990 <_malloc_r+0x55c>
 402a988:	10800217 	ldw	r2,8(r2)
 402a98c:	28bffb1e 	bne	r5,r2,402a97c <__flash_rwdata_start+0xffff80a8>
 402a990:	11400317 	ldw	r5,12(r2)
 402a994:	98c00117 	ldw	r3,4(r19)
 402a998:	81400315 	stw	r5,12(r16)
 402a99c:	80800215 	stw	r2,8(r16)
 402a9a0:	2c000215 	stw	r16,8(r5)
 402a9a4:	14000315 	stw	r16,12(r2)
 402a9a8:	003ef806 	br	402a58c <__flash_rwdata_start+0xffff7cb8>
 402a9ac:	88c00054 	ori	r3,r17,1
 402a9b0:	80c00115 	stw	r3,4(r16)
 402a9b4:	8463883a 	add	r17,r16,r17
 402a9b8:	34400515 	stw	r17,20(r6)
 402a9bc:	34400415 	stw	r17,16(r6)
 402a9c0:	10c00054 	ori	r3,r2,1
 402a9c4:	8a000315 	stw	r8,12(r17)
 402a9c8:	8a000215 	stw	r8,8(r17)
 402a9cc:	88c00115 	stw	r3,4(r17)
 402a9d0:	88a3883a 	add	r17,r17,r2
 402a9d4:	88800015 	stw	r2,0(r17)
 402a9d8:	9009883a 	mov	r4,r18
 402a9dc:	40302400 	call	4030240 <__malloc_unlock>
 402a9e0:	80800204 	addi	r2,r16,8
 402a9e4:	003f3c06 	br	402a6d8 <__flash_rwdata_start+0xffff7e04>
 402a9e8:	30c00117 	ldw	r3,4(r6)
 402a9ec:	003ee706 	br	402a58c <__flash_rwdata_start+0xffff7cb8>
 402a9f0:	5ac00044 	addi	r11,r11,1
 402a9f4:	588000cc 	andi	r2,r11,3
 402a9f8:	31800204 	addi	r6,r6,8
 402a9fc:	103efd1e 	bne	r2,zero,402a5f4 <__flash_rwdata_start+0xffff7d20>
 402aa00:	00002406 	br	402aa94 <_malloc_r+0x660>
 402aa04:	14000317 	ldw	r16,12(r2)
 402aa08:	143f251e 	bne	r2,r16,402a6a0 <__flash_rwdata_start+0xffff7dcc>
 402aa0c:	21000084 	addi	r4,r4,2
 402aa10:	003ebc06 	br	402a504 <__flash_rwdata_start+0xffff7c30>
 402aa14:	8085883a 	add	r2,r16,r2
 402aa18:	10c00117 	ldw	r3,4(r2)
 402aa1c:	81000317 	ldw	r4,12(r16)
 402aa20:	81400217 	ldw	r5,8(r16)
 402aa24:	18c00054 	ori	r3,r3,1
 402aa28:	10c00115 	stw	r3,4(r2)
 402aa2c:	29000315 	stw	r4,12(r5)
 402aa30:	21400215 	stw	r5,8(r4)
 402aa34:	9009883a 	mov	r4,r18
 402aa38:	40302400 	call	4030240 <__malloc_unlock>
 402aa3c:	80800204 	addi	r2,r16,8
 402aa40:	003f2506 	br	402a6d8 <__flash_rwdata_start+0xffff7e04>
 402aa44:	12001704 	addi	r8,r2,92
 402aa48:	11c016c4 	addi	r7,r2,91
 402aa4c:	4209883a 	add	r4,r8,r8
 402aa50:	003e9606 	br	402a4ac <__flash_rwdata_start+0xffff7bd8>
 402aa54:	3804d1ba 	srli	r2,r7,6
 402aa58:	11400e44 	addi	r5,r2,57
 402aa5c:	10c00e04 	addi	r3,r2,56
 402aa60:	294b883a 	add	r5,r5,r5
 402aa64:	003fbc06 	br	402a958 <__flash_rwdata_start+0xffff8084>
 402aa68:	84ff5926 	beq	r16,r19,402a7d0 <__flash_rwdata_start+0xffff7efc>
 402aa6c:	00800034 	movhi	r2,0
 402aa70:	1081f204 	addi	r2,r2,1992
 402aa74:	14000217 	ldw	r16,8(r2)
 402aa78:	00bfff04 	movi	r2,-4
 402aa7c:	80c00117 	ldw	r3,4(r16)
 402aa80:	1886703a 	and	r3,r3,r2
 402aa84:	003f9106 	br	402a8cc <__flash_rwdata_start+0xffff7ff8>
 402aa88:	60800217 	ldw	r2,8(r12)
 402aa8c:	213fffc4 	addi	r4,r4,-1
 402aa90:	1300651e 	bne	r2,r12,402ac28 <_malloc_r+0x7f4>
 402aa94:	208000cc 	andi	r2,r4,3
 402aa98:	633ffe04 	addi	r12,r12,-8
 402aa9c:	103ffa1e 	bne	r2,zero,402aa88 <__flash_rwdata_start+0xffff81b4>
 402aaa0:	98800117 	ldw	r2,4(r19)
 402aaa4:	0146303a 	nor	r3,zero,r5
 402aaa8:	1884703a 	and	r2,r3,r2
 402aaac:	98800115 	stw	r2,4(r19)
 402aab0:	294b883a 	add	r5,r5,r5
 402aab4:	117f2836 	bltu	r2,r5,402a758 <__flash_rwdata_start+0xffff7e84>
 402aab8:	283f2726 	beq	r5,zero,402a758 <__flash_rwdata_start+0xffff7e84>
 402aabc:	2886703a 	and	r3,r5,r2
 402aac0:	5809883a 	mov	r4,r11
 402aac4:	183ec31e 	bne	r3,zero,402a5d4 <__flash_rwdata_start+0xffff7d00>
 402aac8:	294b883a 	add	r5,r5,r5
 402aacc:	2886703a 	and	r3,r5,r2
 402aad0:	21000104 	addi	r4,r4,4
 402aad4:	183ffc26 	beq	r3,zero,402aac8 <__flash_rwdata_start+0xffff81f4>
 402aad8:	003ebe06 	br	402a5d4 <__flash_rwdata_start+0xffff7d00>
 402aadc:	00c05504 	movi	r3,340
 402aae0:	18801236 	bltu	r3,r2,402ab2c <_malloc_r+0x6f8>
 402aae4:	8804d3fa 	srli	r2,r17,15
 402aae8:	12001e04 	addi	r8,r2,120
 402aaec:	11c01dc4 	addi	r7,r2,119
 402aaf0:	4209883a 	add	r4,r8,r8
 402aaf4:	003e6d06 	br	402a4ac <__flash_rwdata_start+0xffff7bd8>
 402aaf8:	00c40004 	movi	r3,4096
 402aafc:	003f4606 	br	402a818 <__flash_rwdata_start+0xffff7f44>
 402ab00:	00800044 	movi	r2,1
 402ab04:	a0800115 	stw	r2,4(r20)
 402ab08:	003f7406 	br	402a8dc <__flash_rwdata_start+0xffff8008>
 402ab0c:	1805d0ba 	srai	r2,r3,2
 402ab10:	01c00044 	movi	r7,1
 402ab14:	30c00117 	ldw	r3,4(r6)
 402ab18:	388e983a 	sll	r7,r7,r2
 402ab1c:	2805883a 	mov	r2,r5
 402ab20:	38c6b03a 	or	r3,r7,r3
 402ab24:	30c00115 	stw	r3,4(r6)
 402ab28:	003f9b06 	br	402a998 <__flash_rwdata_start+0xffff80c4>
 402ab2c:	00c15504 	movi	r3,1364
 402ab30:	18801a36 	bltu	r3,r2,402ab9c <_malloc_r+0x768>
 402ab34:	8804d4ba 	srli	r2,r17,18
 402ab38:	12001f44 	addi	r8,r2,125
 402ab3c:	11c01f04 	addi	r7,r2,124
 402ab40:	4209883a 	add	r4,r8,r8
 402ab44:	003e5906 	br	402a4ac <__flash_rwdata_start+0xffff7bd8>
 402ab48:	ad400404 	addi	r21,r21,16
 402ab4c:	003f1706 	br	402a7ac <__flash_rwdata_start+0xffff7ed8>
 402ab50:	00c01504 	movi	r3,84
 402ab54:	18802336 	bltu	r3,r2,402abe4 <_malloc_r+0x7b0>
 402ab58:	3804d33a 	srli	r2,r7,12
 402ab5c:	11401bc4 	addi	r5,r2,111
 402ab60:	10c01b84 	addi	r3,r2,110
 402ab64:	294b883a 	add	r5,r5,r5
 402ab68:	003f7b06 	br	402a958 <__flash_rwdata_start+0xffff8084>
 402ab6c:	9c000217 	ldw	r16,8(r19)
 402ab70:	00bfff04 	movi	r2,-4
 402ab74:	80c00117 	ldw	r3,4(r16)
 402ab78:	1886703a 	and	r3,r3,r2
 402ab7c:	003f5306 	br	402a8cc <__flash_rwdata_start+0xffff7ff8>
 402ab80:	3083ffcc 	andi	r2,r6,4095
 402ab84:	103f181e 	bne	r2,zero,402a7e8 <__flash_rwdata_start+0xffff7f14>
 402ab88:	99000217 	ldw	r4,8(r19)
 402ab8c:	b545883a 	add	r2,r22,r21
 402ab90:	10800054 	ori	r2,r2,1
 402ab94:	20800115 	stw	r2,4(r4)
 402ab98:	003f3e06 	br	402a894 <__flash_rwdata_start+0xffff7fc0>
 402ab9c:	01003f84 	movi	r4,254
 402aba0:	02001fc4 	movi	r8,127
 402aba4:	01c01f84 	movi	r7,126
 402aba8:	003e4006 	br	402a4ac <__flash_rwdata_start+0xffff7bd8>
 402abac:	00800034 	movhi	r2,0
 402abb0:	10877a04 	addi	r2,r2,7656
 402abb4:	15000015 	stw	r20,0(r2)
 402abb8:	003f1106 	br	402a800 <__flash_rwdata_start+0xffff7f2c>
 402abbc:	00800044 	movi	r2,1
 402abc0:	002b883a 	mov	r21,zero
 402abc4:	003f1f06 	br	402a844 <__flash_rwdata_start+0xffff7f70>
 402abc8:	81400204 	addi	r5,r16,8
 402abcc:	9009883a 	mov	r4,r18
 402abd0:	4029d040 	call	4029d04 <_free_r>
 402abd4:	00800034 	movhi	r2,0
 402abd8:	1087a604 	addi	r2,r2,7832
 402abdc:	10c00017 	ldw	r3,0(r2)
 402abe0:	003f2c06 	br	402a894 <__flash_rwdata_start+0xffff7fc0>
 402abe4:	00c05504 	movi	r3,340
 402abe8:	18800536 	bltu	r3,r2,402ac00 <_malloc_r+0x7cc>
 402abec:	3804d3fa 	srli	r2,r7,15
 402abf0:	11401e04 	addi	r5,r2,120
 402abf4:	10c01dc4 	addi	r3,r2,119
 402abf8:	294b883a 	add	r5,r5,r5
 402abfc:	003f5606 	br	402a958 <__flash_rwdata_start+0xffff8084>
 402ac00:	00c15504 	movi	r3,1364
 402ac04:	18800536 	bltu	r3,r2,402ac1c <_malloc_r+0x7e8>
 402ac08:	3804d4ba 	srli	r2,r7,18
 402ac0c:	11401f44 	addi	r5,r2,125
 402ac10:	10c01f04 	addi	r3,r2,124
 402ac14:	294b883a 	add	r5,r5,r5
 402ac18:	003f4f06 	br	402a958 <__flash_rwdata_start+0xffff8084>
 402ac1c:	01403f84 	movi	r5,254
 402ac20:	00c01f84 	movi	r3,126
 402ac24:	003f4c06 	br	402a958 <__flash_rwdata_start+0xffff8084>
 402ac28:	98800117 	ldw	r2,4(r19)
 402ac2c:	003fa006 	br	402aab0 <__flash_rwdata_start+0xffff81dc>
 402ac30:	8808d0fa 	srli	r4,r17,3
 402ac34:	20800044 	addi	r2,r4,1
 402ac38:	1085883a 	add	r2,r2,r2
 402ac3c:	003e9006 	br	402a680 <__flash_rwdata_start+0xffff7dac>

0402ac40 <memchr>:
 402ac40:	208000cc 	andi	r2,r4,3
 402ac44:	280f883a 	mov	r7,r5
 402ac48:	10003426 	beq	r2,zero,402ad1c <memchr+0xdc>
 402ac4c:	30bfffc4 	addi	r2,r6,-1
 402ac50:	30001a26 	beq	r6,zero,402acbc <memchr+0x7c>
 402ac54:	20c00003 	ldbu	r3,0(r4)
 402ac58:	29803fcc 	andi	r6,r5,255
 402ac5c:	30c0051e 	bne	r6,r3,402ac74 <memchr+0x34>
 402ac60:	00001806 	br	402acc4 <memchr+0x84>
 402ac64:	10001526 	beq	r2,zero,402acbc <memchr+0x7c>
 402ac68:	20c00003 	ldbu	r3,0(r4)
 402ac6c:	10bfffc4 	addi	r2,r2,-1
 402ac70:	30c01426 	beq	r6,r3,402acc4 <memchr+0x84>
 402ac74:	21000044 	addi	r4,r4,1
 402ac78:	20c000cc 	andi	r3,r4,3
 402ac7c:	183ff91e 	bne	r3,zero,402ac64 <__flash_rwdata_start+0xffff8390>
 402ac80:	020000c4 	movi	r8,3
 402ac84:	40801136 	bltu	r8,r2,402accc <memchr+0x8c>
 402ac88:	10000c26 	beq	r2,zero,402acbc <memchr+0x7c>
 402ac8c:	20c00003 	ldbu	r3,0(r4)
 402ac90:	29403fcc 	andi	r5,r5,255
 402ac94:	28c00b26 	beq	r5,r3,402acc4 <memchr+0x84>
 402ac98:	20c00044 	addi	r3,r4,1
 402ac9c:	39803fcc 	andi	r6,r7,255
 402aca0:	2089883a 	add	r4,r4,r2
 402aca4:	00000306 	br	402acb4 <memchr+0x74>
 402aca8:	18c00044 	addi	r3,r3,1
 402acac:	197fffc3 	ldbu	r5,-1(r3)
 402acb0:	31400526 	beq	r6,r5,402acc8 <memchr+0x88>
 402acb4:	1805883a 	mov	r2,r3
 402acb8:	20fffb1e 	bne	r4,r3,402aca8 <__flash_rwdata_start+0xffff83d4>
 402acbc:	0005883a 	mov	r2,zero
 402acc0:	f800283a 	ret
 402acc4:	2005883a 	mov	r2,r4
 402acc8:	f800283a 	ret
 402accc:	28c03fcc 	andi	r3,r5,255
 402acd0:	1812923a 	slli	r9,r3,8
 402acd4:	02ffbff4 	movhi	r11,65279
 402acd8:	02a02074 	movhi	r10,32897
 402acdc:	48d2b03a 	or	r9,r9,r3
 402ace0:	4806943a 	slli	r3,r9,16
 402ace4:	5affbfc4 	addi	r11,r11,-257
 402ace8:	52a02004 	addi	r10,r10,-32640
 402acec:	48d2b03a 	or	r9,r9,r3
 402acf0:	20c00017 	ldw	r3,0(r4)
 402acf4:	48c6f03a 	xor	r3,r9,r3
 402acf8:	1acd883a 	add	r6,r3,r11
 402acfc:	00c6303a 	nor	r3,zero,r3
 402ad00:	30c6703a 	and	r3,r6,r3
 402ad04:	1a86703a 	and	r3,r3,r10
 402ad08:	183fe01e 	bne	r3,zero,402ac8c <__flash_rwdata_start+0xffff83b8>
 402ad0c:	10bfff04 	addi	r2,r2,-4
 402ad10:	21000104 	addi	r4,r4,4
 402ad14:	40bff636 	bltu	r8,r2,402acf0 <__flash_rwdata_start+0xffff841c>
 402ad18:	003fdb06 	br	402ac88 <__flash_rwdata_start+0xffff83b4>
 402ad1c:	3005883a 	mov	r2,r6
 402ad20:	003fd706 	br	402ac80 <__flash_rwdata_start+0xffff83ac>

0402ad24 <memcpy>:
 402ad24:	defffd04 	addi	sp,sp,-12
 402ad28:	dfc00215 	stw	ra,8(sp)
 402ad2c:	dc400115 	stw	r17,4(sp)
 402ad30:	dc000015 	stw	r16,0(sp)
 402ad34:	00c003c4 	movi	r3,15
 402ad38:	2005883a 	mov	r2,r4
 402ad3c:	1980452e 	bgeu	r3,r6,402ae54 <memcpy+0x130>
 402ad40:	2906b03a 	or	r3,r5,r4
 402ad44:	18c000cc 	andi	r3,r3,3
 402ad48:	1800441e 	bne	r3,zero,402ae5c <memcpy+0x138>
 402ad4c:	347ffc04 	addi	r17,r6,-16
 402ad50:	8822d13a 	srli	r17,r17,4
 402ad54:	28c00104 	addi	r3,r5,4
 402ad58:	23400104 	addi	r13,r4,4
 402ad5c:	8820913a 	slli	r16,r17,4
 402ad60:	2b000204 	addi	r12,r5,8
 402ad64:	22c00204 	addi	r11,r4,8
 402ad68:	84000504 	addi	r16,r16,20
 402ad6c:	2a800304 	addi	r10,r5,12
 402ad70:	22400304 	addi	r9,r4,12
 402ad74:	2c21883a 	add	r16,r5,r16
 402ad78:	2811883a 	mov	r8,r5
 402ad7c:	200f883a 	mov	r7,r4
 402ad80:	41000017 	ldw	r4,0(r8)
 402ad84:	1fc00017 	ldw	ra,0(r3)
 402ad88:	63c00017 	ldw	r15,0(r12)
 402ad8c:	39000015 	stw	r4,0(r7)
 402ad90:	53800017 	ldw	r14,0(r10)
 402ad94:	6fc00015 	stw	ra,0(r13)
 402ad98:	5bc00015 	stw	r15,0(r11)
 402ad9c:	4b800015 	stw	r14,0(r9)
 402ada0:	18c00404 	addi	r3,r3,16
 402ada4:	39c00404 	addi	r7,r7,16
 402ada8:	42000404 	addi	r8,r8,16
 402adac:	6b400404 	addi	r13,r13,16
 402adb0:	63000404 	addi	r12,r12,16
 402adb4:	5ac00404 	addi	r11,r11,16
 402adb8:	52800404 	addi	r10,r10,16
 402adbc:	4a400404 	addi	r9,r9,16
 402adc0:	1c3fef1e 	bne	r3,r16,402ad80 <__flash_rwdata_start+0xffff84ac>
 402adc4:	89c00044 	addi	r7,r17,1
 402adc8:	380e913a 	slli	r7,r7,4
 402adcc:	310003cc 	andi	r4,r6,15
 402add0:	02c000c4 	movi	r11,3
 402add4:	11c7883a 	add	r3,r2,r7
 402add8:	29cb883a 	add	r5,r5,r7
 402addc:	5900212e 	bgeu	r11,r4,402ae64 <memcpy+0x140>
 402ade0:	1813883a 	mov	r9,r3
 402ade4:	2811883a 	mov	r8,r5
 402ade8:	200f883a 	mov	r7,r4
 402adec:	42800017 	ldw	r10,0(r8)
 402adf0:	4a400104 	addi	r9,r9,4
 402adf4:	39ffff04 	addi	r7,r7,-4
 402adf8:	4abfff15 	stw	r10,-4(r9)
 402adfc:	42000104 	addi	r8,r8,4
 402ae00:	59fffa36 	bltu	r11,r7,402adec <__flash_rwdata_start+0xffff8518>
 402ae04:	213fff04 	addi	r4,r4,-4
 402ae08:	2008d0ba 	srli	r4,r4,2
 402ae0c:	318000cc 	andi	r6,r6,3
 402ae10:	21000044 	addi	r4,r4,1
 402ae14:	2109883a 	add	r4,r4,r4
 402ae18:	2109883a 	add	r4,r4,r4
 402ae1c:	1907883a 	add	r3,r3,r4
 402ae20:	290b883a 	add	r5,r5,r4
 402ae24:	30000626 	beq	r6,zero,402ae40 <memcpy+0x11c>
 402ae28:	198d883a 	add	r6,r3,r6
 402ae2c:	29c00003 	ldbu	r7,0(r5)
 402ae30:	18c00044 	addi	r3,r3,1
 402ae34:	29400044 	addi	r5,r5,1
 402ae38:	19ffffc5 	stb	r7,-1(r3)
 402ae3c:	19bffb1e 	bne	r3,r6,402ae2c <__flash_rwdata_start+0xffff8558>
 402ae40:	dfc00217 	ldw	ra,8(sp)
 402ae44:	dc400117 	ldw	r17,4(sp)
 402ae48:	dc000017 	ldw	r16,0(sp)
 402ae4c:	dec00304 	addi	sp,sp,12
 402ae50:	f800283a 	ret
 402ae54:	2007883a 	mov	r3,r4
 402ae58:	003ff206 	br	402ae24 <__flash_rwdata_start+0xffff8550>
 402ae5c:	2007883a 	mov	r3,r4
 402ae60:	003ff106 	br	402ae28 <__flash_rwdata_start+0xffff8554>
 402ae64:	200d883a 	mov	r6,r4
 402ae68:	003fee06 	br	402ae24 <__flash_rwdata_start+0xffff8550>

0402ae6c <memset>:
 402ae6c:	20c000cc 	andi	r3,r4,3
 402ae70:	2005883a 	mov	r2,r4
 402ae74:	18004426 	beq	r3,zero,402af88 <memset+0x11c>
 402ae78:	31ffffc4 	addi	r7,r6,-1
 402ae7c:	30004026 	beq	r6,zero,402af80 <memset+0x114>
 402ae80:	2813883a 	mov	r9,r5
 402ae84:	200d883a 	mov	r6,r4
 402ae88:	2007883a 	mov	r3,r4
 402ae8c:	00000406 	br	402aea0 <memset+0x34>
 402ae90:	3a3fffc4 	addi	r8,r7,-1
 402ae94:	31800044 	addi	r6,r6,1
 402ae98:	38003926 	beq	r7,zero,402af80 <memset+0x114>
 402ae9c:	400f883a 	mov	r7,r8
 402aea0:	18c00044 	addi	r3,r3,1
 402aea4:	32400005 	stb	r9,0(r6)
 402aea8:	1a0000cc 	andi	r8,r3,3
 402aeac:	403ff81e 	bne	r8,zero,402ae90 <__flash_rwdata_start+0xffff85bc>
 402aeb0:	010000c4 	movi	r4,3
 402aeb4:	21c02d2e 	bgeu	r4,r7,402af6c <memset+0x100>
 402aeb8:	29003fcc 	andi	r4,r5,255
 402aebc:	200c923a 	slli	r6,r4,8
 402aec0:	3108b03a 	or	r4,r6,r4
 402aec4:	200c943a 	slli	r6,r4,16
 402aec8:	218cb03a 	or	r6,r4,r6
 402aecc:	010003c4 	movi	r4,15
 402aed0:	21c0182e 	bgeu	r4,r7,402af34 <memset+0xc8>
 402aed4:	3b3ffc04 	addi	r12,r7,-16
 402aed8:	6018d13a 	srli	r12,r12,4
 402aedc:	1a000104 	addi	r8,r3,4
 402aee0:	1ac00204 	addi	r11,r3,8
 402aee4:	6008913a 	slli	r4,r12,4
 402aee8:	1a800304 	addi	r10,r3,12
 402aeec:	1813883a 	mov	r9,r3
 402aef0:	21000504 	addi	r4,r4,20
 402aef4:	1909883a 	add	r4,r3,r4
 402aef8:	49800015 	stw	r6,0(r9)
 402aefc:	41800015 	stw	r6,0(r8)
 402af00:	59800015 	stw	r6,0(r11)
 402af04:	51800015 	stw	r6,0(r10)
 402af08:	42000404 	addi	r8,r8,16
 402af0c:	4a400404 	addi	r9,r9,16
 402af10:	5ac00404 	addi	r11,r11,16
 402af14:	52800404 	addi	r10,r10,16
 402af18:	413ff71e 	bne	r8,r4,402aef8 <__flash_rwdata_start+0xffff8624>
 402af1c:	63000044 	addi	r12,r12,1
 402af20:	6018913a 	slli	r12,r12,4
 402af24:	39c003cc 	andi	r7,r7,15
 402af28:	010000c4 	movi	r4,3
 402af2c:	1b07883a 	add	r3,r3,r12
 402af30:	21c00e2e 	bgeu	r4,r7,402af6c <memset+0x100>
 402af34:	1813883a 	mov	r9,r3
 402af38:	3811883a 	mov	r8,r7
 402af3c:	010000c4 	movi	r4,3
 402af40:	49800015 	stw	r6,0(r9)
 402af44:	423fff04 	addi	r8,r8,-4
 402af48:	4a400104 	addi	r9,r9,4
 402af4c:	223ffc36 	bltu	r4,r8,402af40 <__flash_rwdata_start+0xffff866c>
 402af50:	393fff04 	addi	r4,r7,-4
 402af54:	2008d0ba 	srli	r4,r4,2
 402af58:	39c000cc 	andi	r7,r7,3
 402af5c:	21000044 	addi	r4,r4,1
 402af60:	2109883a 	add	r4,r4,r4
 402af64:	2109883a 	add	r4,r4,r4
 402af68:	1907883a 	add	r3,r3,r4
 402af6c:	38000526 	beq	r7,zero,402af84 <memset+0x118>
 402af70:	19cf883a 	add	r7,r3,r7
 402af74:	19400005 	stb	r5,0(r3)
 402af78:	18c00044 	addi	r3,r3,1
 402af7c:	38fffd1e 	bne	r7,r3,402af74 <__flash_rwdata_start+0xffff86a0>
 402af80:	f800283a 	ret
 402af84:	f800283a 	ret
 402af88:	2007883a 	mov	r3,r4
 402af8c:	300f883a 	mov	r7,r6
 402af90:	003fc706 	br	402aeb0 <__flash_rwdata_start+0xffff85dc>

0402af94 <_Balloc>:
 402af94:	20801317 	ldw	r2,76(r4)
 402af98:	defffc04 	addi	sp,sp,-16
 402af9c:	dc400115 	stw	r17,4(sp)
 402afa0:	dc000015 	stw	r16,0(sp)
 402afa4:	dfc00315 	stw	ra,12(sp)
 402afa8:	dc800215 	stw	r18,8(sp)
 402afac:	2023883a 	mov	r17,r4
 402afb0:	2821883a 	mov	r16,r5
 402afb4:	10000f26 	beq	r2,zero,402aff4 <_Balloc+0x60>
 402afb8:	8407883a 	add	r3,r16,r16
 402afbc:	18c7883a 	add	r3,r3,r3
 402afc0:	10c7883a 	add	r3,r2,r3
 402afc4:	18800017 	ldw	r2,0(r3)
 402afc8:	10001126 	beq	r2,zero,402b010 <_Balloc+0x7c>
 402afcc:	11000017 	ldw	r4,0(r2)
 402afd0:	19000015 	stw	r4,0(r3)
 402afd4:	10000415 	stw	zero,16(r2)
 402afd8:	10000315 	stw	zero,12(r2)
 402afdc:	dfc00317 	ldw	ra,12(sp)
 402afe0:	dc800217 	ldw	r18,8(sp)
 402afe4:	dc400117 	ldw	r17,4(sp)
 402afe8:	dc000017 	ldw	r16,0(sp)
 402afec:	dec00404 	addi	sp,sp,16
 402aff0:	f800283a 	ret
 402aff4:	01800844 	movi	r6,33
 402aff8:	01400104 	movi	r5,4
 402affc:	402db700 	call	402db70 <_calloc_r>
 402b000:	88801315 	stw	r2,76(r17)
 402b004:	103fec1e 	bne	r2,zero,402afb8 <__flash_rwdata_start+0xffff86e4>
 402b008:	0005883a 	mov	r2,zero
 402b00c:	003ff306 	br	402afdc <__flash_rwdata_start+0xffff8708>
 402b010:	01400044 	movi	r5,1
 402b014:	2c24983a 	sll	r18,r5,r16
 402b018:	8809883a 	mov	r4,r17
 402b01c:	91800144 	addi	r6,r18,5
 402b020:	318d883a 	add	r6,r6,r6
 402b024:	318d883a 	add	r6,r6,r6
 402b028:	402db700 	call	402db70 <_calloc_r>
 402b02c:	103ff626 	beq	r2,zero,402b008 <__flash_rwdata_start+0xffff8734>
 402b030:	14000115 	stw	r16,4(r2)
 402b034:	14800215 	stw	r18,8(r2)
 402b038:	003fe606 	br	402afd4 <__flash_rwdata_start+0xffff8700>

0402b03c <_Bfree>:
 402b03c:	28000826 	beq	r5,zero,402b060 <_Bfree+0x24>
 402b040:	28c00117 	ldw	r3,4(r5)
 402b044:	20801317 	ldw	r2,76(r4)
 402b048:	18c7883a 	add	r3,r3,r3
 402b04c:	18c7883a 	add	r3,r3,r3
 402b050:	10c5883a 	add	r2,r2,r3
 402b054:	10c00017 	ldw	r3,0(r2)
 402b058:	28c00015 	stw	r3,0(r5)
 402b05c:	11400015 	stw	r5,0(r2)
 402b060:	f800283a 	ret

0402b064 <__multadd>:
 402b064:	defff704 	addi	sp,sp,-36
 402b068:	dc800215 	stw	r18,8(sp)
 402b06c:	2c800417 	ldw	r18,16(r5)
 402b070:	dd800615 	stw	r22,24(sp)
 402b074:	dd400515 	stw	r21,20(sp)
 402b078:	dd000415 	stw	r20,16(sp)
 402b07c:	dcc00315 	stw	r19,12(sp)
 402b080:	dc400115 	stw	r17,4(sp)
 402b084:	dc000015 	stw	r16,0(sp)
 402b088:	dfc00815 	stw	ra,32(sp)
 402b08c:	ddc00715 	stw	r23,28(sp)
 402b090:	2827883a 	mov	r19,r5
 402b094:	2029883a 	mov	r20,r4
 402b098:	3023883a 	mov	r17,r6
 402b09c:	3821883a 	mov	r16,r7
 402b0a0:	2d400504 	addi	r21,r5,20
 402b0a4:	002d883a 	mov	r22,zero
 402b0a8:	adc00017 	ldw	r23,0(r21)
 402b0ac:	880b883a 	mov	r5,r17
 402b0b0:	ad400104 	addi	r21,r21,4
 402b0b4:	b93fffcc 	andi	r4,r23,65535
 402b0b8:	402572c0 	call	402572c <__mulsi3>
 402b0bc:	b808d43a 	srli	r4,r23,16
 402b0c0:	880b883a 	mov	r5,r17
 402b0c4:	1421883a 	add	r16,r2,r16
 402b0c8:	402572c0 	call	402572c <__mulsi3>
 402b0cc:	800ed43a 	srli	r7,r16,16
 402b0d0:	80ffffcc 	andi	r3,r16,65535
 402b0d4:	b5800044 	addi	r22,r22,1
 402b0d8:	11c5883a 	add	r2,r2,r7
 402b0dc:	100e943a 	slli	r7,r2,16
 402b0e0:	1020d43a 	srli	r16,r2,16
 402b0e4:	38c7883a 	add	r3,r7,r3
 402b0e8:	a8ffff15 	stw	r3,-4(r21)
 402b0ec:	b4bfee16 	blt	r22,r18,402b0a8 <__flash_rwdata_start+0xffff87d4>
 402b0f0:	80000926 	beq	r16,zero,402b118 <__multadd+0xb4>
 402b0f4:	98800217 	ldw	r2,8(r19)
 402b0f8:	9080130e 	bge	r18,r2,402b148 <__multadd+0xe4>
 402b0fc:	90800144 	addi	r2,r18,5
 402b100:	1085883a 	add	r2,r2,r2
 402b104:	1085883a 	add	r2,r2,r2
 402b108:	9885883a 	add	r2,r19,r2
 402b10c:	14000015 	stw	r16,0(r2)
 402b110:	94800044 	addi	r18,r18,1
 402b114:	9c800415 	stw	r18,16(r19)
 402b118:	9805883a 	mov	r2,r19
 402b11c:	dfc00817 	ldw	ra,32(sp)
 402b120:	ddc00717 	ldw	r23,28(sp)
 402b124:	dd800617 	ldw	r22,24(sp)
 402b128:	dd400517 	ldw	r21,20(sp)
 402b12c:	dd000417 	ldw	r20,16(sp)
 402b130:	dcc00317 	ldw	r19,12(sp)
 402b134:	dc800217 	ldw	r18,8(sp)
 402b138:	dc400117 	ldw	r17,4(sp)
 402b13c:	dc000017 	ldw	r16,0(sp)
 402b140:	dec00904 	addi	sp,sp,36
 402b144:	f800283a 	ret
 402b148:	99400117 	ldw	r5,4(r19)
 402b14c:	a009883a 	mov	r4,r20
 402b150:	29400044 	addi	r5,r5,1
 402b154:	402af940 	call	402af94 <_Balloc>
 402b158:	99800417 	ldw	r6,16(r19)
 402b15c:	99400304 	addi	r5,r19,12
 402b160:	11000304 	addi	r4,r2,12
 402b164:	31800084 	addi	r6,r6,2
 402b168:	318d883a 	add	r6,r6,r6
 402b16c:	318d883a 	add	r6,r6,r6
 402b170:	1023883a 	mov	r17,r2
 402b174:	402ad240 	call	402ad24 <memcpy>
 402b178:	98000a26 	beq	r19,zero,402b1a4 <__multadd+0x140>
 402b17c:	98c00117 	ldw	r3,4(r19)
 402b180:	a0801317 	ldw	r2,76(r20)
 402b184:	18c7883a 	add	r3,r3,r3
 402b188:	18c7883a 	add	r3,r3,r3
 402b18c:	10c5883a 	add	r2,r2,r3
 402b190:	10c00017 	ldw	r3,0(r2)
 402b194:	98c00015 	stw	r3,0(r19)
 402b198:	14c00015 	stw	r19,0(r2)
 402b19c:	8827883a 	mov	r19,r17
 402b1a0:	003fd606 	br	402b0fc <__flash_rwdata_start+0xffff8828>
 402b1a4:	8827883a 	mov	r19,r17
 402b1a8:	003fd406 	br	402b0fc <__flash_rwdata_start+0xffff8828>

0402b1ac <__s2b>:
 402b1ac:	defff904 	addi	sp,sp,-28
 402b1b0:	dc400115 	stw	r17,4(sp)
 402b1b4:	dc000015 	stw	r16,0(sp)
 402b1b8:	2023883a 	mov	r17,r4
 402b1bc:	2821883a 	mov	r16,r5
 402b1c0:	39000204 	addi	r4,r7,8
 402b1c4:	01400244 	movi	r5,9
 402b1c8:	dcc00315 	stw	r19,12(sp)
 402b1cc:	dc800215 	stw	r18,8(sp)
 402b1d0:	dfc00615 	stw	ra,24(sp)
 402b1d4:	dd400515 	stw	r21,20(sp)
 402b1d8:	dd000415 	stw	r20,16(sp)
 402b1dc:	3825883a 	mov	r18,r7
 402b1e0:	3027883a 	mov	r19,r6
 402b1e4:	40255780 	call	4025578 <__divsi3>
 402b1e8:	00c00044 	movi	r3,1
 402b1ec:	000b883a 	mov	r5,zero
 402b1f0:	1880030e 	bge	r3,r2,402b200 <__s2b+0x54>
 402b1f4:	18c7883a 	add	r3,r3,r3
 402b1f8:	29400044 	addi	r5,r5,1
 402b1fc:	18bffd16 	blt	r3,r2,402b1f4 <__flash_rwdata_start+0xffff8920>
 402b200:	8809883a 	mov	r4,r17
 402b204:	402af940 	call	402af94 <_Balloc>
 402b208:	d8c00717 	ldw	r3,28(sp)
 402b20c:	10c00515 	stw	r3,20(r2)
 402b210:	00c00044 	movi	r3,1
 402b214:	10c00415 	stw	r3,16(r2)
 402b218:	00c00244 	movi	r3,9
 402b21c:	1cc0210e 	bge	r3,r19,402b2a4 <__s2b+0xf8>
 402b220:	80eb883a 	add	r21,r16,r3
 402b224:	a829883a 	mov	r20,r21
 402b228:	84e1883a 	add	r16,r16,r19
 402b22c:	a1c00007 	ldb	r7,0(r20)
 402b230:	01800284 	movi	r6,10
 402b234:	a5000044 	addi	r20,r20,1
 402b238:	100b883a 	mov	r5,r2
 402b23c:	39fff404 	addi	r7,r7,-48
 402b240:	8809883a 	mov	r4,r17
 402b244:	402b0640 	call	402b064 <__multadd>
 402b248:	a43ff81e 	bne	r20,r16,402b22c <__flash_rwdata_start+0xffff8958>
 402b24c:	ace1883a 	add	r16,r21,r19
 402b250:	843ffe04 	addi	r16,r16,-8
 402b254:	9c800a0e 	bge	r19,r18,402b280 <__s2b+0xd4>
 402b258:	94e5c83a 	sub	r18,r18,r19
 402b25c:	84a5883a 	add	r18,r16,r18
 402b260:	81c00007 	ldb	r7,0(r16)
 402b264:	01800284 	movi	r6,10
 402b268:	84000044 	addi	r16,r16,1
 402b26c:	100b883a 	mov	r5,r2
 402b270:	39fff404 	addi	r7,r7,-48
 402b274:	8809883a 	mov	r4,r17
 402b278:	402b0640 	call	402b064 <__multadd>
 402b27c:	84bff81e 	bne	r16,r18,402b260 <__flash_rwdata_start+0xffff898c>
 402b280:	dfc00617 	ldw	ra,24(sp)
 402b284:	dd400517 	ldw	r21,20(sp)
 402b288:	dd000417 	ldw	r20,16(sp)
 402b28c:	dcc00317 	ldw	r19,12(sp)
 402b290:	dc800217 	ldw	r18,8(sp)
 402b294:	dc400117 	ldw	r17,4(sp)
 402b298:	dc000017 	ldw	r16,0(sp)
 402b29c:	dec00704 	addi	sp,sp,28
 402b2a0:	f800283a 	ret
 402b2a4:	84000284 	addi	r16,r16,10
 402b2a8:	1827883a 	mov	r19,r3
 402b2ac:	003fe906 	br	402b254 <__flash_rwdata_start+0xffff8980>

0402b2b0 <__hi0bits>:
 402b2b0:	20bfffec 	andhi	r2,r4,65535
 402b2b4:	1000141e 	bne	r2,zero,402b308 <__hi0bits+0x58>
 402b2b8:	2008943a 	slli	r4,r4,16
 402b2bc:	00800404 	movi	r2,16
 402b2c0:	20ffc02c 	andhi	r3,r4,65280
 402b2c4:	1800021e 	bne	r3,zero,402b2d0 <__hi0bits+0x20>
 402b2c8:	2008923a 	slli	r4,r4,8
 402b2cc:	10800204 	addi	r2,r2,8
 402b2d0:	20fc002c 	andhi	r3,r4,61440
 402b2d4:	1800021e 	bne	r3,zero,402b2e0 <__hi0bits+0x30>
 402b2d8:	2008913a 	slli	r4,r4,4
 402b2dc:	10800104 	addi	r2,r2,4
 402b2e0:	20f0002c 	andhi	r3,r4,49152
 402b2e4:	1800031e 	bne	r3,zero,402b2f4 <__hi0bits+0x44>
 402b2e8:	2109883a 	add	r4,r4,r4
 402b2ec:	10800084 	addi	r2,r2,2
 402b2f0:	2109883a 	add	r4,r4,r4
 402b2f4:	20000316 	blt	r4,zero,402b304 <__hi0bits+0x54>
 402b2f8:	2110002c 	andhi	r4,r4,16384
 402b2fc:	2000041e 	bne	r4,zero,402b310 <__hi0bits+0x60>
 402b300:	00800804 	movi	r2,32
 402b304:	f800283a 	ret
 402b308:	0005883a 	mov	r2,zero
 402b30c:	003fec06 	br	402b2c0 <__flash_rwdata_start+0xffff89ec>
 402b310:	10800044 	addi	r2,r2,1
 402b314:	f800283a 	ret

0402b318 <__lo0bits>:
 402b318:	20c00017 	ldw	r3,0(r4)
 402b31c:	188001cc 	andi	r2,r3,7
 402b320:	10000826 	beq	r2,zero,402b344 <__lo0bits+0x2c>
 402b324:	1880004c 	andi	r2,r3,1
 402b328:	1000211e 	bne	r2,zero,402b3b0 <__lo0bits+0x98>
 402b32c:	1880008c 	andi	r2,r3,2
 402b330:	1000211e 	bne	r2,zero,402b3b8 <__lo0bits+0xa0>
 402b334:	1806d0ba 	srli	r3,r3,2
 402b338:	00800084 	movi	r2,2
 402b33c:	20c00015 	stw	r3,0(r4)
 402b340:	f800283a 	ret
 402b344:	18bfffcc 	andi	r2,r3,65535
 402b348:	10001326 	beq	r2,zero,402b398 <__lo0bits+0x80>
 402b34c:	0005883a 	mov	r2,zero
 402b350:	19403fcc 	andi	r5,r3,255
 402b354:	2800021e 	bne	r5,zero,402b360 <__lo0bits+0x48>
 402b358:	1806d23a 	srli	r3,r3,8
 402b35c:	10800204 	addi	r2,r2,8
 402b360:	194003cc 	andi	r5,r3,15
 402b364:	2800021e 	bne	r5,zero,402b370 <__lo0bits+0x58>
 402b368:	1806d13a 	srli	r3,r3,4
 402b36c:	10800104 	addi	r2,r2,4
 402b370:	194000cc 	andi	r5,r3,3
 402b374:	2800021e 	bne	r5,zero,402b380 <__lo0bits+0x68>
 402b378:	1806d0ba 	srli	r3,r3,2
 402b37c:	10800084 	addi	r2,r2,2
 402b380:	1940004c 	andi	r5,r3,1
 402b384:	2800081e 	bne	r5,zero,402b3a8 <__lo0bits+0x90>
 402b388:	1806d07a 	srli	r3,r3,1
 402b38c:	1800051e 	bne	r3,zero,402b3a4 <__lo0bits+0x8c>
 402b390:	00800804 	movi	r2,32
 402b394:	f800283a 	ret
 402b398:	1806d43a 	srli	r3,r3,16
 402b39c:	00800404 	movi	r2,16
 402b3a0:	003feb06 	br	402b350 <__flash_rwdata_start+0xffff8a7c>
 402b3a4:	10800044 	addi	r2,r2,1
 402b3a8:	20c00015 	stw	r3,0(r4)
 402b3ac:	f800283a 	ret
 402b3b0:	0005883a 	mov	r2,zero
 402b3b4:	f800283a 	ret
 402b3b8:	1806d07a 	srli	r3,r3,1
 402b3bc:	00800044 	movi	r2,1
 402b3c0:	20c00015 	stw	r3,0(r4)
 402b3c4:	f800283a 	ret

0402b3c8 <__i2b>:
 402b3c8:	defffd04 	addi	sp,sp,-12
 402b3cc:	dc000015 	stw	r16,0(sp)
 402b3d0:	04000044 	movi	r16,1
 402b3d4:	dc400115 	stw	r17,4(sp)
 402b3d8:	2823883a 	mov	r17,r5
 402b3dc:	800b883a 	mov	r5,r16
 402b3e0:	dfc00215 	stw	ra,8(sp)
 402b3e4:	402af940 	call	402af94 <_Balloc>
 402b3e8:	14400515 	stw	r17,20(r2)
 402b3ec:	14000415 	stw	r16,16(r2)
 402b3f0:	dfc00217 	ldw	ra,8(sp)
 402b3f4:	dc400117 	ldw	r17,4(sp)
 402b3f8:	dc000017 	ldw	r16,0(sp)
 402b3fc:	dec00304 	addi	sp,sp,12
 402b400:	f800283a 	ret

0402b404 <__multiply>:
 402b404:	deffef04 	addi	sp,sp,-68
 402b408:	dc400815 	stw	r17,32(sp)
 402b40c:	dc000715 	stw	r16,28(sp)
 402b410:	34400417 	ldw	r17,16(r6)
 402b414:	2c000417 	ldw	r16,16(r5)
 402b418:	dd800d15 	stw	r22,52(sp)
 402b41c:	dc800915 	stw	r18,36(sp)
 402b420:	dfc01015 	stw	ra,64(sp)
 402b424:	df000f15 	stw	fp,60(sp)
 402b428:	ddc00e15 	stw	r23,56(sp)
 402b42c:	dd400c15 	stw	r21,48(sp)
 402b430:	dd000b15 	stw	r20,44(sp)
 402b434:	dcc00a15 	stw	r19,40(sp)
 402b438:	2825883a 	mov	r18,r5
 402b43c:	302d883a 	mov	r22,r6
 402b440:	8440050e 	bge	r16,r17,402b458 <__multiply+0x54>
 402b444:	8007883a 	mov	r3,r16
 402b448:	3025883a 	mov	r18,r6
 402b44c:	8821883a 	mov	r16,r17
 402b450:	282d883a 	mov	r22,r5
 402b454:	1823883a 	mov	r17,r3
 402b458:	90800217 	ldw	r2,8(r18)
 402b45c:	8447883a 	add	r3,r16,r17
 402b460:	d8c00215 	stw	r3,8(sp)
 402b464:	91400117 	ldw	r5,4(r18)
 402b468:	10c0010e 	bge	r2,r3,402b470 <__multiply+0x6c>
 402b46c:	29400044 	addi	r5,r5,1
 402b470:	402af940 	call	402af94 <_Balloc>
 402b474:	d8c00217 	ldw	r3,8(sp)
 402b478:	d8800615 	stw	r2,24(sp)
 402b47c:	18eb883a 	add	r21,r3,r3
 402b480:	ad6b883a 	add	r21,r21,r21
 402b484:	10c00504 	addi	r3,r2,20
 402b488:	1d6b883a 	add	r21,r3,r21
 402b48c:	d8c00115 	stw	r3,4(sp)
 402b490:	dd400315 	stw	r21,12(sp)
 402b494:	1805883a 	mov	r2,r3
 402b498:	1d40042e 	bgeu	r3,r21,402b4ac <__multiply+0xa8>
 402b49c:	d8c00317 	ldw	r3,12(sp)
 402b4a0:	10000015 	stw	zero,0(r2)
 402b4a4:	10800104 	addi	r2,r2,4
 402b4a8:	10fffc36 	bltu	r2,r3,402b49c <__flash_rwdata_start+0xffff8bc8>
 402b4ac:	8c63883a 	add	r17,r17,r17
 402b4b0:	b5800504 	addi	r22,r22,20
 402b4b4:	8c63883a 	add	r17,r17,r17
 402b4b8:	94800504 	addi	r18,r18,20
 402b4bc:	8421883a 	add	r16,r16,r16
 402b4c0:	b463883a 	add	r17,r22,r17
 402b4c4:	8421883a 	add	r16,r16,r16
 402b4c8:	dd800015 	stw	r22,0(sp)
 402b4cc:	dc800415 	stw	r18,16(sp)
 402b4d0:	dc400515 	stw	r17,20(sp)
 402b4d4:	9429883a 	add	r20,r18,r16
 402b4d8:	b4404f2e 	bgeu	r22,r17,402b618 <__multiply+0x214>
 402b4dc:	d8c00017 	ldw	r3,0(sp)
 402b4e0:	1c800017 	ldw	r18,0(r3)
 402b4e4:	947fffcc 	andi	r17,r18,65535
 402b4e8:	88001e26 	beq	r17,zero,402b564 <__multiply+0x160>
 402b4ec:	dd800117 	ldw	r22,4(sp)
 402b4f0:	dd400417 	ldw	r21,16(sp)
 402b4f4:	0027883a 	mov	r19,zero
 402b4f8:	ac800017 	ldw	r18,0(r21)
 402b4fc:	b4000017 	ldw	r16,0(r22)
 402b500:	880b883a 	mov	r5,r17
 402b504:	913fffcc 	andi	r4,r18,65535
 402b508:	402572c0 	call	402572c <__mulsi3>
 402b50c:	9008d43a 	srli	r4,r18,16
 402b510:	84bfffcc 	andi	r18,r16,65535
 402b514:	1485883a 	add	r2,r2,r18
 402b518:	14e5883a 	add	r18,r2,r19
 402b51c:	8020d43a 	srli	r16,r16,16
 402b520:	9026d43a 	srli	r19,r18,16
 402b524:	880b883a 	mov	r5,r17
 402b528:	402572c0 	call	402572c <__mulsi3>
 402b52c:	1405883a 	add	r2,r2,r16
 402b530:	14e1883a 	add	r16,r2,r19
 402b534:	90ffffcc 	andi	r3,r18,65535
 402b538:	8024943a 	slli	r18,r16,16
 402b53c:	ad400104 	addi	r21,r21,4
 402b540:	b005883a 	mov	r2,r22
 402b544:	90c6b03a 	or	r3,r18,r3
 402b548:	b0c00015 	stw	r3,0(r22)
 402b54c:	8026d43a 	srli	r19,r16,16
 402b550:	b5800104 	addi	r22,r22,4
 402b554:	ad3fe836 	bltu	r21,r20,402b4f8 <__flash_rwdata_start+0xffff8c24>
 402b558:	d8c00017 	ldw	r3,0(sp)
 402b55c:	14c00115 	stw	r19,4(r2)
 402b560:	1c800017 	ldw	r18,0(r3)
 402b564:	9024d43a 	srli	r18,r18,16
 402b568:	90002226 	beq	r18,zero,402b5f4 <__multiply+0x1f0>
 402b56c:	d8c00117 	ldw	r3,4(sp)
 402b570:	dd800417 	ldw	r22,16(sp)
 402b574:	002f883a 	mov	r23,zero
 402b578:	1f000017 	ldw	fp,0(r3)
 402b57c:	1823883a 	mov	r17,r3
 402b580:	182b883a 	mov	r21,r3
 402b584:	e021883a 	mov	r16,fp
 402b588:	00000106 	br	402b590 <__multiply+0x18c>
 402b58c:	982b883a 	mov	r21,r19
 402b590:	b100000b 	ldhu	r4,0(r22)
 402b594:	8020d43a 	srli	r16,r16,16
 402b598:	900b883a 	mov	r5,r18
 402b59c:	402572c0 	call	402572c <__mulsi3>
 402b5a0:	1405883a 	add	r2,r2,r16
 402b5a4:	15ef883a 	add	r23,r2,r23
 402b5a8:	b804943a 	slli	r2,r23,16
 402b5ac:	e0ffffcc 	andi	r3,fp,65535
 402b5b0:	8c400104 	addi	r17,r17,4
 402b5b4:	10c6b03a 	or	r3,r2,r3
 402b5b8:	88ffff15 	stw	r3,-4(r17)
 402b5bc:	b5800104 	addi	r22,r22,4
 402b5c0:	b13fff17 	ldw	r4,-4(r22)
 402b5c4:	acc00104 	addi	r19,r21,4
 402b5c8:	900b883a 	mov	r5,r18
 402b5cc:	2008d43a 	srli	r4,r4,16
 402b5d0:	9c000017 	ldw	r16,0(r19)
 402b5d4:	402572c0 	call	402572c <__mulsi3>
 402b5d8:	b806d43a 	srli	r3,r23,16
 402b5dc:	813fffcc 	andi	r4,r16,65535
 402b5e0:	1105883a 	add	r2,r2,r4
 402b5e4:	10f9883a 	add	fp,r2,r3
 402b5e8:	e02ed43a 	srli	r23,fp,16
 402b5ec:	b53fe736 	bltu	r22,r20,402b58c <__flash_rwdata_start+0xffff8cb8>
 402b5f0:	af000115 	stw	fp,4(r21)
 402b5f4:	d8c00017 	ldw	r3,0(sp)
 402b5f8:	d9000517 	ldw	r4,20(sp)
 402b5fc:	18c00104 	addi	r3,r3,4
 402b600:	d8c00015 	stw	r3,0(sp)
 402b604:	d8c00117 	ldw	r3,4(sp)
 402b608:	18c00104 	addi	r3,r3,4
 402b60c:	d8c00115 	stw	r3,4(sp)
 402b610:	d8c00017 	ldw	r3,0(sp)
 402b614:	193fb136 	bltu	r3,r4,402b4dc <__flash_rwdata_start+0xffff8c08>
 402b618:	d8c00217 	ldw	r3,8(sp)
 402b61c:	00c00c0e 	bge	zero,r3,402b650 <__multiply+0x24c>
 402b620:	d8c00317 	ldw	r3,12(sp)
 402b624:	18bfff17 	ldw	r2,-4(r3)
 402b628:	1d7fff04 	addi	r21,r3,-4
 402b62c:	10000326 	beq	r2,zero,402b63c <__multiply+0x238>
 402b630:	00000706 	br	402b650 <__multiply+0x24c>
 402b634:	a8800017 	ldw	r2,0(r21)
 402b638:	1000051e 	bne	r2,zero,402b650 <__multiply+0x24c>
 402b63c:	d8c00217 	ldw	r3,8(sp)
 402b640:	ad7fff04 	addi	r21,r21,-4
 402b644:	18ffffc4 	addi	r3,r3,-1
 402b648:	d8c00215 	stw	r3,8(sp)
 402b64c:	183ff91e 	bne	r3,zero,402b634 <__flash_rwdata_start+0xffff8d60>
 402b650:	d8c00617 	ldw	r3,24(sp)
 402b654:	d9000217 	ldw	r4,8(sp)
 402b658:	1805883a 	mov	r2,r3
 402b65c:	19000415 	stw	r4,16(r3)
 402b660:	dfc01017 	ldw	ra,64(sp)
 402b664:	df000f17 	ldw	fp,60(sp)
 402b668:	ddc00e17 	ldw	r23,56(sp)
 402b66c:	dd800d17 	ldw	r22,52(sp)
 402b670:	dd400c17 	ldw	r21,48(sp)
 402b674:	dd000b17 	ldw	r20,44(sp)
 402b678:	dcc00a17 	ldw	r19,40(sp)
 402b67c:	dc800917 	ldw	r18,36(sp)
 402b680:	dc400817 	ldw	r17,32(sp)
 402b684:	dc000717 	ldw	r16,28(sp)
 402b688:	dec01104 	addi	sp,sp,68
 402b68c:	f800283a 	ret

0402b690 <__pow5mult>:
 402b690:	defffa04 	addi	sp,sp,-24
 402b694:	dcc00315 	stw	r19,12(sp)
 402b698:	dc000015 	stw	r16,0(sp)
 402b69c:	dfc00515 	stw	ra,20(sp)
 402b6a0:	dd000415 	stw	r20,16(sp)
 402b6a4:	dc800215 	stw	r18,8(sp)
 402b6a8:	dc400115 	stw	r17,4(sp)
 402b6ac:	308000cc 	andi	r2,r6,3
 402b6b0:	3021883a 	mov	r16,r6
 402b6b4:	2027883a 	mov	r19,r4
 402b6b8:	10002f1e 	bne	r2,zero,402b778 <__pow5mult+0xe8>
 402b6bc:	2825883a 	mov	r18,r5
 402b6c0:	8021d0ba 	srai	r16,r16,2
 402b6c4:	80001a26 	beq	r16,zero,402b730 <__pow5mult+0xa0>
 402b6c8:	9c401217 	ldw	r17,72(r19)
 402b6cc:	8800061e 	bne	r17,zero,402b6e8 <__pow5mult+0x58>
 402b6d0:	00003406 	br	402b7a4 <__pow5mult+0x114>
 402b6d4:	8021d07a 	srai	r16,r16,1
 402b6d8:	80001526 	beq	r16,zero,402b730 <__pow5mult+0xa0>
 402b6dc:	88800017 	ldw	r2,0(r17)
 402b6e0:	10001c26 	beq	r2,zero,402b754 <__pow5mult+0xc4>
 402b6e4:	1023883a 	mov	r17,r2
 402b6e8:	8080004c 	andi	r2,r16,1
 402b6ec:	103ff926 	beq	r2,zero,402b6d4 <__flash_rwdata_start+0xffff8e00>
 402b6f0:	880d883a 	mov	r6,r17
 402b6f4:	900b883a 	mov	r5,r18
 402b6f8:	9809883a 	mov	r4,r19
 402b6fc:	402b4040 	call	402b404 <__multiply>
 402b700:	90001b26 	beq	r18,zero,402b770 <__pow5mult+0xe0>
 402b704:	91000117 	ldw	r4,4(r18)
 402b708:	98c01317 	ldw	r3,76(r19)
 402b70c:	8021d07a 	srai	r16,r16,1
 402b710:	2109883a 	add	r4,r4,r4
 402b714:	2109883a 	add	r4,r4,r4
 402b718:	1907883a 	add	r3,r3,r4
 402b71c:	19000017 	ldw	r4,0(r3)
 402b720:	91000015 	stw	r4,0(r18)
 402b724:	1c800015 	stw	r18,0(r3)
 402b728:	1025883a 	mov	r18,r2
 402b72c:	803feb1e 	bne	r16,zero,402b6dc <__flash_rwdata_start+0xffff8e08>
 402b730:	9005883a 	mov	r2,r18
 402b734:	dfc00517 	ldw	ra,20(sp)
 402b738:	dd000417 	ldw	r20,16(sp)
 402b73c:	dcc00317 	ldw	r19,12(sp)
 402b740:	dc800217 	ldw	r18,8(sp)
 402b744:	dc400117 	ldw	r17,4(sp)
 402b748:	dc000017 	ldw	r16,0(sp)
 402b74c:	dec00604 	addi	sp,sp,24
 402b750:	f800283a 	ret
 402b754:	880d883a 	mov	r6,r17
 402b758:	880b883a 	mov	r5,r17
 402b75c:	9809883a 	mov	r4,r19
 402b760:	402b4040 	call	402b404 <__multiply>
 402b764:	88800015 	stw	r2,0(r17)
 402b768:	10000015 	stw	zero,0(r2)
 402b76c:	003fdd06 	br	402b6e4 <__flash_rwdata_start+0xffff8e10>
 402b770:	1025883a 	mov	r18,r2
 402b774:	003fd706 	br	402b6d4 <__flash_rwdata_start+0xffff8e00>
 402b778:	10bfffc4 	addi	r2,r2,-1
 402b77c:	1085883a 	add	r2,r2,r2
 402b780:	00c00034 	movhi	r3,0
 402b784:	18c06f04 	addi	r3,r3,444
 402b788:	1085883a 	add	r2,r2,r2
 402b78c:	1885883a 	add	r2,r3,r2
 402b790:	11800017 	ldw	r6,0(r2)
 402b794:	000f883a 	mov	r7,zero
 402b798:	402b0640 	call	402b064 <__multadd>
 402b79c:	1025883a 	mov	r18,r2
 402b7a0:	003fc706 	br	402b6c0 <__flash_rwdata_start+0xffff8dec>
 402b7a4:	05000044 	movi	r20,1
 402b7a8:	a00b883a 	mov	r5,r20
 402b7ac:	9809883a 	mov	r4,r19
 402b7b0:	402af940 	call	402af94 <_Balloc>
 402b7b4:	1023883a 	mov	r17,r2
 402b7b8:	00809c44 	movi	r2,625
 402b7bc:	88800515 	stw	r2,20(r17)
 402b7c0:	8d000415 	stw	r20,16(r17)
 402b7c4:	9c401215 	stw	r17,72(r19)
 402b7c8:	88000015 	stw	zero,0(r17)
 402b7cc:	003fc606 	br	402b6e8 <__flash_rwdata_start+0xffff8e14>

0402b7d0 <__lshift>:
 402b7d0:	defff904 	addi	sp,sp,-28
 402b7d4:	dd400515 	stw	r21,20(sp)
 402b7d8:	dcc00315 	stw	r19,12(sp)
 402b7dc:	302bd17a 	srai	r21,r6,5
 402b7e0:	2cc00417 	ldw	r19,16(r5)
 402b7e4:	28800217 	ldw	r2,8(r5)
 402b7e8:	dd000415 	stw	r20,16(sp)
 402b7ec:	ace7883a 	add	r19,r21,r19
 402b7f0:	dc800215 	stw	r18,8(sp)
 402b7f4:	dc400115 	stw	r17,4(sp)
 402b7f8:	dc000015 	stw	r16,0(sp)
 402b7fc:	dfc00615 	stw	ra,24(sp)
 402b800:	9c000044 	addi	r16,r19,1
 402b804:	2823883a 	mov	r17,r5
 402b808:	3029883a 	mov	r20,r6
 402b80c:	2025883a 	mov	r18,r4
 402b810:	29400117 	ldw	r5,4(r5)
 402b814:	1400030e 	bge	r2,r16,402b824 <__lshift+0x54>
 402b818:	1085883a 	add	r2,r2,r2
 402b81c:	29400044 	addi	r5,r5,1
 402b820:	143ffd16 	blt	r2,r16,402b818 <__flash_rwdata_start+0xffff8f44>
 402b824:	9009883a 	mov	r4,r18
 402b828:	402af940 	call	402af94 <_Balloc>
 402b82c:	10c00504 	addi	r3,r2,20
 402b830:	0540070e 	bge	zero,r21,402b850 <__lshift+0x80>
 402b834:	ad6b883a 	add	r21,r21,r21
 402b838:	ad6b883a 	add	r21,r21,r21
 402b83c:	1809883a 	mov	r4,r3
 402b840:	1d47883a 	add	r3,r3,r21
 402b844:	20000015 	stw	zero,0(r4)
 402b848:	21000104 	addi	r4,r4,4
 402b84c:	193ffd1e 	bne	r3,r4,402b844 <__flash_rwdata_start+0xffff8f70>
 402b850:	8a000417 	ldw	r8,16(r17)
 402b854:	89000504 	addi	r4,r17,20
 402b858:	a18007cc 	andi	r6,r20,31
 402b85c:	4211883a 	add	r8,r8,r8
 402b860:	4211883a 	add	r8,r8,r8
 402b864:	2211883a 	add	r8,r4,r8
 402b868:	30002326 	beq	r6,zero,402b8f8 <__lshift+0x128>
 402b86c:	02400804 	movi	r9,32
 402b870:	4993c83a 	sub	r9,r9,r6
 402b874:	000b883a 	mov	r5,zero
 402b878:	21c00017 	ldw	r7,0(r4)
 402b87c:	1815883a 	mov	r10,r3
 402b880:	18c00104 	addi	r3,r3,4
 402b884:	398e983a 	sll	r7,r7,r6
 402b888:	21000104 	addi	r4,r4,4
 402b88c:	394ab03a 	or	r5,r7,r5
 402b890:	197fff15 	stw	r5,-4(r3)
 402b894:	217fff17 	ldw	r5,-4(r4)
 402b898:	2a4ad83a 	srl	r5,r5,r9
 402b89c:	223ff636 	bltu	r4,r8,402b878 <__flash_rwdata_start+0xffff8fa4>
 402b8a0:	51400115 	stw	r5,4(r10)
 402b8a4:	28001a1e 	bne	r5,zero,402b910 <__lshift+0x140>
 402b8a8:	843fffc4 	addi	r16,r16,-1
 402b8ac:	14000415 	stw	r16,16(r2)
 402b8b0:	88000826 	beq	r17,zero,402b8d4 <__lshift+0x104>
 402b8b4:	89000117 	ldw	r4,4(r17)
 402b8b8:	90c01317 	ldw	r3,76(r18)
 402b8bc:	2109883a 	add	r4,r4,r4
 402b8c0:	2109883a 	add	r4,r4,r4
 402b8c4:	1907883a 	add	r3,r3,r4
 402b8c8:	19000017 	ldw	r4,0(r3)
 402b8cc:	89000015 	stw	r4,0(r17)
 402b8d0:	1c400015 	stw	r17,0(r3)
 402b8d4:	dfc00617 	ldw	ra,24(sp)
 402b8d8:	dd400517 	ldw	r21,20(sp)
 402b8dc:	dd000417 	ldw	r20,16(sp)
 402b8e0:	dcc00317 	ldw	r19,12(sp)
 402b8e4:	dc800217 	ldw	r18,8(sp)
 402b8e8:	dc400117 	ldw	r17,4(sp)
 402b8ec:	dc000017 	ldw	r16,0(sp)
 402b8f0:	dec00704 	addi	sp,sp,28
 402b8f4:	f800283a 	ret
 402b8f8:	21400017 	ldw	r5,0(r4)
 402b8fc:	18c00104 	addi	r3,r3,4
 402b900:	21000104 	addi	r4,r4,4
 402b904:	197fff15 	stw	r5,-4(r3)
 402b908:	223ffb36 	bltu	r4,r8,402b8f8 <__flash_rwdata_start+0xffff9024>
 402b90c:	003fe606 	br	402b8a8 <__flash_rwdata_start+0xffff8fd4>
 402b910:	9c000084 	addi	r16,r19,2
 402b914:	003fe406 	br	402b8a8 <__flash_rwdata_start+0xffff8fd4>

0402b918 <__mcmp>:
 402b918:	20800417 	ldw	r2,16(r4)
 402b91c:	28c00417 	ldw	r3,16(r5)
 402b920:	10c5c83a 	sub	r2,r2,r3
 402b924:	1000111e 	bne	r2,zero,402b96c <__mcmp+0x54>
 402b928:	18c7883a 	add	r3,r3,r3
 402b92c:	18c7883a 	add	r3,r3,r3
 402b930:	21000504 	addi	r4,r4,20
 402b934:	29400504 	addi	r5,r5,20
 402b938:	20c5883a 	add	r2,r4,r3
 402b93c:	28cb883a 	add	r5,r5,r3
 402b940:	00000106 	br	402b948 <__mcmp+0x30>
 402b944:	20800a2e 	bgeu	r4,r2,402b970 <__mcmp+0x58>
 402b948:	10bfff04 	addi	r2,r2,-4
 402b94c:	297fff04 	addi	r5,r5,-4
 402b950:	11800017 	ldw	r6,0(r2)
 402b954:	28c00017 	ldw	r3,0(r5)
 402b958:	30fffa26 	beq	r6,r3,402b944 <__flash_rwdata_start+0xffff9070>
 402b95c:	30c00236 	bltu	r6,r3,402b968 <__mcmp+0x50>
 402b960:	00800044 	movi	r2,1
 402b964:	f800283a 	ret
 402b968:	00bfffc4 	movi	r2,-1
 402b96c:	f800283a 	ret
 402b970:	0005883a 	mov	r2,zero
 402b974:	f800283a 	ret

0402b978 <__mdiff>:
 402b978:	28c00417 	ldw	r3,16(r5)
 402b97c:	30800417 	ldw	r2,16(r6)
 402b980:	defffa04 	addi	sp,sp,-24
 402b984:	dcc00315 	stw	r19,12(sp)
 402b988:	dc800215 	stw	r18,8(sp)
 402b98c:	dfc00515 	stw	ra,20(sp)
 402b990:	dd000415 	stw	r20,16(sp)
 402b994:	dc400115 	stw	r17,4(sp)
 402b998:	dc000015 	stw	r16,0(sp)
 402b99c:	1887c83a 	sub	r3,r3,r2
 402b9a0:	2825883a 	mov	r18,r5
 402b9a4:	3027883a 	mov	r19,r6
 402b9a8:	1800141e 	bne	r3,zero,402b9fc <__mdiff+0x84>
 402b9ac:	1085883a 	add	r2,r2,r2
 402b9b0:	1085883a 	add	r2,r2,r2
 402b9b4:	2a000504 	addi	r8,r5,20
 402b9b8:	34000504 	addi	r16,r6,20
 402b9bc:	4087883a 	add	r3,r8,r2
 402b9c0:	8085883a 	add	r2,r16,r2
 402b9c4:	00000106 	br	402b9cc <__mdiff+0x54>
 402b9c8:	40c0592e 	bgeu	r8,r3,402bb30 <__mdiff+0x1b8>
 402b9cc:	18ffff04 	addi	r3,r3,-4
 402b9d0:	10bfff04 	addi	r2,r2,-4
 402b9d4:	19c00017 	ldw	r7,0(r3)
 402b9d8:	11400017 	ldw	r5,0(r2)
 402b9dc:	397ffa26 	beq	r7,r5,402b9c8 <__flash_rwdata_start+0xffff90f4>
 402b9e0:	3940592e 	bgeu	r7,r5,402bb48 <__mdiff+0x1d0>
 402b9e4:	9005883a 	mov	r2,r18
 402b9e8:	4023883a 	mov	r17,r8
 402b9ec:	9825883a 	mov	r18,r19
 402b9f0:	05000044 	movi	r20,1
 402b9f4:	1027883a 	mov	r19,r2
 402b9f8:	00000406 	br	402ba0c <__mdiff+0x94>
 402b9fc:	18005616 	blt	r3,zero,402bb58 <__mdiff+0x1e0>
 402ba00:	34400504 	addi	r17,r6,20
 402ba04:	2c000504 	addi	r16,r5,20
 402ba08:	0029883a 	mov	r20,zero
 402ba0c:	91400117 	ldw	r5,4(r18)
 402ba10:	402af940 	call	402af94 <_Balloc>
 402ba14:	92400417 	ldw	r9,16(r18)
 402ba18:	9b000417 	ldw	r12,16(r19)
 402ba1c:	12c00504 	addi	r11,r2,20
 402ba20:	4a51883a 	add	r8,r9,r9
 402ba24:	6319883a 	add	r12,r12,r12
 402ba28:	4211883a 	add	r8,r8,r8
 402ba2c:	6319883a 	add	r12,r12,r12
 402ba30:	15000315 	stw	r20,12(r2)
 402ba34:	8211883a 	add	r8,r16,r8
 402ba38:	8b19883a 	add	r12,r17,r12
 402ba3c:	0007883a 	mov	r3,zero
 402ba40:	81400017 	ldw	r5,0(r16)
 402ba44:	89c00017 	ldw	r7,0(r17)
 402ba48:	59800104 	addi	r6,r11,4
 402ba4c:	293fffcc 	andi	r4,r5,65535
 402ba50:	20c7883a 	add	r3,r4,r3
 402ba54:	393fffcc 	andi	r4,r7,65535
 402ba58:	1909c83a 	sub	r4,r3,r4
 402ba5c:	280ad43a 	srli	r5,r5,16
 402ba60:	380ed43a 	srli	r7,r7,16
 402ba64:	2007d43a 	srai	r3,r4,16
 402ba68:	213fffcc 	andi	r4,r4,65535
 402ba6c:	29cbc83a 	sub	r5,r5,r7
 402ba70:	28c7883a 	add	r3,r5,r3
 402ba74:	180a943a 	slli	r5,r3,16
 402ba78:	8c400104 	addi	r17,r17,4
 402ba7c:	84000104 	addi	r16,r16,4
 402ba80:	2908b03a 	or	r4,r5,r4
 402ba84:	59000015 	stw	r4,0(r11)
 402ba88:	1807d43a 	srai	r3,r3,16
 402ba8c:	3015883a 	mov	r10,r6
 402ba90:	3017883a 	mov	r11,r6
 402ba94:	8b3fea36 	bltu	r17,r12,402ba40 <__flash_rwdata_start+0xffff916c>
 402ba98:	8200162e 	bgeu	r16,r8,402baf4 <__mdiff+0x17c>
 402ba9c:	8017883a 	mov	r11,r16
 402baa0:	59400017 	ldw	r5,0(r11)
 402baa4:	31800104 	addi	r6,r6,4
 402baa8:	5ac00104 	addi	r11,r11,4
 402baac:	293fffcc 	andi	r4,r5,65535
 402bab0:	20c7883a 	add	r3,r4,r3
 402bab4:	280ed43a 	srli	r7,r5,16
 402bab8:	180bd43a 	srai	r5,r3,16
 402babc:	193fffcc 	andi	r4,r3,65535
 402bac0:	3947883a 	add	r3,r7,r5
 402bac4:	180a943a 	slli	r5,r3,16
 402bac8:	1807d43a 	srai	r3,r3,16
 402bacc:	2908b03a 	or	r4,r5,r4
 402bad0:	313fff15 	stw	r4,-4(r6)
 402bad4:	5a3ff236 	bltu	r11,r8,402baa0 <__flash_rwdata_start+0xffff91cc>
 402bad8:	0406303a 	nor	r3,zero,r16
 402badc:	1a07883a 	add	r3,r3,r8
 402bae0:	1806d0ba 	srli	r3,r3,2
 402bae4:	18c00044 	addi	r3,r3,1
 402bae8:	18c7883a 	add	r3,r3,r3
 402baec:	18c7883a 	add	r3,r3,r3
 402baf0:	50d5883a 	add	r10,r10,r3
 402baf4:	50ffff04 	addi	r3,r10,-4
 402baf8:	2000041e 	bne	r4,zero,402bb0c <__mdiff+0x194>
 402bafc:	18ffff04 	addi	r3,r3,-4
 402bb00:	19000017 	ldw	r4,0(r3)
 402bb04:	4a7fffc4 	addi	r9,r9,-1
 402bb08:	203ffc26 	beq	r4,zero,402bafc <__flash_rwdata_start+0xffff9228>
 402bb0c:	12400415 	stw	r9,16(r2)
 402bb10:	dfc00517 	ldw	ra,20(sp)
 402bb14:	dd000417 	ldw	r20,16(sp)
 402bb18:	dcc00317 	ldw	r19,12(sp)
 402bb1c:	dc800217 	ldw	r18,8(sp)
 402bb20:	dc400117 	ldw	r17,4(sp)
 402bb24:	dc000017 	ldw	r16,0(sp)
 402bb28:	dec00604 	addi	sp,sp,24
 402bb2c:	f800283a 	ret
 402bb30:	000b883a 	mov	r5,zero
 402bb34:	402af940 	call	402af94 <_Balloc>
 402bb38:	00c00044 	movi	r3,1
 402bb3c:	10c00415 	stw	r3,16(r2)
 402bb40:	10000515 	stw	zero,20(r2)
 402bb44:	003ff206 	br	402bb10 <__flash_rwdata_start+0xffff923c>
 402bb48:	8023883a 	mov	r17,r16
 402bb4c:	0029883a 	mov	r20,zero
 402bb50:	4021883a 	mov	r16,r8
 402bb54:	003fad06 	br	402ba0c <__flash_rwdata_start+0xffff9138>
 402bb58:	9005883a 	mov	r2,r18
 402bb5c:	94400504 	addi	r17,r18,20
 402bb60:	9c000504 	addi	r16,r19,20
 402bb64:	9825883a 	mov	r18,r19
 402bb68:	05000044 	movi	r20,1
 402bb6c:	1027883a 	mov	r19,r2
 402bb70:	003fa606 	br	402ba0c <__flash_rwdata_start+0xffff9138>

0402bb74 <__ulp>:
 402bb74:	295ffc2c 	andhi	r5,r5,32752
 402bb78:	00bf3034 	movhi	r2,64704
 402bb7c:	2887883a 	add	r3,r5,r2
 402bb80:	00c0020e 	bge	zero,r3,402bb8c <__ulp+0x18>
 402bb84:	0005883a 	mov	r2,zero
 402bb88:	f800283a 	ret
 402bb8c:	00c7c83a 	sub	r3,zero,r3
 402bb90:	1807d53a 	srai	r3,r3,20
 402bb94:	008004c4 	movi	r2,19
 402bb98:	10c00b0e 	bge	r2,r3,402bbc8 <__ulp+0x54>
 402bb9c:	18bffb04 	addi	r2,r3,-20
 402bba0:	01000784 	movi	r4,30
 402bba4:	0007883a 	mov	r3,zero
 402bba8:	20800516 	blt	r4,r2,402bbc0 <__ulp+0x4c>
 402bbac:	010007c4 	movi	r4,31
 402bbb0:	2089c83a 	sub	r4,r4,r2
 402bbb4:	00800044 	movi	r2,1
 402bbb8:	1104983a 	sll	r2,r2,r4
 402bbbc:	f800283a 	ret
 402bbc0:	00800044 	movi	r2,1
 402bbc4:	f800283a 	ret
 402bbc8:	01400234 	movhi	r5,8
 402bbcc:	28c7d83a 	sra	r3,r5,r3
 402bbd0:	0005883a 	mov	r2,zero
 402bbd4:	f800283a 	ret

0402bbd8 <__b2d>:
 402bbd8:	defffa04 	addi	sp,sp,-24
 402bbdc:	dc000015 	stw	r16,0(sp)
 402bbe0:	24000417 	ldw	r16,16(r4)
 402bbe4:	dc400115 	stw	r17,4(sp)
 402bbe8:	24400504 	addi	r17,r4,20
 402bbec:	8421883a 	add	r16,r16,r16
 402bbf0:	8421883a 	add	r16,r16,r16
 402bbf4:	8c21883a 	add	r16,r17,r16
 402bbf8:	dc800215 	stw	r18,8(sp)
 402bbfc:	84bfff17 	ldw	r18,-4(r16)
 402bc00:	dd000415 	stw	r20,16(sp)
 402bc04:	dcc00315 	stw	r19,12(sp)
 402bc08:	9009883a 	mov	r4,r18
 402bc0c:	2829883a 	mov	r20,r5
 402bc10:	dfc00515 	stw	ra,20(sp)
 402bc14:	402b2b00 	call	402b2b0 <__hi0bits>
 402bc18:	00c00804 	movi	r3,32
 402bc1c:	1889c83a 	sub	r4,r3,r2
 402bc20:	a1000015 	stw	r4,0(r20)
 402bc24:	01000284 	movi	r4,10
 402bc28:	84ffff04 	addi	r19,r16,-4
 402bc2c:	20801216 	blt	r4,r2,402bc78 <__b2d+0xa0>
 402bc30:	018002c4 	movi	r6,11
 402bc34:	308dc83a 	sub	r6,r6,r2
 402bc38:	9186d83a 	srl	r3,r18,r6
 402bc3c:	18cffc34 	orhi	r3,r3,16368
 402bc40:	8cc0212e 	bgeu	r17,r19,402bcc8 <__b2d+0xf0>
 402bc44:	813ffe17 	ldw	r4,-8(r16)
 402bc48:	218cd83a 	srl	r6,r4,r6
 402bc4c:	10800544 	addi	r2,r2,21
 402bc50:	9084983a 	sll	r2,r18,r2
 402bc54:	1184b03a 	or	r2,r2,r6
 402bc58:	dfc00517 	ldw	ra,20(sp)
 402bc5c:	dd000417 	ldw	r20,16(sp)
 402bc60:	dcc00317 	ldw	r19,12(sp)
 402bc64:	dc800217 	ldw	r18,8(sp)
 402bc68:	dc400117 	ldw	r17,4(sp)
 402bc6c:	dc000017 	ldw	r16,0(sp)
 402bc70:	dec00604 	addi	sp,sp,24
 402bc74:	f800283a 	ret
 402bc78:	8cc00f2e 	bgeu	r17,r19,402bcb8 <__b2d+0xe0>
 402bc7c:	117ffd44 	addi	r5,r2,-11
 402bc80:	80bffe17 	ldw	r2,-8(r16)
 402bc84:	28000e26 	beq	r5,zero,402bcc0 <__b2d+0xe8>
 402bc88:	1949c83a 	sub	r4,r3,r5
 402bc8c:	9164983a 	sll	r18,r18,r5
 402bc90:	1106d83a 	srl	r3,r2,r4
 402bc94:	81bffe04 	addi	r6,r16,-8
 402bc98:	948ffc34 	orhi	r18,r18,16368
 402bc9c:	90c6b03a 	or	r3,r18,r3
 402bca0:	89800e2e 	bgeu	r17,r6,402bcdc <__b2d+0x104>
 402bca4:	81bffd17 	ldw	r6,-12(r16)
 402bca8:	1144983a 	sll	r2,r2,r5
 402bcac:	310ad83a 	srl	r5,r6,r4
 402bcb0:	2884b03a 	or	r2,r5,r2
 402bcb4:	003fe806 	br	402bc58 <__flash_rwdata_start+0xffff9384>
 402bcb8:	10bffd44 	addi	r2,r2,-11
 402bcbc:	1000041e 	bne	r2,zero,402bcd0 <__b2d+0xf8>
 402bcc0:	90cffc34 	orhi	r3,r18,16368
 402bcc4:	003fe406 	br	402bc58 <__flash_rwdata_start+0xffff9384>
 402bcc8:	000d883a 	mov	r6,zero
 402bccc:	003fdf06 	br	402bc4c <__flash_rwdata_start+0xffff9378>
 402bcd0:	90a4983a 	sll	r18,r18,r2
 402bcd4:	0005883a 	mov	r2,zero
 402bcd8:	003ff906 	br	402bcc0 <__flash_rwdata_start+0xffff93ec>
 402bcdc:	1144983a 	sll	r2,r2,r5
 402bce0:	003fdd06 	br	402bc58 <__flash_rwdata_start+0xffff9384>

0402bce4 <__d2b>:
 402bce4:	defff804 	addi	sp,sp,-32
 402bce8:	dc000215 	stw	r16,8(sp)
 402bcec:	3021883a 	mov	r16,r6
 402bcf0:	dc400315 	stw	r17,12(sp)
 402bcf4:	8022907a 	slli	r17,r16,1
 402bcf8:	dd000615 	stw	r20,24(sp)
 402bcfc:	2829883a 	mov	r20,r5
 402bd00:	01400044 	movi	r5,1
 402bd04:	dcc00515 	stw	r19,20(sp)
 402bd08:	dc800415 	stw	r18,16(sp)
 402bd0c:	dfc00715 	stw	ra,28(sp)
 402bd10:	3825883a 	mov	r18,r7
 402bd14:	8822d57a 	srli	r17,r17,21
 402bd18:	402af940 	call	402af94 <_Balloc>
 402bd1c:	1027883a 	mov	r19,r2
 402bd20:	00800434 	movhi	r2,16
 402bd24:	10bfffc4 	addi	r2,r2,-1
 402bd28:	808c703a 	and	r6,r16,r2
 402bd2c:	88000126 	beq	r17,zero,402bd34 <__d2b+0x50>
 402bd30:	31800434 	orhi	r6,r6,16
 402bd34:	d9800015 	stw	r6,0(sp)
 402bd38:	a0002426 	beq	r20,zero,402bdcc <__d2b+0xe8>
 402bd3c:	d9000104 	addi	r4,sp,4
 402bd40:	dd000115 	stw	r20,4(sp)
 402bd44:	402b3180 	call	402b318 <__lo0bits>
 402bd48:	d8c00017 	ldw	r3,0(sp)
 402bd4c:	10002f1e 	bne	r2,zero,402be0c <__d2b+0x128>
 402bd50:	d9000117 	ldw	r4,4(sp)
 402bd54:	99000515 	stw	r4,20(r19)
 402bd58:	1821003a 	cmpeq	r16,r3,zero
 402bd5c:	01000084 	movi	r4,2
 402bd60:	2421c83a 	sub	r16,r4,r16
 402bd64:	98c00615 	stw	r3,24(r19)
 402bd68:	9c000415 	stw	r16,16(r19)
 402bd6c:	88001f1e 	bne	r17,zero,402bdec <__d2b+0x108>
 402bd70:	10bef384 	addi	r2,r2,-1074
 402bd74:	90800015 	stw	r2,0(r18)
 402bd78:	00900034 	movhi	r2,16384
 402bd7c:	10bfffc4 	addi	r2,r2,-1
 402bd80:	8085883a 	add	r2,r16,r2
 402bd84:	1085883a 	add	r2,r2,r2
 402bd88:	1085883a 	add	r2,r2,r2
 402bd8c:	9885883a 	add	r2,r19,r2
 402bd90:	11000517 	ldw	r4,20(r2)
 402bd94:	8020917a 	slli	r16,r16,5
 402bd98:	402b2b00 	call	402b2b0 <__hi0bits>
 402bd9c:	d8c00817 	ldw	r3,32(sp)
 402bda0:	8085c83a 	sub	r2,r16,r2
 402bda4:	18800015 	stw	r2,0(r3)
 402bda8:	9805883a 	mov	r2,r19
 402bdac:	dfc00717 	ldw	ra,28(sp)
 402bdb0:	dd000617 	ldw	r20,24(sp)
 402bdb4:	dcc00517 	ldw	r19,20(sp)
 402bdb8:	dc800417 	ldw	r18,16(sp)
 402bdbc:	dc400317 	ldw	r17,12(sp)
 402bdc0:	dc000217 	ldw	r16,8(sp)
 402bdc4:	dec00804 	addi	sp,sp,32
 402bdc8:	f800283a 	ret
 402bdcc:	d809883a 	mov	r4,sp
 402bdd0:	402b3180 	call	402b318 <__lo0bits>
 402bdd4:	d8c00017 	ldw	r3,0(sp)
 402bdd8:	04000044 	movi	r16,1
 402bddc:	9c000415 	stw	r16,16(r19)
 402bde0:	98c00515 	stw	r3,20(r19)
 402bde4:	10800804 	addi	r2,r2,32
 402bde8:	883fe126 	beq	r17,zero,402bd70 <__flash_rwdata_start+0xffff949c>
 402bdec:	00c00d44 	movi	r3,53
 402bdf0:	8c7ef344 	addi	r17,r17,-1075
 402bdf4:	88a3883a 	add	r17,r17,r2
 402bdf8:	1885c83a 	sub	r2,r3,r2
 402bdfc:	d8c00817 	ldw	r3,32(sp)
 402be00:	94400015 	stw	r17,0(r18)
 402be04:	18800015 	stw	r2,0(r3)
 402be08:	003fe706 	br	402bda8 <__flash_rwdata_start+0xffff94d4>
 402be0c:	01000804 	movi	r4,32
 402be10:	2089c83a 	sub	r4,r4,r2
 402be14:	1908983a 	sll	r4,r3,r4
 402be18:	d9400117 	ldw	r5,4(sp)
 402be1c:	1886d83a 	srl	r3,r3,r2
 402be20:	2148b03a 	or	r4,r4,r5
 402be24:	99000515 	stw	r4,20(r19)
 402be28:	d8c00015 	stw	r3,0(sp)
 402be2c:	003fca06 	br	402bd58 <__flash_rwdata_start+0xffff9484>

0402be30 <__ratio>:
 402be30:	defff904 	addi	sp,sp,-28
 402be34:	dc400315 	stw	r17,12(sp)
 402be38:	2823883a 	mov	r17,r5
 402be3c:	d9400104 	addi	r5,sp,4
 402be40:	dfc00615 	stw	ra,24(sp)
 402be44:	dcc00515 	stw	r19,20(sp)
 402be48:	dc800415 	stw	r18,16(sp)
 402be4c:	2027883a 	mov	r19,r4
 402be50:	dc000215 	stw	r16,8(sp)
 402be54:	402bbd80 	call	402bbd8 <__b2d>
 402be58:	d80b883a 	mov	r5,sp
 402be5c:	8809883a 	mov	r4,r17
 402be60:	1025883a 	mov	r18,r2
 402be64:	1821883a 	mov	r16,r3
 402be68:	402bbd80 	call	402bbd8 <__b2d>
 402be6c:	8a000417 	ldw	r8,16(r17)
 402be70:	99000417 	ldw	r4,16(r19)
 402be74:	d9400117 	ldw	r5,4(sp)
 402be78:	2209c83a 	sub	r4,r4,r8
 402be7c:	2010917a 	slli	r8,r4,5
 402be80:	d9000017 	ldw	r4,0(sp)
 402be84:	2909c83a 	sub	r4,r5,r4
 402be88:	4109883a 	add	r4,r8,r4
 402be8c:	01000e0e 	bge	zero,r4,402bec8 <__ratio+0x98>
 402be90:	2008953a 	slli	r4,r4,20
 402be94:	2421883a 	add	r16,r4,r16
 402be98:	100d883a 	mov	r6,r2
 402be9c:	180f883a 	mov	r7,r3
 402bea0:	9009883a 	mov	r4,r18
 402bea4:	800b883a 	mov	r5,r16
 402bea8:	40233f80 	call	40233f8 <__divdf3>
 402beac:	dfc00617 	ldw	ra,24(sp)
 402beb0:	dcc00517 	ldw	r19,20(sp)
 402beb4:	dc800417 	ldw	r18,16(sp)
 402beb8:	dc400317 	ldw	r17,12(sp)
 402bebc:	dc000217 	ldw	r16,8(sp)
 402bec0:	dec00704 	addi	sp,sp,28
 402bec4:	f800283a 	ret
 402bec8:	2008953a 	slli	r4,r4,20
 402becc:	1907c83a 	sub	r3,r3,r4
 402bed0:	003ff106 	br	402be98 <__flash_rwdata_start+0xffff95c4>

0402bed4 <_mprec_log10>:
 402bed4:	defffe04 	addi	sp,sp,-8
 402bed8:	dc000015 	stw	r16,0(sp)
 402bedc:	dfc00115 	stw	ra,4(sp)
 402bee0:	008005c4 	movi	r2,23
 402bee4:	2021883a 	mov	r16,r4
 402bee8:	11000d0e 	bge	r2,r4,402bf20 <_mprec_log10+0x4c>
 402beec:	0005883a 	mov	r2,zero
 402bef0:	00cffc34 	movhi	r3,16368
 402bef4:	843fffc4 	addi	r16,r16,-1
 402bef8:	000d883a 	mov	r6,zero
 402befc:	01d00934 	movhi	r7,16420
 402bf00:	1009883a 	mov	r4,r2
 402bf04:	180b883a 	mov	r5,r3
 402bf08:	4023f980 	call	4023f98 <__muldf3>
 402bf0c:	803ff91e 	bne	r16,zero,402bef4 <__flash_rwdata_start+0xffff9620>
 402bf10:	dfc00117 	ldw	ra,4(sp)
 402bf14:	dc000017 	ldw	r16,0(sp)
 402bf18:	dec00204 	addi	sp,sp,8
 402bf1c:	f800283a 	ret
 402bf20:	202090fa 	slli	r16,r4,3
 402bf24:	00800034 	movhi	r2,0
 402bf28:	10808604 	addi	r2,r2,536
 402bf2c:	1421883a 	add	r16,r2,r16
 402bf30:	80800017 	ldw	r2,0(r16)
 402bf34:	80c00117 	ldw	r3,4(r16)
 402bf38:	dfc00117 	ldw	ra,4(sp)
 402bf3c:	dc000017 	ldw	r16,0(sp)
 402bf40:	dec00204 	addi	sp,sp,8
 402bf44:	f800283a 	ret

0402bf48 <__copybits>:
 402bf48:	297fffc4 	addi	r5,r5,-1
 402bf4c:	280fd17a 	srai	r7,r5,5
 402bf50:	30c00417 	ldw	r3,16(r6)
 402bf54:	30800504 	addi	r2,r6,20
 402bf58:	39c00044 	addi	r7,r7,1
 402bf5c:	18c7883a 	add	r3,r3,r3
 402bf60:	39cf883a 	add	r7,r7,r7
 402bf64:	18c7883a 	add	r3,r3,r3
 402bf68:	39cf883a 	add	r7,r7,r7
 402bf6c:	10c7883a 	add	r3,r2,r3
 402bf70:	21cf883a 	add	r7,r4,r7
 402bf74:	10c00d2e 	bgeu	r2,r3,402bfac <__copybits+0x64>
 402bf78:	200b883a 	mov	r5,r4
 402bf7c:	12000017 	ldw	r8,0(r2)
 402bf80:	29400104 	addi	r5,r5,4
 402bf84:	10800104 	addi	r2,r2,4
 402bf88:	2a3fff15 	stw	r8,-4(r5)
 402bf8c:	10fffb36 	bltu	r2,r3,402bf7c <__flash_rwdata_start+0xffff96a8>
 402bf90:	1985c83a 	sub	r2,r3,r6
 402bf94:	10bffac4 	addi	r2,r2,-21
 402bf98:	1004d0ba 	srli	r2,r2,2
 402bf9c:	10800044 	addi	r2,r2,1
 402bfa0:	1085883a 	add	r2,r2,r2
 402bfa4:	1085883a 	add	r2,r2,r2
 402bfa8:	2089883a 	add	r4,r4,r2
 402bfac:	21c0032e 	bgeu	r4,r7,402bfbc <__copybits+0x74>
 402bfb0:	20000015 	stw	zero,0(r4)
 402bfb4:	21000104 	addi	r4,r4,4
 402bfb8:	21fffd36 	bltu	r4,r7,402bfb0 <__flash_rwdata_start+0xffff96dc>
 402bfbc:	f800283a 	ret

0402bfc0 <__any_on>:
 402bfc0:	20c00417 	ldw	r3,16(r4)
 402bfc4:	2805d17a 	srai	r2,r5,5
 402bfc8:	21000504 	addi	r4,r4,20
 402bfcc:	18800d0e 	bge	r3,r2,402c004 <__any_on+0x44>
 402bfd0:	18c7883a 	add	r3,r3,r3
 402bfd4:	18c7883a 	add	r3,r3,r3
 402bfd8:	20c7883a 	add	r3,r4,r3
 402bfdc:	20c0192e 	bgeu	r4,r3,402c044 <__any_on+0x84>
 402bfe0:	18bfff17 	ldw	r2,-4(r3)
 402bfe4:	18ffff04 	addi	r3,r3,-4
 402bfe8:	1000041e 	bne	r2,zero,402bffc <__any_on+0x3c>
 402bfec:	20c0142e 	bgeu	r4,r3,402c040 <__any_on+0x80>
 402bff0:	18ffff04 	addi	r3,r3,-4
 402bff4:	19400017 	ldw	r5,0(r3)
 402bff8:	283ffc26 	beq	r5,zero,402bfec <__flash_rwdata_start+0xffff9718>
 402bffc:	00800044 	movi	r2,1
 402c000:	f800283a 	ret
 402c004:	10c00a0e 	bge	r2,r3,402c030 <__any_on+0x70>
 402c008:	1085883a 	add	r2,r2,r2
 402c00c:	1085883a 	add	r2,r2,r2
 402c010:	294007cc 	andi	r5,r5,31
 402c014:	2087883a 	add	r3,r4,r2
 402c018:	283ff026 	beq	r5,zero,402bfdc <__flash_rwdata_start+0xffff9708>
 402c01c:	19800017 	ldw	r6,0(r3)
 402c020:	3144d83a 	srl	r2,r6,r5
 402c024:	114a983a 	sll	r5,r2,r5
 402c028:	317ff41e 	bne	r6,r5,402bffc <__flash_rwdata_start+0xffff9728>
 402c02c:	003feb06 	br	402bfdc <__flash_rwdata_start+0xffff9708>
 402c030:	1085883a 	add	r2,r2,r2
 402c034:	1085883a 	add	r2,r2,r2
 402c038:	2087883a 	add	r3,r4,r2
 402c03c:	003fe706 	br	402bfdc <__flash_rwdata_start+0xffff9708>
 402c040:	f800283a 	ret
 402c044:	0005883a 	mov	r2,zero
 402c048:	f800283a 	ret

0402c04c <__fpclassifyd>:
 402c04c:	00a00034 	movhi	r2,32768
 402c050:	10bfffc4 	addi	r2,r2,-1
 402c054:	2884703a 	and	r2,r5,r2
 402c058:	10000726 	beq	r2,zero,402c078 <__fpclassifyd+0x2c>
 402c05c:	00fffc34 	movhi	r3,65520
 402c060:	019ff834 	movhi	r6,32736
 402c064:	28c7883a 	add	r3,r5,r3
 402c068:	31bfffc4 	addi	r6,r6,-1
 402c06c:	30c00536 	bltu	r6,r3,402c084 <__fpclassifyd+0x38>
 402c070:	00800104 	movi	r2,4
 402c074:	f800283a 	ret
 402c078:	2000021e 	bne	r4,zero,402c084 <__fpclassifyd+0x38>
 402c07c:	00800084 	movi	r2,2
 402c080:	f800283a 	ret
 402c084:	00dffc34 	movhi	r3,32752
 402c088:	019ff834 	movhi	r6,32736
 402c08c:	28cb883a 	add	r5,r5,r3
 402c090:	31bfffc4 	addi	r6,r6,-1
 402c094:	317ff62e 	bgeu	r6,r5,402c070 <__flash_rwdata_start+0xffff979c>
 402c098:	01400434 	movhi	r5,16
 402c09c:	297fffc4 	addi	r5,r5,-1
 402c0a0:	28800236 	bltu	r5,r2,402c0ac <__fpclassifyd+0x60>
 402c0a4:	008000c4 	movi	r2,3
 402c0a8:	f800283a 	ret
 402c0ac:	10c00226 	beq	r2,r3,402c0b8 <__fpclassifyd+0x6c>
 402c0b0:	0005883a 	mov	r2,zero
 402c0b4:	f800283a 	ret
 402c0b8:	2005003a 	cmpeq	r2,r4,zero
 402c0bc:	f800283a 	ret

0402c0c0 <_sbrk_r>:
 402c0c0:	defffd04 	addi	sp,sp,-12
 402c0c4:	dc000015 	stw	r16,0(sp)
 402c0c8:	04000034 	movhi	r16,0
 402c0cc:	dc400115 	stw	r17,4(sp)
 402c0d0:	84078f04 	addi	r16,r16,7740
 402c0d4:	2023883a 	mov	r17,r4
 402c0d8:	2809883a 	mov	r4,r5
 402c0dc:	dfc00215 	stw	ra,8(sp)
 402c0e0:	80000015 	stw	zero,0(r16)
 402c0e4:	40304280 	call	4030428 <sbrk>
 402c0e8:	00ffffc4 	movi	r3,-1
 402c0ec:	10c00526 	beq	r2,r3,402c104 <_sbrk_r+0x44>
 402c0f0:	dfc00217 	ldw	ra,8(sp)
 402c0f4:	dc400117 	ldw	r17,4(sp)
 402c0f8:	dc000017 	ldw	r16,0(sp)
 402c0fc:	dec00304 	addi	sp,sp,12
 402c100:	f800283a 	ret
 402c104:	80c00017 	ldw	r3,0(r16)
 402c108:	183ff926 	beq	r3,zero,402c0f0 <__flash_rwdata_start+0xffff981c>
 402c10c:	88c00015 	stw	r3,0(r17)
 402c110:	003ff706 	br	402c0f0 <__flash_rwdata_start+0xffff981c>

0402c114 <__sread>:
 402c114:	defffe04 	addi	sp,sp,-8
 402c118:	dc000015 	stw	r16,0(sp)
 402c11c:	2821883a 	mov	r16,r5
 402c120:	2940038f 	ldh	r5,14(r5)
 402c124:	dfc00115 	stw	ra,4(sp)
 402c128:	402e68c0 	call	402e68c <_read_r>
 402c12c:	10000716 	blt	r2,zero,402c14c <__sread+0x38>
 402c130:	80c01417 	ldw	r3,80(r16)
 402c134:	1887883a 	add	r3,r3,r2
 402c138:	80c01415 	stw	r3,80(r16)
 402c13c:	dfc00117 	ldw	ra,4(sp)
 402c140:	dc000017 	ldw	r16,0(sp)
 402c144:	dec00204 	addi	sp,sp,8
 402c148:	f800283a 	ret
 402c14c:	80c0030b 	ldhu	r3,12(r16)
 402c150:	18fbffcc 	andi	r3,r3,61439
 402c154:	80c0030d 	sth	r3,12(r16)
 402c158:	dfc00117 	ldw	ra,4(sp)
 402c15c:	dc000017 	ldw	r16,0(sp)
 402c160:	dec00204 	addi	sp,sp,8
 402c164:	f800283a 	ret

0402c168 <__seofread>:
 402c168:	0005883a 	mov	r2,zero
 402c16c:	f800283a 	ret

0402c170 <__swrite>:
 402c170:	2880030b 	ldhu	r2,12(r5)
 402c174:	defffb04 	addi	sp,sp,-20
 402c178:	dcc00315 	stw	r19,12(sp)
 402c17c:	dc800215 	stw	r18,8(sp)
 402c180:	dc400115 	stw	r17,4(sp)
 402c184:	dc000015 	stw	r16,0(sp)
 402c188:	dfc00415 	stw	ra,16(sp)
 402c18c:	10c0400c 	andi	r3,r2,256
 402c190:	2821883a 	mov	r16,r5
 402c194:	2023883a 	mov	r17,r4
 402c198:	3025883a 	mov	r18,r6
 402c19c:	3827883a 	mov	r19,r7
 402c1a0:	18000526 	beq	r3,zero,402c1b8 <__swrite+0x48>
 402c1a4:	2940038f 	ldh	r5,14(r5)
 402c1a8:	01c00084 	movi	r7,2
 402c1ac:	000d883a 	mov	r6,zero
 402c1b0:	402e4d00 	call	402e4d0 <_lseek_r>
 402c1b4:	8080030b 	ldhu	r2,12(r16)
 402c1b8:	8140038f 	ldh	r5,14(r16)
 402c1bc:	10bbffcc 	andi	r2,r2,61439
 402c1c0:	980f883a 	mov	r7,r19
 402c1c4:	900d883a 	mov	r6,r18
 402c1c8:	8809883a 	mov	r4,r17
 402c1cc:	8080030d 	sth	r2,12(r16)
 402c1d0:	dfc00417 	ldw	ra,16(sp)
 402c1d4:	dcc00317 	ldw	r19,12(sp)
 402c1d8:	dc800217 	ldw	r18,8(sp)
 402c1dc:	dc400117 	ldw	r17,4(sp)
 402c1e0:	dc000017 	ldw	r16,0(sp)
 402c1e4:	dec00504 	addi	sp,sp,20
 402c1e8:	402dabc1 	jmpi	402dabc <_write_r>

0402c1ec <__sseek>:
 402c1ec:	defffe04 	addi	sp,sp,-8
 402c1f0:	dc000015 	stw	r16,0(sp)
 402c1f4:	2821883a 	mov	r16,r5
 402c1f8:	2940038f 	ldh	r5,14(r5)
 402c1fc:	dfc00115 	stw	ra,4(sp)
 402c200:	402e4d00 	call	402e4d0 <_lseek_r>
 402c204:	00ffffc4 	movi	r3,-1
 402c208:	10c00826 	beq	r2,r3,402c22c <__sseek+0x40>
 402c20c:	80c0030b 	ldhu	r3,12(r16)
 402c210:	80801415 	stw	r2,80(r16)
 402c214:	18c40014 	ori	r3,r3,4096
 402c218:	80c0030d 	sth	r3,12(r16)
 402c21c:	dfc00117 	ldw	ra,4(sp)
 402c220:	dc000017 	ldw	r16,0(sp)
 402c224:	dec00204 	addi	sp,sp,8
 402c228:	f800283a 	ret
 402c22c:	80c0030b 	ldhu	r3,12(r16)
 402c230:	18fbffcc 	andi	r3,r3,61439
 402c234:	80c0030d 	sth	r3,12(r16)
 402c238:	dfc00117 	ldw	ra,4(sp)
 402c23c:	dc000017 	ldw	r16,0(sp)
 402c240:	dec00204 	addi	sp,sp,8
 402c244:	f800283a 	ret

0402c248 <__sclose>:
 402c248:	2940038f 	ldh	r5,14(r5)
 402c24c:	402db1c1 	jmpi	402db1c <_close_r>

0402c250 <strcmp>:
 402c250:	2144b03a 	or	r2,r4,r5
 402c254:	108000cc 	andi	r2,r2,3
 402c258:	1000171e 	bne	r2,zero,402c2b8 <strcmp+0x68>
 402c25c:	20800017 	ldw	r2,0(r4)
 402c260:	28c00017 	ldw	r3,0(r5)
 402c264:	10c0141e 	bne	r2,r3,402c2b8 <strcmp+0x68>
 402c268:	027fbff4 	movhi	r9,65279
 402c26c:	4a7fbfc4 	addi	r9,r9,-257
 402c270:	0086303a 	nor	r3,zero,r2
 402c274:	02202074 	movhi	r8,32897
 402c278:	1245883a 	add	r2,r2,r9
 402c27c:	42202004 	addi	r8,r8,-32640
 402c280:	10c4703a 	and	r2,r2,r3
 402c284:	1204703a 	and	r2,r2,r8
 402c288:	10000226 	beq	r2,zero,402c294 <strcmp+0x44>
 402c28c:	00002306 	br	402c31c <strcmp+0xcc>
 402c290:	1000221e 	bne	r2,zero,402c31c <strcmp+0xcc>
 402c294:	21000104 	addi	r4,r4,4
 402c298:	20c00017 	ldw	r3,0(r4)
 402c29c:	29400104 	addi	r5,r5,4
 402c2a0:	29800017 	ldw	r6,0(r5)
 402c2a4:	1a4f883a 	add	r7,r3,r9
 402c2a8:	00c4303a 	nor	r2,zero,r3
 402c2ac:	3884703a 	and	r2,r7,r2
 402c2b0:	1204703a 	and	r2,r2,r8
 402c2b4:	19bff626 	beq	r3,r6,402c290 <__flash_rwdata_start+0xffff99bc>
 402c2b8:	20800003 	ldbu	r2,0(r4)
 402c2bc:	10c03fcc 	andi	r3,r2,255
 402c2c0:	18c0201c 	xori	r3,r3,128
 402c2c4:	18ffe004 	addi	r3,r3,-128
 402c2c8:	18000c26 	beq	r3,zero,402c2fc <strcmp+0xac>
 402c2cc:	29800007 	ldb	r6,0(r5)
 402c2d0:	19800326 	beq	r3,r6,402c2e0 <strcmp+0x90>
 402c2d4:	00001306 	br	402c324 <strcmp+0xd4>
 402c2d8:	29800007 	ldb	r6,0(r5)
 402c2dc:	11800b1e 	bne	r2,r6,402c30c <strcmp+0xbc>
 402c2e0:	21000044 	addi	r4,r4,1
 402c2e4:	20c00003 	ldbu	r3,0(r4)
 402c2e8:	29400044 	addi	r5,r5,1
 402c2ec:	18803fcc 	andi	r2,r3,255
 402c2f0:	1080201c 	xori	r2,r2,128
 402c2f4:	10bfe004 	addi	r2,r2,-128
 402c2f8:	103ff71e 	bne	r2,zero,402c2d8 <__flash_rwdata_start+0xffff9a04>
 402c2fc:	0007883a 	mov	r3,zero
 402c300:	28800003 	ldbu	r2,0(r5)
 402c304:	1885c83a 	sub	r2,r3,r2
 402c308:	f800283a 	ret
 402c30c:	28800003 	ldbu	r2,0(r5)
 402c310:	18c03fcc 	andi	r3,r3,255
 402c314:	1885c83a 	sub	r2,r3,r2
 402c318:	f800283a 	ret
 402c31c:	0005883a 	mov	r2,zero
 402c320:	f800283a 	ret
 402c324:	10c03fcc 	andi	r3,r2,255
 402c328:	003ff506 	br	402c300 <__flash_rwdata_start+0xffff9a2c>

0402c32c <strlen>:
 402c32c:	208000cc 	andi	r2,r4,3
 402c330:	10002026 	beq	r2,zero,402c3b4 <strlen+0x88>
 402c334:	20800007 	ldb	r2,0(r4)
 402c338:	10002026 	beq	r2,zero,402c3bc <strlen+0x90>
 402c33c:	2005883a 	mov	r2,r4
 402c340:	00000206 	br	402c34c <strlen+0x20>
 402c344:	10c00007 	ldb	r3,0(r2)
 402c348:	18001826 	beq	r3,zero,402c3ac <strlen+0x80>
 402c34c:	10800044 	addi	r2,r2,1
 402c350:	10c000cc 	andi	r3,r2,3
 402c354:	183ffb1e 	bne	r3,zero,402c344 <__flash_rwdata_start+0xffff9a70>
 402c358:	10c00017 	ldw	r3,0(r2)
 402c35c:	01ffbff4 	movhi	r7,65279
 402c360:	39ffbfc4 	addi	r7,r7,-257
 402c364:	00ca303a 	nor	r5,zero,r3
 402c368:	01a02074 	movhi	r6,32897
 402c36c:	19c7883a 	add	r3,r3,r7
 402c370:	31a02004 	addi	r6,r6,-32640
 402c374:	1946703a 	and	r3,r3,r5
 402c378:	1986703a 	and	r3,r3,r6
 402c37c:	1800091e 	bne	r3,zero,402c3a4 <strlen+0x78>
 402c380:	10800104 	addi	r2,r2,4
 402c384:	10c00017 	ldw	r3,0(r2)
 402c388:	19cb883a 	add	r5,r3,r7
 402c38c:	00c6303a 	nor	r3,zero,r3
 402c390:	28c6703a 	and	r3,r5,r3
 402c394:	1986703a 	and	r3,r3,r6
 402c398:	183ff926 	beq	r3,zero,402c380 <__flash_rwdata_start+0xffff9aac>
 402c39c:	00000106 	br	402c3a4 <strlen+0x78>
 402c3a0:	10800044 	addi	r2,r2,1
 402c3a4:	10c00007 	ldb	r3,0(r2)
 402c3a8:	183ffd1e 	bne	r3,zero,402c3a0 <__flash_rwdata_start+0xffff9acc>
 402c3ac:	1105c83a 	sub	r2,r2,r4
 402c3b0:	f800283a 	ret
 402c3b4:	2005883a 	mov	r2,r4
 402c3b8:	003fe706 	br	402c358 <__flash_rwdata_start+0xffff9a84>
 402c3bc:	0005883a 	mov	r2,zero
 402c3c0:	f800283a 	ret

0402c3c4 <__sprint_r.part.0>:
 402c3c4:	28801917 	ldw	r2,100(r5)
 402c3c8:	defff604 	addi	sp,sp,-40
 402c3cc:	dd400515 	stw	r21,20(sp)
 402c3d0:	dfc00915 	stw	ra,36(sp)
 402c3d4:	df000815 	stw	fp,32(sp)
 402c3d8:	ddc00715 	stw	r23,28(sp)
 402c3dc:	dd800615 	stw	r22,24(sp)
 402c3e0:	dd000415 	stw	r20,16(sp)
 402c3e4:	dcc00315 	stw	r19,12(sp)
 402c3e8:	dc800215 	stw	r18,8(sp)
 402c3ec:	dc400115 	stw	r17,4(sp)
 402c3f0:	dc000015 	stw	r16,0(sp)
 402c3f4:	1088000c 	andi	r2,r2,8192
 402c3f8:	302b883a 	mov	r21,r6
 402c3fc:	10002e26 	beq	r2,zero,402c4b8 <__sprint_r.part.0+0xf4>
 402c400:	30800217 	ldw	r2,8(r6)
 402c404:	35800017 	ldw	r22,0(r6)
 402c408:	10002926 	beq	r2,zero,402c4b0 <__sprint_r.part.0+0xec>
 402c40c:	2827883a 	mov	r19,r5
 402c410:	2029883a 	mov	r20,r4
 402c414:	b5c00104 	addi	r23,r22,4
 402c418:	04bfffc4 	movi	r18,-1
 402c41c:	bc400017 	ldw	r17,0(r23)
 402c420:	b4000017 	ldw	r16,0(r22)
 402c424:	0039883a 	mov	fp,zero
 402c428:	8822d0ba 	srli	r17,r17,2
 402c42c:	8800031e 	bne	r17,zero,402c43c <__sprint_r.part.0+0x78>
 402c430:	00001806 	br	402c494 <__sprint_r.part.0+0xd0>
 402c434:	84000104 	addi	r16,r16,4
 402c438:	8f001526 	beq	r17,fp,402c490 <__sprint_r.part.0+0xcc>
 402c43c:	81400017 	ldw	r5,0(r16)
 402c440:	980d883a 	mov	r6,r19
 402c444:	a009883a 	mov	r4,r20
 402c448:	402deb40 	call	402deb4 <_fputwc_r>
 402c44c:	e7000044 	addi	fp,fp,1
 402c450:	14bff81e 	bne	r2,r18,402c434 <__flash_rwdata_start+0xffff9b60>
 402c454:	9005883a 	mov	r2,r18
 402c458:	a8000215 	stw	zero,8(r21)
 402c45c:	a8000115 	stw	zero,4(r21)
 402c460:	dfc00917 	ldw	ra,36(sp)
 402c464:	df000817 	ldw	fp,32(sp)
 402c468:	ddc00717 	ldw	r23,28(sp)
 402c46c:	dd800617 	ldw	r22,24(sp)
 402c470:	dd400517 	ldw	r21,20(sp)
 402c474:	dd000417 	ldw	r20,16(sp)
 402c478:	dcc00317 	ldw	r19,12(sp)
 402c47c:	dc800217 	ldw	r18,8(sp)
 402c480:	dc400117 	ldw	r17,4(sp)
 402c484:	dc000017 	ldw	r16,0(sp)
 402c488:	dec00a04 	addi	sp,sp,40
 402c48c:	f800283a 	ret
 402c490:	a8800217 	ldw	r2,8(r21)
 402c494:	8c63883a 	add	r17,r17,r17
 402c498:	8c63883a 	add	r17,r17,r17
 402c49c:	1445c83a 	sub	r2,r2,r17
 402c4a0:	a8800215 	stw	r2,8(r21)
 402c4a4:	b5800204 	addi	r22,r22,8
 402c4a8:	bdc00204 	addi	r23,r23,8
 402c4ac:	103fdb1e 	bne	r2,zero,402c41c <__flash_rwdata_start+0xffff9b48>
 402c4b0:	0005883a 	mov	r2,zero
 402c4b4:	003fe806 	br	402c458 <__flash_rwdata_start+0xffff9b84>
 402c4b8:	402dfb40 	call	402dfb4 <__sfvwrite_r>
 402c4bc:	003fe606 	br	402c458 <__flash_rwdata_start+0xffff9b84>

0402c4c0 <__sprint_r>:
 402c4c0:	30c00217 	ldw	r3,8(r6)
 402c4c4:	18000126 	beq	r3,zero,402c4cc <__sprint_r+0xc>
 402c4c8:	402c3c41 	jmpi	402c3c4 <__sprint_r.part.0>
 402c4cc:	30000115 	stw	zero,4(r6)
 402c4d0:	0005883a 	mov	r2,zero
 402c4d4:	f800283a 	ret

0402c4d8 <___vfiprintf_internal_r>:
 402c4d8:	deffca04 	addi	sp,sp,-216
 402c4dc:	dd403115 	stw	r21,196(sp)
 402c4e0:	dfc03515 	stw	ra,212(sp)
 402c4e4:	df003415 	stw	fp,208(sp)
 402c4e8:	ddc03315 	stw	r23,204(sp)
 402c4ec:	dd803215 	stw	r22,200(sp)
 402c4f0:	dd003015 	stw	r20,192(sp)
 402c4f4:	dcc02f15 	stw	r19,188(sp)
 402c4f8:	dc802e15 	stw	r18,184(sp)
 402c4fc:	dc402d15 	stw	r17,180(sp)
 402c500:	dc002c15 	stw	r16,176(sp)
 402c504:	d9002115 	stw	r4,132(sp)
 402c508:	d9402015 	stw	r5,128(sp)
 402c50c:	d9c02215 	stw	r7,136(sp)
 402c510:	302b883a 	mov	r21,r6
 402c514:	20000226 	beq	r4,zero,402c520 <___vfiprintf_internal_r+0x48>
 402c518:	20800e17 	ldw	r2,56(r4)
 402c51c:	1000cf26 	beq	r2,zero,402c85c <___vfiprintf_internal_r+0x384>
 402c520:	d8c02017 	ldw	r3,128(sp)
 402c524:	1880030b 	ldhu	r2,12(r3)
 402c528:	10c8000c 	andi	r3,r2,8192
 402c52c:	1800071e 	bne	r3,zero,402c54c <___vfiprintf_internal_r+0x74>
 402c530:	d9402017 	ldw	r5,128(sp)
 402c534:	00f7ffc4 	movi	r3,-8193
 402c538:	10880014 	ori	r2,r2,8192
 402c53c:	29001917 	ldw	r4,100(r5)
 402c540:	2880030d 	sth	r2,12(r5)
 402c544:	20c6703a 	and	r3,r4,r3
 402c548:	28c01915 	stw	r3,100(r5)
 402c54c:	10c0020c 	andi	r3,r2,8
 402c550:	1800a526 	beq	r3,zero,402c7e8 <___vfiprintf_internal_r+0x310>
 402c554:	d9002017 	ldw	r4,128(sp)
 402c558:	20c00417 	ldw	r3,16(r4)
 402c55c:	1800a226 	beq	r3,zero,402c7e8 <___vfiprintf_internal_r+0x310>
 402c560:	1080068c 	andi	r2,r2,26
 402c564:	00c00284 	movi	r3,10
 402c568:	10c0a826 	beq	r2,r3,402c80c <___vfiprintf_internal_r+0x334>
 402c56c:	d9001a04 	addi	r4,sp,104
 402c570:	d94019c4 	addi	r5,sp,103
 402c574:	04800034 	movhi	r18,0
 402c578:	2145c83a 	sub	r2,r4,r5
 402c57c:	9480b804 	addi	r18,r18,736
 402c580:	d9001e15 	stw	r4,120(sp)
 402c584:	d9401f15 	stw	r5,124(sp)
 402c588:	dec01a15 	stw	sp,104(sp)
 402c58c:	d8001c15 	stw	zero,112(sp)
 402c590:	d8001b15 	stw	zero,108(sp)
 402c594:	d811883a 	mov	r8,sp
 402c598:	d8002615 	stw	zero,152(sp)
 402c59c:	d8002415 	stw	zero,144(sp)
 402c5a0:	d8802815 	stw	r2,160(sp)
 402c5a4:	a82d883a 	mov	r22,r21
 402c5a8:	b0800007 	ldb	r2,0(r22)
 402c5ac:	10040d26 	beq	r2,zero,402d5e4 <___vfiprintf_internal_r+0x110c>
 402c5b0:	00c00944 	movi	r3,37
 402c5b4:	b029883a 	mov	r20,r22
 402c5b8:	10c0021e 	bne	r2,r3,402c5c4 <___vfiprintf_internal_r+0xec>
 402c5bc:	00001606 	br	402c618 <___vfiprintf_internal_r+0x140>
 402c5c0:	10c00326 	beq	r2,r3,402c5d0 <___vfiprintf_internal_r+0xf8>
 402c5c4:	a5000044 	addi	r20,r20,1
 402c5c8:	a0800007 	ldb	r2,0(r20)
 402c5cc:	103ffc1e 	bne	r2,zero,402c5c0 <__flash_rwdata_start+0xffff9cec>
 402c5d0:	a5a1c83a 	sub	r16,r20,r22
 402c5d4:	80001026 	beq	r16,zero,402c618 <___vfiprintf_internal_r+0x140>
 402c5d8:	d8c01c17 	ldw	r3,112(sp)
 402c5dc:	d8801b17 	ldw	r2,108(sp)
 402c5e0:	45800015 	stw	r22,0(r8)
 402c5e4:	80c7883a 	add	r3,r16,r3
 402c5e8:	10800044 	addi	r2,r2,1
 402c5ec:	44000115 	stw	r16,4(r8)
 402c5f0:	d8c01c15 	stw	r3,112(sp)
 402c5f4:	d8801b15 	stw	r2,108(sp)
 402c5f8:	010001c4 	movi	r4,7
 402c5fc:	2080750e 	bge	r4,r2,402c7d4 <___vfiprintf_internal_r+0x2fc>
 402c600:	1803951e 	bne	r3,zero,402d458 <___vfiprintf_internal_r+0xf80>
 402c604:	d8c02417 	ldw	r3,144(sp)
 402c608:	d8001b15 	stw	zero,108(sp)
 402c60c:	d811883a 	mov	r8,sp
 402c610:	1c07883a 	add	r3,r3,r16
 402c614:	d8c02415 	stw	r3,144(sp)
 402c618:	a0800007 	ldb	r2,0(r20)
 402c61c:	1002e026 	beq	r2,zero,402d1a0 <___vfiprintf_internal_r+0xcc8>
 402c620:	a5800044 	addi	r22,r20,1
 402c624:	a0c00047 	ldb	r3,1(r20)
 402c628:	d8001d85 	stb	zero,118(sp)
 402c62c:	0027883a 	mov	r19,zero
 402c630:	d8002305 	stb	zero,140(sp)
 402c634:	043fffc4 	movi	r16,-1
 402c638:	d8002515 	stw	zero,148(sp)
 402c63c:	0023883a 	mov	r17,zero
 402c640:	05001604 	movi	r20,88
 402c644:	05400244 	movi	r21,9
 402c648:	402f883a 	mov	r23,r8
 402c64c:	b5800044 	addi	r22,r22,1
 402c650:	18bff804 	addi	r2,r3,-32
 402c654:	a0827736 	bltu	r20,r2,402d034 <___vfiprintf_internal_r+0xb5c>
 402c658:	100490ba 	slli	r2,r2,2
 402c65c:	010100f4 	movhi	r4,1027
 402c660:	21319c04 	addi	r4,r4,-14736
 402c664:	1105883a 	add	r2,r2,r4
 402c668:	10800017 	ldw	r2,0(r2)
 402c66c:	1000683a 	jmp	r2
 402c670:	0402cd34 	movhi	r16,2868
 402c674:	0402d034 	movhi	r16,2880
 402c678:	0402d034 	movhi	r16,2880
 402c67c:	0402cd50 	cmplti	r16,zero,2869
 402c680:	0402d034 	movhi	r16,2880
 402c684:	0402d034 	movhi	r16,2880
 402c688:	0402d034 	movhi	r16,2880
 402c68c:	0402d034 	movhi	r16,2880
 402c690:	0402d034 	movhi	r16,2880
 402c694:	0402d034 	movhi	r16,2880
 402c698:	0402cf58 	cmpnei	r16,zero,2877
 402c69c:	0402cf7c 	xorhi	r16,zero,2877
 402c6a0:	0402d034 	movhi	r16,2880
 402c6a4:	0402c874 	movhi	r16,2849
 402c6a8:	0402cf90 	cmplti	r16,zero,2878
 402c6ac:	0402d034 	movhi	r16,2880
 402c6b0:	0402cd5c 	xori	r16,zero,2869
 402c6b4:	0402cd68 	cmpgeui	r16,zero,2869
 402c6b8:	0402cd68 	cmpgeui	r16,zero,2869
 402c6bc:	0402cd68 	cmpgeui	r16,zero,2869
 402c6c0:	0402cd68 	cmpgeui	r16,zero,2869
 402c6c4:	0402cd68 	cmpgeui	r16,zero,2869
 402c6c8:	0402cd68 	cmpgeui	r16,zero,2869
 402c6cc:	0402cd68 	cmpgeui	r16,zero,2869
 402c6d0:	0402cd68 	cmpgeui	r16,zero,2869
 402c6d4:	0402cd68 	cmpgeui	r16,zero,2869
 402c6d8:	0402d034 	movhi	r16,2880
 402c6dc:	0402d034 	movhi	r16,2880
 402c6e0:	0402d034 	movhi	r16,2880
 402c6e4:	0402d034 	movhi	r16,2880
 402c6e8:	0402d034 	movhi	r16,2880
 402c6ec:	0402d034 	movhi	r16,2880
 402c6f0:	0402d034 	movhi	r16,2880
 402c6f4:	0402d034 	movhi	r16,2880
 402c6f8:	0402d034 	movhi	r16,2880
 402c6fc:	0402d034 	movhi	r16,2880
 402c700:	0402cda8 	cmpgeui	r16,zero,2870
 402c704:	0402d034 	movhi	r16,2880
 402c708:	0402d034 	movhi	r16,2880
 402c70c:	0402d034 	movhi	r16,2880
 402c710:	0402d034 	movhi	r16,2880
 402c714:	0402d034 	movhi	r16,2880
 402c718:	0402d034 	movhi	r16,2880
 402c71c:	0402d034 	movhi	r16,2880
 402c720:	0402d034 	movhi	r16,2880
 402c724:	0402d034 	movhi	r16,2880
 402c728:	0402d034 	movhi	r16,2880
 402c72c:	0402cde4 	muli	r16,zero,2871
 402c730:	0402d034 	movhi	r16,2880
 402c734:	0402d034 	movhi	r16,2880
 402c738:	0402d034 	movhi	r16,2880
 402c73c:	0402d034 	movhi	r16,2880
 402c740:	0402d034 	movhi	r16,2880
 402c744:	0402ce40 	call	402ce4 <_gp+0x3f8f0c>
 402c748:	0402d034 	movhi	r16,2880
 402c74c:	0402d034 	movhi	r16,2880
 402c750:	0402ceb4 	movhi	r16,2874
 402c754:	0402d034 	movhi	r16,2880
 402c758:	0402d034 	movhi	r16,2880
 402c75c:	0402d034 	movhi	r16,2880
 402c760:	0402d034 	movhi	r16,2880
 402c764:	0402d034 	movhi	r16,2880
 402c768:	0402d034 	movhi	r16,2880
 402c76c:	0402d034 	movhi	r16,2880
 402c770:	0402d034 	movhi	r16,2880
 402c774:	0402d034 	movhi	r16,2880
 402c778:	0402d034 	movhi	r16,2880
 402c77c:	0402cc5c 	xori	r16,zero,2865
 402c780:	0402cc8c 	andi	r16,zero,2866
 402c784:	0402d034 	movhi	r16,2880
 402c788:	0402d034 	movhi	r16,2880
 402c78c:	0402d034 	movhi	r16,2880
 402c790:	0402cfdc 	xori	r16,zero,2879
 402c794:	0402cc8c 	andi	r16,zero,2866
 402c798:	0402d034 	movhi	r16,2880
 402c79c:	0402d034 	movhi	r16,2880
 402c7a0:	0402cb34 	movhi	r16,2860
 402c7a4:	0402d034 	movhi	r16,2880
 402c7a8:	0402cb48 	cmpgei	r16,zero,2861
 402c7ac:	0402cb80 	call	402cb8 <_gp+0x3f8ee0>
 402c7b0:	0402c880 	call	402c88 <_gp+0x3f8eb0>
 402c7b4:	0402cb28 	cmpgeui	r16,zero,2860
 402c7b8:	0402d034 	movhi	r16,2880
 402c7bc:	0402cef4 	movhi	r16,2875
 402c7c0:	0402d034 	movhi	r16,2880
 402c7c4:	0402cf40 	call	402cf4 <_gp+0x3f8f1c>
 402c7c8:	0402d034 	movhi	r16,2880
 402c7cc:	0402d034 	movhi	r16,2880
 402c7d0:	0402cc04 	movi	r16,2864
 402c7d4:	42000204 	addi	r8,r8,8
 402c7d8:	d8c02417 	ldw	r3,144(sp)
 402c7dc:	1c07883a 	add	r3,r3,r16
 402c7e0:	d8c02415 	stw	r3,144(sp)
 402c7e4:	003f8c06 	br	402c618 <__flash_rwdata_start+0xffff9d44>
 402c7e8:	d9402017 	ldw	r5,128(sp)
 402c7ec:	d9002117 	ldw	r4,132(sp)
 402c7f0:	4027b840 	call	4027b84 <__swsetup_r>
 402c7f4:	1003c11e 	bne	r2,zero,402d6fc <___vfiprintf_internal_r+0x1224>
 402c7f8:	d9402017 	ldw	r5,128(sp)
 402c7fc:	00c00284 	movi	r3,10
 402c800:	2880030b 	ldhu	r2,12(r5)
 402c804:	1080068c 	andi	r2,r2,26
 402c808:	10ff581e 	bne	r2,r3,402c56c <__flash_rwdata_start+0xffff9c98>
 402c80c:	d8c02017 	ldw	r3,128(sp)
 402c810:	1880038f 	ldh	r2,14(r3)
 402c814:	103f5516 	blt	r2,zero,402c56c <__flash_rwdata_start+0xffff9c98>
 402c818:	d9c02217 	ldw	r7,136(sp)
 402c81c:	d9002117 	ldw	r4,132(sp)
 402c820:	a80d883a 	mov	r6,r21
 402c824:	180b883a 	mov	r5,r3
 402c828:	402da000 	call	402da00 <__sbprintf>
 402c82c:	dfc03517 	ldw	ra,212(sp)
 402c830:	df003417 	ldw	fp,208(sp)
 402c834:	ddc03317 	ldw	r23,204(sp)
 402c838:	dd803217 	ldw	r22,200(sp)
 402c83c:	dd403117 	ldw	r21,196(sp)
 402c840:	dd003017 	ldw	r20,192(sp)
 402c844:	dcc02f17 	ldw	r19,188(sp)
 402c848:	dc802e17 	ldw	r18,184(sp)
 402c84c:	dc402d17 	ldw	r17,180(sp)
 402c850:	dc002c17 	ldw	r16,176(sp)
 402c854:	dec03604 	addi	sp,sp,216
 402c858:	f800283a 	ret
 402c85c:	4029b900 	call	4029b90 <__sinit>
 402c860:	003f2f06 	br	402c520 <__flash_rwdata_start+0xffff9c4c>
 402c864:	d8c02517 	ldw	r3,148(sp)
 402c868:	d8802215 	stw	r2,136(sp)
 402c86c:	00c7c83a 	sub	r3,zero,r3
 402c870:	d8c02515 	stw	r3,148(sp)
 402c874:	8c400114 	ori	r17,r17,4
 402c878:	b0c00007 	ldb	r3,0(r22)
 402c87c:	003f7306 	br	402c64c <__flash_rwdata_start+0xffff9d78>
 402c880:	00800c04 	movi	r2,48
 402c884:	d9402217 	ldw	r5,136(sp)
 402c888:	d8801d05 	stb	r2,116(sp)
 402c88c:	00801e04 	movi	r2,120
 402c890:	d8801d45 	stb	r2,117(sp)
 402c894:	d8001d85 	stb	zero,118(sp)
 402c898:	b811883a 	mov	r8,r23
 402c89c:	28c00104 	addi	r3,r5,4
 402c8a0:	2cc00017 	ldw	r19,0(r5)
 402c8a4:	0029883a 	mov	r20,zero
 402c8a8:	88800094 	ori	r2,r17,2
 402c8ac:	80032516 	blt	r16,zero,402d544 <___vfiprintf_internal_r+0x106c>
 402c8b0:	00bfdfc4 	movi	r2,-129
 402c8b4:	88a2703a 	and	r17,r17,r2
 402c8b8:	d8c02215 	stw	r3,136(sp)
 402c8bc:	8c400094 	ori	r17,r17,2
 402c8c0:	98032a1e 	bne	r19,zero,402d56c <___vfiprintf_internal_r+0x1094>
 402c8c4:	00800034 	movhi	r2,0
 402c8c8:	10805804 	addi	r2,r2,352
 402c8cc:	d8802615 	stw	r2,152(sp)
 402c8d0:	002b883a 	mov	r21,zero
 402c8d4:	8001741e 	bne	r16,zero,402cea8 <___vfiprintf_internal_r+0x9d0>
 402c8d8:	0021883a 	mov	r16,zero
 402c8dc:	0029883a 	mov	r20,zero
 402c8e0:	ddc01a04 	addi	r23,sp,104
 402c8e4:	8027883a 	mov	r19,r16
 402c8e8:	8500010e 	bge	r16,r20,402c8f0 <___vfiprintf_internal_r+0x418>
 402c8ec:	a027883a 	mov	r19,r20
 402c8f0:	ad403fcc 	andi	r21,r21,255
 402c8f4:	ad40201c 	xori	r21,r21,128
 402c8f8:	ad7fe004 	addi	r21,r21,-128
 402c8fc:	a8000126 	beq	r21,zero,402c904 <___vfiprintf_internal_r+0x42c>
 402c900:	9cc00044 	addi	r19,r19,1
 402c904:	89c0008c 	andi	r7,r17,2
 402c908:	38000126 	beq	r7,zero,402c910 <___vfiprintf_internal_r+0x438>
 402c90c:	9cc00084 	addi	r19,r19,2
 402c910:	88c0210c 	andi	r3,r17,132
 402c914:	1801dd1e 	bne	r3,zero,402d08c <___vfiprintf_internal_r+0xbb4>
 402c918:	d9402517 	ldw	r5,148(sp)
 402c91c:	2cebc83a 	sub	r21,r5,r19
 402c920:	0541da0e 	bge	zero,r21,402d08c <___vfiprintf_internal_r+0xbb4>
 402c924:	07000404 	movi	fp,16
 402c928:	d8801c17 	ldw	r2,112(sp)
 402c92c:	e543be0e 	bge	fp,r21,402d828 <___vfiprintf_internal_r+0x1350>
 402c930:	01400034 	movhi	r5,0
 402c934:	2940bc04 	addi	r5,r5,752
 402c938:	dc002715 	stw	r16,156(sp)
 402c93c:	d9801b17 	ldw	r6,108(sp)
 402c940:	a821883a 	mov	r16,r21
 402c944:	d9402315 	stw	r5,140(sp)
 402c948:	028001c4 	movi	r10,7
 402c94c:	d9c02915 	stw	r7,164(sp)
 402c950:	182b883a 	mov	r21,r3
 402c954:	00000506 	br	402c96c <___vfiprintf_internal_r+0x494>
 402c958:	31000084 	addi	r4,r6,2
 402c95c:	42000204 	addi	r8,r8,8
 402c960:	180d883a 	mov	r6,r3
 402c964:	843ffc04 	addi	r16,r16,-16
 402c968:	e4000f0e 	bge	fp,r16,402c9a8 <___vfiprintf_internal_r+0x4d0>
 402c96c:	01000034 	movhi	r4,0
 402c970:	10800404 	addi	r2,r2,16
 402c974:	30c00044 	addi	r3,r6,1
 402c978:	2100bc04 	addi	r4,r4,752
 402c97c:	41000015 	stw	r4,0(r8)
 402c980:	47000115 	stw	fp,4(r8)
 402c984:	d8801c15 	stw	r2,112(sp)
 402c988:	d8c01b15 	stw	r3,108(sp)
 402c98c:	50fff20e 	bge	r10,r3,402c958 <__flash_rwdata_start+0xffffa084>
 402c990:	1001b21e 	bne	r2,zero,402d05c <___vfiprintf_internal_r+0xb84>
 402c994:	843ffc04 	addi	r16,r16,-16
 402c998:	000d883a 	mov	r6,zero
 402c99c:	01000044 	movi	r4,1
 402c9a0:	d811883a 	mov	r8,sp
 402c9a4:	e43ff116 	blt	fp,r16,402c96c <__flash_rwdata_start+0xffffa098>
 402c9a8:	a807883a 	mov	r3,r21
 402c9ac:	d9c02917 	ldw	r7,164(sp)
 402c9b0:	802b883a 	mov	r21,r16
 402c9b4:	dc002717 	ldw	r16,156(sp)
 402c9b8:	d9402317 	ldw	r5,140(sp)
 402c9bc:	a885883a 	add	r2,r21,r2
 402c9c0:	45400115 	stw	r21,4(r8)
 402c9c4:	41400015 	stw	r5,0(r8)
 402c9c8:	d8801c15 	stw	r2,112(sp)
 402c9cc:	d9001b15 	stw	r4,108(sp)
 402c9d0:	014001c4 	movi	r5,7
 402c9d4:	29026216 	blt	r5,r4,402d360 <___vfiprintf_internal_r+0xe88>
 402c9d8:	d9801d87 	ldb	r6,118(sp)
 402c9dc:	42000204 	addi	r8,r8,8
 402c9e0:	21400044 	addi	r5,r4,1
 402c9e4:	3001ae1e 	bne	r6,zero,402d0a0 <___vfiprintf_internal_r+0xbc8>
 402c9e8:	3801bb26 	beq	r7,zero,402d0d8 <___vfiprintf_internal_r+0xc00>
 402c9ec:	d9001d04 	addi	r4,sp,116
 402c9f0:	10800084 	addi	r2,r2,2
 402c9f4:	41000015 	stw	r4,0(r8)
 402c9f8:	01000084 	movi	r4,2
 402c9fc:	41000115 	stw	r4,4(r8)
 402ca00:	d8801c15 	stw	r2,112(sp)
 402ca04:	d9401b15 	stw	r5,108(sp)
 402ca08:	010001c4 	movi	r4,7
 402ca0c:	2142680e 	bge	r4,r5,402d3b0 <___vfiprintf_internal_r+0xed8>
 402ca10:	1002b11e 	bne	r2,zero,402d4d8 <___vfiprintf_internal_r+0x1000>
 402ca14:	01802004 	movi	r6,128
 402ca18:	01400044 	movi	r5,1
 402ca1c:	0009883a 	mov	r4,zero
 402ca20:	d811883a 	mov	r8,sp
 402ca24:	1981ae1e 	bne	r3,r6,402d0e0 <___vfiprintf_internal_r+0xc08>
 402ca28:	d8c02517 	ldw	r3,148(sp)
 402ca2c:	1cf9c83a 	sub	fp,r3,r19
 402ca30:	0701ab0e 	bge	zero,fp,402d0e0 <___vfiprintf_internal_r+0xc08>
 402ca34:	05400404 	movi	r21,16
 402ca38:	af03a90e 	bge	r21,fp,402d8e0 <___vfiprintf_internal_r+0x1408>
 402ca3c:	01400034 	movhi	r5,0
 402ca40:	2940b804 	addi	r5,r5,736
 402ca44:	d9402315 	stw	r5,140(sp)
 402ca48:	01c001c4 	movi	r7,7
 402ca4c:	00000506 	br	402ca64 <___vfiprintf_internal_r+0x58c>
 402ca50:	21800084 	addi	r6,r4,2
 402ca54:	42000204 	addi	r8,r8,8
 402ca58:	1809883a 	mov	r4,r3
 402ca5c:	e73ffc04 	addi	fp,fp,-16
 402ca60:	af000d0e 	bge	r21,fp,402ca98 <___vfiprintf_internal_r+0x5c0>
 402ca64:	10800404 	addi	r2,r2,16
 402ca68:	20c00044 	addi	r3,r4,1
 402ca6c:	44800015 	stw	r18,0(r8)
 402ca70:	45400115 	stw	r21,4(r8)
 402ca74:	d8801c15 	stw	r2,112(sp)
 402ca78:	d8c01b15 	stw	r3,108(sp)
 402ca7c:	38fff40e 	bge	r7,r3,402ca50 <__flash_rwdata_start+0xffffa17c>
 402ca80:	10022b1e 	bne	r2,zero,402d330 <___vfiprintf_internal_r+0xe58>
 402ca84:	e73ffc04 	addi	fp,fp,-16
 402ca88:	01800044 	movi	r6,1
 402ca8c:	0009883a 	mov	r4,zero
 402ca90:	d811883a 	mov	r8,sp
 402ca94:	af3ff316 	blt	r21,fp,402ca64 <__flash_rwdata_start+0xffffa190>
 402ca98:	d8c02317 	ldw	r3,140(sp)
 402ca9c:	1705883a 	add	r2,r2,fp
 402caa0:	47000115 	stw	fp,4(r8)
 402caa4:	40c00015 	stw	r3,0(r8)
 402caa8:	d8801c15 	stw	r2,112(sp)
 402caac:	d9801b15 	stw	r6,108(sp)
 402cab0:	00c001c4 	movi	r3,7
 402cab4:	19829416 	blt	r3,r6,402d508 <___vfiprintf_internal_r+0x1030>
 402cab8:	8521c83a 	sub	r16,r16,r20
 402cabc:	42000204 	addi	r8,r8,8
 402cac0:	31400044 	addi	r5,r6,1
 402cac4:	3009883a 	mov	r4,r6
 402cac8:	04018716 	blt	zero,r16,402d0e8 <___vfiprintf_internal_r+0xc10>
 402cacc:	a085883a 	add	r2,r20,r2
 402cad0:	45c00015 	stw	r23,0(r8)
 402cad4:	45000115 	stw	r20,4(r8)
 402cad8:	d8801c15 	stw	r2,112(sp)
 402cadc:	d9401b15 	stw	r5,108(sp)
 402cae0:	00c001c4 	movi	r3,7
 402cae4:	1941c20e 	bge	r3,r5,402d1f0 <___vfiprintf_internal_r+0xd18>
 402cae8:	1002531e 	bne	r2,zero,402d438 <___vfiprintf_internal_r+0xf60>
 402caec:	d8001b15 	stw	zero,108(sp)
 402caf0:	8c40010c 	andi	r17,r17,4
 402caf4:	88023226 	beq	r17,zero,402d3c0 <___vfiprintf_internal_r+0xee8>
 402caf8:	d9002517 	ldw	r4,148(sp)
 402cafc:	24e3c83a 	sub	r17,r4,r19
 402cb00:	04432916 	blt	zero,r17,402d7a8 <___vfiprintf_internal_r+0x12d0>
 402cb04:	d8802517 	ldw	r2,148(sp)
 402cb08:	14c0010e 	bge	r2,r19,402cb10 <___vfiprintf_internal_r+0x638>
 402cb0c:	9805883a 	mov	r2,r19
 402cb10:	d8c02417 	ldw	r3,144(sp)
 402cb14:	1887883a 	add	r3,r3,r2
 402cb18:	d8c02415 	stw	r3,144(sp)
 402cb1c:	d8001b15 	stw	zero,108(sp)
 402cb20:	d811883a 	mov	r8,sp
 402cb24:	003ea006 	br	402c5a8 <__flash_rwdata_start+0xffff9cd4>
 402cb28:	8c400814 	ori	r17,r17,32
 402cb2c:	b0c00007 	ldb	r3,0(r22)
 402cb30:	003ec606 	br	402c64c <__flash_rwdata_start+0xffff9d78>
 402cb34:	b0c00007 	ldb	r3,0(r22)
 402cb38:	00801b04 	movi	r2,108
 402cb3c:	18832026 	beq	r3,r2,402d7c0 <___vfiprintf_internal_r+0x12e8>
 402cb40:	8c400414 	ori	r17,r17,16
 402cb44:	003ec106 	br	402c64c <__flash_rwdata_start+0xffff9d78>
 402cb48:	9cc03fcc 	andi	r19,r19,255
 402cb4c:	b811883a 	mov	r8,r23
 402cb50:	9803981e 	bne	r19,zero,402d9b4 <___vfiprintf_internal_r+0x14dc>
 402cb54:	8880080c 	andi	r2,r17,32
 402cb58:	1002be26 	beq	r2,zero,402d654 <___vfiprintf_internal_r+0x117c>
 402cb5c:	d9002217 	ldw	r4,136(sp)
 402cb60:	d9402417 	ldw	r5,144(sp)
 402cb64:	20800017 	ldw	r2,0(r4)
 402cb68:	2807d7fa 	srai	r3,r5,31
 402cb6c:	21000104 	addi	r4,r4,4
 402cb70:	d9002215 	stw	r4,136(sp)
 402cb74:	11400015 	stw	r5,0(r2)
 402cb78:	10c00115 	stw	r3,4(r2)
 402cb7c:	003e8a06 	br	402c5a8 <__flash_rwdata_start+0xffff9cd4>
 402cb80:	9cc03fcc 	andi	r19,r19,255
 402cb84:	b811883a 	mov	r8,r23
 402cb88:	9803871e 	bne	r19,zero,402d9a8 <___vfiprintf_internal_r+0x14d0>
 402cb8c:	8880080c 	andi	r2,r17,32
 402cb90:	10009a26 	beq	r2,zero,402cdfc <___vfiprintf_internal_r+0x924>
 402cb94:	d9002217 	ldw	r4,136(sp)
 402cb98:	d8001d85 	stb	zero,118(sp)
 402cb9c:	20800204 	addi	r2,r4,8
 402cba0:	24c00017 	ldw	r19,0(r4)
 402cba4:	25000117 	ldw	r20,4(r4)
 402cba8:	8002a416 	blt	r16,zero,402d63c <___vfiprintf_internal_r+0x1164>
 402cbac:	013fdfc4 	movi	r4,-129
 402cbb0:	9d06b03a 	or	r3,r19,r20
 402cbb4:	d8802215 	stw	r2,136(sp)
 402cbb8:	8922703a 	and	r17,r17,r4
 402cbbc:	18009b26 	beq	r3,zero,402ce2c <___vfiprintf_internal_r+0x954>
 402cbc0:	002b883a 	mov	r21,zero
 402cbc4:	ddc01a04 	addi	r23,sp,104
 402cbc8:	9806d0fa 	srli	r3,r19,3
 402cbcc:	a008977a 	slli	r4,r20,29
 402cbd0:	a028d0fa 	srli	r20,r20,3
 402cbd4:	9cc001cc 	andi	r19,r19,7
 402cbd8:	98800c04 	addi	r2,r19,48
 402cbdc:	bdffffc4 	addi	r23,r23,-1
 402cbe0:	20e6b03a 	or	r19,r4,r3
 402cbe4:	b8800005 	stb	r2,0(r23)
 402cbe8:	9d06b03a 	or	r3,r19,r20
 402cbec:	183ff61e 	bne	r3,zero,402cbc8 <__flash_rwdata_start+0xffffa2f4>
 402cbf0:	88c0004c 	andi	r3,r17,1
 402cbf4:	18021f1e 	bne	r3,zero,402d474 <___vfiprintf_internal_r+0xf9c>
 402cbf8:	d9401e17 	ldw	r5,120(sp)
 402cbfc:	2de9c83a 	sub	r20,r5,r23
 402cc00:	003f3806 	br	402c8e4 <__flash_rwdata_start+0xffffa010>
 402cc04:	9cc03fcc 	andi	r19,r19,255
 402cc08:	b811883a 	mov	r8,r23
 402cc0c:	98034f1e 	bne	r19,zero,402d94c <___vfiprintf_internal_r+0x1474>
 402cc10:	00800034 	movhi	r2,0
 402cc14:	10805804 	addi	r2,r2,352
 402cc18:	d8802615 	stw	r2,152(sp)
 402cc1c:	8880080c 	andi	r2,r17,32
 402cc20:	1000ac26 	beq	r2,zero,402ced4 <___vfiprintf_internal_r+0x9fc>
 402cc24:	d9002217 	ldw	r4,136(sp)
 402cc28:	24c00017 	ldw	r19,0(r4)
 402cc2c:	25000117 	ldw	r20,4(r4)
 402cc30:	21000204 	addi	r4,r4,8
 402cc34:	d9002215 	stw	r4,136(sp)
 402cc38:	8880004c 	andi	r2,r17,1
 402cc3c:	1001e726 	beq	r2,zero,402d3dc <___vfiprintf_internal_r+0xf04>
 402cc40:	9d04b03a 	or	r2,r19,r20
 402cc44:	10025c1e 	bne	r2,zero,402d5b8 <___vfiprintf_internal_r+0x10e0>
 402cc48:	d8001d85 	stb	zero,118(sp)
 402cc4c:	80024416 	blt	r16,zero,402d560 <___vfiprintf_internal_r+0x1088>
 402cc50:	00bfdfc4 	movi	r2,-129
 402cc54:	88a2703a 	and	r17,r17,r2
 402cc58:	003f1d06 	br	402c8d0 <__flash_rwdata_start+0xffff9ffc>
 402cc5c:	d8c02217 	ldw	r3,136(sp)
 402cc60:	04c00044 	movi	r19,1
 402cc64:	b811883a 	mov	r8,r23
 402cc68:	18800017 	ldw	r2,0(r3)
 402cc6c:	18c00104 	addi	r3,r3,4
 402cc70:	d8001d85 	stb	zero,118(sp)
 402cc74:	d8801005 	stb	r2,64(sp)
 402cc78:	d8c02215 	stw	r3,136(sp)
 402cc7c:	9829883a 	mov	r20,r19
 402cc80:	ddc01004 	addi	r23,sp,64
 402cc84:	0021883a 	mov	r16,zero
 402cc88:	003f1e06 	br	402c904 <__flash_rwdata_start+0xffffa030>
 402cc8c:	9cc03fcc 	andi	r19,r19,255
 402cc90:	b811883a 	mov	r8,r23
 402cc94:	9803331e 	bne	r19,zero,402d964 <___vfiprintf_internal_r+0x148c>
 402cc98:	8880080c 	andi	r2,r17,32
 402cc9c:	10004826 	beq	r2,zero,402cdc0 <___vfiprintf_internal_r+0x8e8>
 402cca0:	d9002217 	ldw	r4,136(sp)
 402cca4:	20800117 	ldw	r2,4(r4)
 402cca8:	24c00017 	ldw	r19,0(r4)
 402ccac:	21000204 	addi	r4,r4,8
 402ccb0:	d9002215 	stw	r4,136(sp)
 402ccb4:	1029883a 	mov	r20,r2
 402ccb8:	10024c16 	blt	r2,zero,402d5ec <___vfiprintf_internal_r+0x1114>
 402ccbc:	dd401d83 	ldbu	r21,118(sp)
 402ccc0:	80007116 	blt	r16,zero,402ce88 <___vfiprintf_internal_r+0x9b0>
 402ccc4:	00ffdfc4 	movi	r3,-129
 402ccc8:	9d04b03a 	or	r2,r19,r20
 402cccc:	88e2703a 	and	r17,r17,r3
 402ccd0:	1000d126 	beq	r2,zero,402d018 <___vfiprintf_internal_r+0xb40>
 402ccd4:	a0023526 	beq	r20,zero,402d5ac <___vfiprintf_internal_r+0x10d4>
 402ccd8:	ddc01a04 	addi	r23,sp,104
 402ccdc:	4039883a 	mov	fp,r8
 402cce0:	9809883a 	mov	r4,r19
 402cce4:	a00b883a 	mov	r5,r20
 402cce8:	01800284 	movi	r6,10
 402ccec:	000f883a 	mov	r7,zero
 402ccf0:	402f58c0 	call	402f58c <__umoddi3>
 402ccf4:	10800c04 	addi	r2,r2,48
 402ccf8:	bdffffc4 	addi	r23,r23,-1
 402ccfc:	9809883a 	mov	r4,r19
 402cd00:	a00b883a 	mov	r5,r20
 402cd04:	b8800005 	stb	r2,0(r23)
 402cd08:	01800284 	movi	r6,10
 402cd0c:	000f883a 	mov	r7,zero
 402cd10:	402ef900 	call	402ef90 <__udivdi3>
 402cd14:	1027883a 	mov	r19,r2
 402cd18:	10c4b03a 	or	r2,r2,r3
 402cd1c:	1829883a 	mov	r20,r3
 402cd20:	103fef1e 	bne	r2,zero,402cce0 <__flash_rwdata_start+0xffffa40c>
 402cd24:	d9001e17 	ldw	r4,120(sp)
 402cd28:	e011883a 	mov	r8,fp
 402cd2c:	25e9c83a 	sub	r20,r4,r23
 402cd30:	003eec06 	br	402c8e4 <__flash_rwdata_start+0xffffa010>
 402cd34:	d8802307 	ldb	r2,140(sp)
 402cd38:	1002361e 	bne	r2,zero,402d614 <___vfiprintf_internal_r+0x113c>
 402cd3c:	00c00804 	movi	r3,32
 402cd40:	d8c02305 	stb	r3,140(sp)
 402cd44:	04c00044 	movi	r19,1
 402cd48:	b0c00007 	ldb	r3,0(r22)
 402cd4c:	003e3f06 	br	402c64c <__flash_rwdata_start+0xffff9d78>
 402cd50:	8c400054 	ori	r17,r17,1
 402cd54:	b0c00007 	ldb	r3,0(r22)
 402cd58:	003e3c06 	br	402c64c <__flash_rwdata_start+0xffff9d78>
 402cd5c:	8c402014 	ori	r17,r17,128
 402cd60:	b0c00007 	ldb	r3,0(r22)
 402cd64:	003e3906 	br	402c64c <__flash_rwdata_start+0xffff9d78>
 402cd68:	dc002715 	stw	r16,156(sp)
 402cd6c:	d8002515 	stw	zero,148(sp)
 402cd70:	1f3ff404 	addi	fp,r3,-48
 402cd74:	0009883a 	mov	r4,zero
 402cd78:	b021883a 	mov	r16,r22
 402cd7c:	01400284 	movi	r5,10
 402cd80:	402572c0 	call	402572c <__mulsi3>
 402cd84:	80c00007 	ldb	r3,0(r16)
 402cd88:	e089883a 	add	r4,fp,r2
 402cd8c:	b5800044 	addi	r22,r22,1
 402cd90:	1f3ff404 	addi	fp,r3,-48
 402cd94:	b021883a 	mov	r16,r22
 402cd98:	af3ff82e 	bgeu	r21,fp,402cd7c <__flash_rwdata_start+0xffffa4a8>
 402cd9c:	d9002515 	stw	r4,148(sp)
 402cda0:	dc002717 	ldw	r16,156(sp)
 402cda4:	003e2a06 	br	402c650 <__flash_rwdata_start+0xffff9d7c>
 402cda8:	9cc03fcc 	andi	r19,r19,255
 402cdac:	b811883a 	mov	r8,r23
 402cdb0:	9802e91e 	bne	r19,zero,402d958 <___vfiprintf_internal_r+0x1480>
 402cdb4:	8c400414 	ori	r17,r17,16
 402cdb8:	8880080c 	andi	r2,r17,32
 402cdbc:	103fb81e 	bne	r2,zero,402cca0 <__flash_rwdata_start+0xffffa3cc>
 402cdc0:	8880040c 	andi	r2,r17,16
 402cdc4:	10022e26 	beq	r2,zero,402d680 <___vfiprintf_internal_r+0x11a8>
 402cdc8:	d9402217 	ldw	r5,136(sp)
 402cdcc:	2cc00017 	ldw	r19,0(r5)
 402cdd0:	29400104 	addi	r5,r5,4
 402cdd4:	d9402215 	stw	r5,136(sp)
 402cdd8:	9829d7fa 	srai	r20,r19,31
 402cddc:	a005883a 	mov	r2,r20
 402cde0:	003fb506 	br	402ccb8 <__flash_rwdata_start+0xffffa3e4>
 402cde4:	9cc03fcc 	andi	r19,r19,255
 402cde8:	b811883a 	mov	r8,r23
 402cdec:	9802fa1e 	bne	r19,zero,402d9d8 <___vfiprintf_internal_r+0x1500>
 402cdf0:	8c400414 	ori	r17,r17,16
 402cdf4:	8880080c 	andi	r2,r17,32
 402cdf8:	103f661e 	bne	r2,zero,402cb94 <__flash_rwdata_start+0xffffa2c0>
 402cdfc:	8880040c 	andi	r2,r17,16
 402ce00:	10020626 	beq	r2,zero,402d61c <___vfiprintf_internal_r+0x1144>
 402ce04:	d9402217 	ldw	r5,136(sp)
 402ce08:	d8001d85 	stb	zero,118(sp)
 402ce0c:	0029883a 	mov	r20,zero
 402ce10:	28800104 	addi	r2,r5,4
 402ce14:	2cc00017 	ldw	r19,0(r5)
 402ce18:	80020816 	blt	r16,zero,402d63c <___vfiprintf_internal_r+0x1164>
 402ce1c:	00ffdfc4 	movi	r3,-129
 402ce20:	d8802215 	stw	r2,136(sp)
 402ce24:	88e2703a 	and	r17,r17,r3
 402ce28:	983f651e 	bne	r19,zero,402cbc0 <__flash_rwdata_start+0xffffa2ec>
 402ce2c:	002b883a 	mov	r21,zero
 402ce30:	8002cf26 	beq	r16,zero,402d970 <___vfiprintf_internal_r+0x1498>
 402ce34:	0027883a 	mov	r19,zero
 402ce38:	0029883a 	mov	r20,zero
 402ce3c:	003f6106 	br	402cbc4 <__flash_rwdata_start+0xffffa2f0>
 402ce40:	9cc03fcc 	andi	r19,r19,255
 402ce44:	b811883a 	mov	r8,r23
 402ce48:	9802e01e 	bne	r19,zero,402d9cc <___vfiprintf_internal_r+0x14f4>
 402ce4c:	8c400414 	ori	r17,r17,16
 402ce50:	8880080c 	andi	r2,r17,32
 402ce54:	1000641e 	bne	r2,zero,402cfe8 <___vfiprintf_internal_r+0xb10>
 402ce58:	8880040c 	andi	r2,r17,16
 402ce5c:	1001c81e 	bne	r2,zero,402d580 <___vfiprintf_internal_r+0x10a8>
 402ce60:	8880100c 	andi	r2,r17,64
 402ce64:	d8001d85 	stb	zero,118(sp)
 402ce68:	1002281e 	bne	r2,zero,402d70c <___vfiprintf_internal_r+0x1234>
 402ce6c:	d9002217 	ldw	r4,136(sp)
 402ce70:	0029883a 	mov	r20,zero
 402ce74:	20800104 	addi	r2,r4,4
 402ce78:	24c00017 	ldw	r19,0(r4)
 402ce7c:	8001c60e 	bge	r16,zero,402d598 <___vfiprintf_internal_r+0x10c0>
 402ce80:	d8802215 	stw	r2,136(sp)
 402ce84:	002b883a 	mov	r21,zero
 402ce88:	9d04b03a 	or	r2,r19,r20
 402ce8c:	103f911e 	bne	r2,zero,402ccd4 <__flash_rwdata_start+0xffffa400>
 402ce90:	00800044 	movi	r2,1
 402ce94:	10803fcc 	andi	r2,r2,255
 402ce98:	00c00044 	movi	r3,1
 402ce9c:	10c05f26 	beq	r2,r3,402d01c <___vfiprintf_internal_r+0xb44>
 402cea0:	00c00084 	movi	r3,2
 402cea4:	10ffe31e 	bne	r2,r3,402ce34 <__flash_rwdata_start+0xffffa560>
 402cea8:	0027883a 	mov	r19,zero
 402ceac:	0029883a 	mov	r20,zero
 402ceb0:	00015106 	br	402d3f8 <___vfiprintf_internal_r+0xf20>
 402ceb4:	9cc03fcc 	andi	r19,r19,255
 402ceb8:	b811883a 	mov	r8,r23
 402cebc:	9802c01e 	bne	r19,zero,402d9c0 <___vfiprintf_internal_r+0x14e8>
 402cec0:	01400034 	movhi	r5,0
 402cec4:	29405304 	addi	r5,r5,332
 402cec8:	d9402615 	stw	r5,152(sp)
 402cecc:	8880080c 	andi	r2,r17,32
 402ced0:	103f541e 	bne	r2,zero,402cc24 <__flash_rwdata_start+0xffffa350>
 402ced4:	8880040c 	andi	r2,r17,16
 402ced8:	1001f226 	beq	r2,zero,402d6a4 <___vfiprintf_internal_r+0x11cc>
 402cedc:	d9402217 	ldw	r5,136(sp)
 402cee0:	0029883a 	mov	r20,zero
 402cee4:	2cc00017 	ldw	r19,0(r5)
 402cee8:	29400104 	addi	r5,r5,4
 402ceec:	d9402215 	stw	r5,136(sp)
 402cef0:	003f5106 	br	402cc38 <__flash_rwdata_start+0xffffa364>
 402cef4:	d8c02217 	ldw	r3,136(sp)
 402cef8:	b811883a 	mov	r8,r23
 402cefc:	d8001d85 	stb	zero,118(sp)
 402cf00:	1dc00017 	ldw	r23,0(r3)
 402cf04:	1f000104 	addi	fp,r3,4
 402cf08:	b8025926 	beq	r23,zero,402d870 <___vfiprintf_internal_r+0x1398>
 402cf0c:	80023316 	blt	r16,zero,402d7dc <___vfiprintf_internal_r+0x1304>
 402cf10:	800d883a 	mov	r6,r16
 402cf14:	000b883a 	mov	r5,zero
 402cf18:	b809883a 	mov	r4,r23
 402cf1c:	da002a15 	stw	r8,168(sp)
 402cf20:	402ac400 	call	402ac40 <memchr>
 402cf24:	da002a17 	ldw	r8,168(sp)
 402cf28:	10026826 	beq	r2,zero,402d8cc <___vfiprintf_internal_r+0x13f4>
 402cf2c:	15e9c83a 	sub	r20,r2,r23
 402cf30:	dd401d83 	ldbu	r21,118(sp)
 402cf34:	df002215 	stw	fp,136(sp)
 402cf38:	0021883a 	mov	r16,zero
 402cf3c:	003e6906 	br	402c8e4 <__flash_rwdata_start+0xffffa010>
 402cf40:	9cc03fcc 	andi	r19,r19,255
 402cf44:	b811883a 	mov	r8,r23
 402cf48:	983fc126 	beq	r19,zero,402ce50 <__flash_rwdata_start+0xffffa57c>
 402cf4c:	d8c02303 	ldbu	r3,140(sp)
 402cf50:	d8c01d85 	stb	r3,118(sp)
 402cf54:	003fbe06 	br	402ce50 <__flash_rwdata_start+0xffffa57c>
 402cf58:	d9002217 	ldw	r4,136(sp)
 402cf5c:	d9402217 	ldw	r5,136(sp)
 402cf60:	21000017 	ldw	r4,0(r4)
 402cf64:	28800104 	addi	r2,r5,4
 402cf68:	d9002515 	stw	r4,148(sp)
 402cf6c:	203e3d16 	blt	r4,zero,402c864 <__flash_rwdata_start+0xffff9f90>
 402cf70:	d8802215 	stw	r2,136(sp)
 402cf74:	b0c00007 	ldb	r3,0(r22)
 402cf78:	003db406 	br	402c64c <__flash_rwdata_start+0xffff9d78>
 402cf7c:	00c00ac4 	movi	r3,43
 402cf80:	d8c02305 	stb	r3,140(sp)
 402cf84:	04c00044 	movi	r19,1
 402cf88:	b0c00007 	ldb	r3,0(r22)
 402cf8c:	003daf06 	br	402c64c <__flash_rwdata_start+0xffff9d78>
 402cf90:	b0c00007 	ldb	r3,0(r22)
 402cf94:	01000a84 	movi	r4,42
 402cf98:	b4000044 	addi	r16,r22,1
 402cf9c:	19025e26 	beq	r3,r4,402d918 <___vfiprintf_internal_r+0x1440>
 402cfa0:	1f3ff404 	addi	fp,r3,-48
 402cfa4:	0009883a 	mov	r4,zero
 402cfa8:	af025236 	bltu	r21,fp,402d8f4 <___vfiprintf_internal_r+0x141c>
 402cfac:	01400284 	movi	r5,10
 402cfb0:	402572c0 	call	402572c <__mulsi3>
 402cfb4:	80c00007 	ldb	r3,0(r16)
 402cfb8:	1709883a 	add	r4,r2,fp
 402cfbc:	85800044 	addi	r22,r16,1
 402cfc0:	1f3ff404 	addi	fp,r3,-48
 402cfc4:	b021883a 	mov	r16,r22
 402cfc8:	af3ff82e 	bgeu	r21,fp,402cfac <__flash_rwdata_start+0xffffa6d8>
 402cfcc:	2021883a 	mov	r16,r4
 402cfd0:	203d9f0e 	bge	r4,zero,402c650 <__flash_rwdata_start+0xffff9d7c>
 402cfd4:	043fffc4 	movi	r16,-1
 402cfd8:	003d9d06 	br	402c650 <__flash_rwdata_start+0xffff9d7c>
 402cfdc:	8c401014 	ori	r17,r17,64
 402cfe0:	b0c00007 	ldb	r3,0(r22)
 402cfe4:	003d9906 	br	402c64c <__flash_rwdata_start+0xffff9d78>
 402cfe8:	d9002217 	ldw	r4,136(sp)
 402cfec:	d8001d85 	stb	zero,118(sp)
 402cff0:	20c00204 	addi	r3,r4,8
 402cff4:	24c00017 	ldw	r19,0(r4)
 402cff8:	25000117 	ldw	r20,4(r4)
 402cffc:	8001e716 	blt	r16,zero,402d79c <___vfiprintf_internal_r+0x12c4>
 402d000:	013fdfc4 	movi	r4,-129
 402d004:	9d04b03a 	or	r2,r19,r20
 402d008:	d8c02215 	stw	r3,136(sp)
 402d00c:	8922703a 	and	r17,r17,r4
 402d010:	002b883a 	mov	r21,zero
 402d014:	103f2f1e 	bne	r2,zero,402ccd4 <__flash_rwdata_start+0xffffa400>
 402d018:	803e2f26 	beq	r16,zero,402c8d8 <__flash_rwdata_start+0xffffa004>
 402d01c:	0027883a 	mov	r19,zero
 402d020:	9cc00c04 	addi	r19,r19,48
 402d024:	dcc019c5 	stb	r19,103(sp)
 402d028:	dd002817 	ldw	r20,160(sp)
 402d02c:	ddc019c4 	addi	r23,sp,103
 402d030:	003e2c06 	br	402c8e4 <__flash_rwdata_start+0xffffa010>
 402d034:	9cc03fcc 	andi	r19,r19,255
 402d038:	b811883a 	mov	r8,r23
 402d03c:	9802571e 	bne	r19,zero,402d99c <___vfiprintf_internal_r+0x14c4>
 402d040:	18005726 	beq	r3,zero,402d1a0 <___vfiprintf_internal_r+0xcc8>
 402d044:	04c00044 	movi	r19,1
 402d048:	d8c01005 	stb	r3,64(sp)
 402d04c:	d8001d85 	stb	zero,118(sp)
 402d050:	9829883a 	mov	r20,r19
 402d054:	ddc01004 	addi	r23,sp,64
 402d058:	003f0a06 	br	402cc84 <__flash_rwdata_start+0xffffa3b0>
 402d05c:	d9402017 	ldw	r5,128(sp)
 402d060:	d9002117 	ldw	r4,132(sp)
 402d064:	d9801a04 	addi	r6,sp,104
 402d068:	da802a15 	stw	r10,168(sp)
 402d06c:	402c3c40 	call	402c3c4 <__sprint_r.part.0>
 402d070:	da802a17 	ldw	r10,168(sp)
 402d074:	1000501e 	bne	r2,zero,402d1b8 <___vfiprintf_internal_r+0xce0>
 402d078:	d9801b17 	ldw	r6,108(sp)
 402d07c:	d8801c17 	ldw	r2,112(sp)
 402d080:	d811883a 	mov	r8,sp
 402d084:	31000044 	addi	r4,r6,1
 402d088:	003e3606 	br	402c964 <__flash_rwdata_start+0xffffa090>
 402d08c:	d9001b17 	ldw	r4,108(sp)
 402d090:	d8801c17 	ldw	r2,112(sp)
 402d094:	21400044 	addi	r5,r4,1
 402d098:	d9801d87 	ldb	r6,118(sp)
 402d09c:	303e5226 	beq	r6,zero,402c9e8 <__flash_rwdata_start+0xffffa114>
 402d0a0:	01800044 	movi	r6,1
 402d0a4:	d9001d84 	addi	r4,sp,118
 402d0a8:	1185883a 	add	r2,r2,r6
 402d0ac:	41000015 	stw	r4,0(r8)
 402d0b0:	41800115 	stw	r6,4(r8)
 402d0b4:	d8801c15 	stw	r2,112(sp)
 402d0b8:	d9401b15 	stw	r5,108(sp)
 402d0bc:	010001c4 	movi	r4,7
 402d0c0:	2140b00e 	bge	r4,r5,402d384 <___vfiprintf_internal_r+0xeac>
 402d0c4:	1000f61e 	bne	r2,zero,402d4a0 <___vfiprintf_internal_r+0xfc8>
 402d0c8:	3800b31e 	bne	r7,zero,402d398 <___vfiprintf_internal_r+0xec0>
 402d0cc:	0009883a 	mov	r4,zero
 402d0d0:	300b883a 	mov	r5,r6
 402d0d4:	d811883a 	mov	r8,sp
 402d0d8:	01802004 	movi	r6,128
 402d0dc:	19be5226 	beq	r3,r6,402ca28 <__flash_rwdata_start+0xffffa154>
 402d0e0:	8521c83a 	sub	r16,r16,r20
 402d0e4:	043e790e 	bge	zero,r16,402cacc <__flash_rwdata_start+0xffffa1f8>
 402d0e8:	05400404 	movi	r21,16
 402d0ec:	ac01b00e 	bge	r21,r16,402d7b0 <___vfiprintf_internal_r+0x12d8>
 402d0f0:	01400034 	movhi	r5,0
 402d0f4:	2940b804 	addi	r5,r5,736
 402d0f8:	d9402315 	stw	r5,140(sp)
 402d0fc:	070001c4 	movi	fp,7
 402d100:	00000506 	br	402d118 <___vfiprintf_internal_r+0xc40>
 402d104:	21400084 	addi	r5,r4,2
 402d108:	42000204 	addi	r8,r8,8
 402d10c:	1809883a 	mov	r4,r3
 402d110:	843ffc04 	addi	r16,r16,-16
 402d114:	ac000d0e 	bge	r21,r16,402d14c <___vfiprintf_internal_r+0xc74>
 402d118:	10800404 	addi	r2,r2,16
 402d11c:	20c00044 	addi	r3,r4,1
 402d120:	44800015 	stw	r18,0(r8)
 402d124:	45400115 	stw	r21,4(r8)
 402d128:	d8801c15 	stw	r2,112(sp)
 402d12c:	d8c01b15 	stw	r3,108(sp)
 402d130:	e0fff40e 	bge	fp,r3,402d104 <__flash_rwdata_start+0xffffa830>
 402d134:	1000101e 	bne	r2,zero,402d178 <___vfiprintf_internal_r+0xca0>
 402d138:	843ffc04 	addi	r16,r16,-16
 402d13c:	01400044 	movi	r5,1
 402d140:	0009883a 	mov	r4,zero
 402d144:	d811883a 	mov	r8,sp
 402d148:	ac3ff316 	blt	r21,r16,402d118 <__flash_rwdata_start+0xffffa844>
 402d14c:	d8c02317 	ldw	r3,140(sp)
 402d150:	1405883a 	add	r2,r2,r16
 402d154:	44000115 	stw	r16,4(r8)
 402d158:	40c00015 	stw	r3,0(r8)
 402d15c:	d8801c15 	stw	r2,112(sp)
 402d160:	d9401b15 	stw	r5,108(sp)
 402d164:	00c001c4 	movi	r3,7
 402d168:	19401916 	blt	r3,r5,402d1d0 <___vfiprintf_internal_r+0xcf8>
 402d16c:	42000204 	addi	r8,r8,8
 402d170:	29400044 	addi	r5,r5,1
 402d174:	003e5506 	br	402cacc <__flash_rwdata_start+0xffffa1f8>
 402d178:	d9402017 	ldw	r5,128(sp)
 402d17c:	d9002117 	ldw	r4,132(sp)
 402d180:	d9801a04 	addi	r6,sp,104
 402d184:	402c3c40 	call	402c3c4 <__sprint_r.part.0>
 402d188:	10000b1e 	bne	r2,zero,402d1b8 <___vfiprintf_internal_r+0xce0>
 402d18c:	d9001b17 	ldw	r4,108(sp)
 402d190:	d8801c17 	ldw	r2,112(sp)
 402d194:	d811883a 	mov	r8,sp
 402d198:	21400044 	addi	r5,r4,1
 402d19c:	003fdc06 	br	402d110 <__flash_rwdata_start+0xffffa83c>
 402d1a0:	d8801c17 	ldw	r2,112(sp)
 402d1a4:	10000426 	beq	r2,zero,402d1b8 <___vfiprintf_internal_r+0xce0>
 402d1a8:	d9402017 	ldw	r5,128(sp)
 402d1ac:	d9002117 	ldw	r4,132(sp)
 402d1b0:	d9801a04 	addi	r6,sp,104
 402d1b4:	402c3c40 	call	402c3c4 <__sprint_r.part.0>
 402d1b8:	d9402017 	ldw	r5,128(sp)
 402d1bc:	2880030b 	ldhu	r2,12(r5)
 402d1c0:	1080100c 	andi	r2,r2,64
 402d1c4:	10014d1e 	bne	r2,zero,402d6fc <___vfiprintf_internal_r+0x1224>
 402d1c8:	d8802417 	ldw	r2,144(sp)
 402d1cc:	003d9706 	br	402c82c <__flash_rwdata_start+0xffff9f58>
 402d1d0:	1000d21e 	bne	r2,zero,402d51c <___vfiprintf_internal_r+0x1044>
 402d1d4:	00c00044 	movi	r3,1
 402d1d8:	a005883a 	mov	r2,r20
 402d1dc:	ddc00015 	stw	r23,0(sp)
 402d1e0:	dd000115 	stw	r20,4(sp)
 402d1e4:	dd001c15 	stw	r20,112(sp)
 402d1e8:	d8c01b15 	stw	r3,108(sp)
 402d1ec:	d811883a 	mov	r8,sp
 402d1f0:	42000204 	addi	r8,r8,8
 402d1f4:	8c40010c 	andi	r17,r17,4
 402d1f8:	88004026 	beq	r17,zero,402d2fc <___vfiprintf_internal_r+0xe24>
 402d1fc:	d9002517 	ldw	r4,148(sp)
 402d200:	24e3c83a 	sub	r17,r4,r19
 402d204:	04403d0e 	bge	zero,r17,402d2fc <___vfiprintf_internal_r+0xe24>
 402d208:	04000404 	movi	r16,16
 402d20c:	8441a90e 	bge	r16,r17,402d8b4 <___vfiprintf_internal_r+0x13dc>
 402d210:	00c00034 	movhi	r3,0
 402d214:	18c0bc04 	addi	r3,r3,752
 402d218:	d9001b17 	ldw	r4,108(sp)
 402d21c:	d8c02315 	stw	r3,140(sp)
 402d220:	050001c4 	movi	r20,7
 402d224:	dd402117 	ldw	r21,132(sp)
 402d228:	ddc02017 	ldw	r23,128(sp)
 402d22c:	00000506 	br	402d244 <___vfiprintf_internal_r+0xd6c>
 402d230:	21400084 	addi	r5,r4,2
 402d234:	42000204 	addi	r8,r8,8
 402d238:	1809883a 	mov	r4,r3
 402d23c:	8c7ffc04 	addi	r17,r17,-16
 402d240:	84400f0e 	bge	r16,r17,402d280 <___vfiprintf_internal_r+0xda8>
 402d244:	01400034 	movhi	r5,0
 402d248:	10800404 	addi	r2,r2,16
 402d24c:	20c00044 	addi	r3,r4,1
 402d250:	2940bc04 	addi	r5,r5,752
 402d254:	41400015 	stw	r5,0(r8)
 402d258:	44000115 	stw	r16,4(r8)
 402d25c:	d8801c15 	stw	r2,112(sp)
 402d260:	d8c01b15 	stw	r3,108(sp)
 402d264:	a0fff20e 	bge	r20,r3,402d230 <__flash_rwdata_start+0xffffa95c>
 402d268:	1000141e 	bne	r2,zero,402d2bc <___vfiprintf_internal_r+0xde4>
 402d26c:	8c7ffc04 	addi	r17,r17,-16
 402d270:	01400044 	movi	r5,1
 402d274:	0009883a 	mov	r4,zero
 402d278:	d811883a 	mov	r8,sp
 402d27c:	847ff116 	blt	r16,r17,402d244 <__flash_rwdata_start+0xffffa970>
 402d280:	d8c02317 	ldw	r3,140(sp)
 402d284:	1445883a 	add	r2,r2,r17
 402d288:	44400115 	stw	r17,4(r8)
 402d28c:	40c00015 	stw	r3,0(r8)
 402d290:	d8801c15 	stw	r2,112(sp)
 402d294:	d9401b15 	stw	r5,108(sp)
 402d298:	00c001c4 	movi	r3,7
 402d29c:	1940170e 	bge	r3,r5,402d2fc <___vfiprintf_internal_r+0xe24>
 402d2a0:	1000101e 	bne	r2,zero,402d2e4 <___vfiprintf_internal_r+0xe0c>
 402d2a4:	d8802517 	ldw	r2,148(sp)
 402d2a8:	14c11616 	blt	r2,r19,402d704 <___vfiprintf_internal_r+0x122c>
 402d2ac:	d9002417 	ldw	r4,144(sp)
 402d2b0:	2089883a 	add	r4,r4,r2
 402d2b4:	d9002415 	stw	r4,144(sp)
 402d2b8:	003e1806 	br	402cb1c <__flash_rwdata_start+0xffffa248>
 402d2bc:	d9801a04 	addi	r6,sp,104
 402d2c0:	b80b883a 	mov	r5,r23
 402d2c4:	a809883a 	mov	r4,r21
 402d2c8:	402c3c40 	call	402c3c4 <__sprint_r.part.0>
 402d2cc:	103fba1e 	bne	r2,zero,402d1b8 <__flash_rwdata_start+0xffffa8e4>
 402d2d0:	d9001b17 	ldw	r4,108(sp)
 402d2d4:	d8801c17 	ldw	r2,112(sp)
 402d2d8:	d811883a 	mov	r8,sp
 402d2dc:	21400044 	addi	r5,r4,1
 402d2e0:	003fd606 	br	402d23c <__flash_rwdata_start+0xffffa968>
 402d2e4:	d9402017 	ldw	r5,128(sp)
 402d2e8:	d9002117 	ldw	r4,132(sp)
 402d2ec:	d9801a04 	addi	r6,sp,104
 402d2f0:	402c3c40 	call	402c3c4 <__sprint_r.part.0>
 402d2f4:	103fb01e 	bne	r2,zero,402d1b8 <__flash_rwdata_start+0xffffa8e4>
 402d2f8:	d8801c17 	ldw	r2,112(sp)
 402d2fc:	d8c02517 	ldw	r3,148(sp)
 402d300:	1cc0010e 	bge	r3,r19,402d308 <___vfiprintf_internal_r+0xe30>
 402d304:	9807883a 	mov	r3,r19
 402d308:	d9002417 	ldw	r4,144(sp)
 402d30c:	20c9883a 	add	r4,r4,r3
 402d310:	d9002415 	stw	r4,144(sp)
 402d314:	103e0126 	beq	r2,zero,402cb1c <__flash_rwdata_start+0xffffa248>
 402d318:	d9402017 	ldw	r5,128(sp)
 402d31c:	d9002117 	ldw	r4,132(sp)
 402d320:	d9801a04 	addi	r6,sp,104
 402d324:	402c3c40 	call	402c3c4 <__sprint_r.part.0>
 402d328:	103dfc26 	beq	r2,zero,402cb1c <__flash_rwdata_start+0xffffa248>
 402d32c:	003fa206 	br	402d1b8 <__flash_rwdata_start+0xffffa8e4>
 402d330:	d9402017 	ldw	r5,128(sp)
 402d334:	d9002117 	ldw	r4,132(sp)
 402d338:	d9801a04 	addi	r6,sp,104
 402d33c:	d9c02b15 	stw	r7,172(sp)
 402d340:	402c3c40 	call	402c3c4 <__sprint_r.part.0>
 402d344:	d9c02b17 	ldw	r7,172(sp)
 402d348:	103f9b1e 	bne	r2,zero,402d1b8 <__flash_rwdata_start+0xffffa8e4>
 402d34c:	d9001b17 	ldw	r4,108(sp)
 402d350:	d8801c17 	ldw	r2,112(sp)
 402d354:	d811883a 	mov	r8,sp
 402d358:	21800044 	addi	r6,r4,1
 402d35c:	003dbf06 	br	402ca5c <__flash_rwdata_start+0xffffa188>
 402d360:	1000d81e 	bne	r2,zero,402d6c4 <___vfiprintf_internal_r+0x11ec>
 402d364:	d9001d87 	ldb	r4,118(sp)
 402d368:	20000a26 	beq	r4,zero,402d394 <___vfiprintf_internal_r+0xebc>
 402d36c:	00800044 	movi	r2,1
 402d370:	d9001d84 	addi	r4,sp,118
 402d374:	100b883a 	mov	r5,r2
 402d378:	d9000015 	stw	r4,0(sp)
 402d37c:	d8800115 	stw	r2,4(sp)
 402d380:	d811883a 	mov	r8,sp
 402d384:	2809883a 	mov	r4,r5
 402d388:	42000204 	addi	r8,r8,8
 402d38c:	29400044 	addi	r5,r5,1
 402d390:	003d9506 	br	402c9e8 <__flash_rwdata_start+0xffffa114>
 402d394:	3800fd26 	beq	r7,zero,402d78c <___vfiprintf_internal_r+0x12b4>
 402d398:	00800084 	movi	r2,2
 402d39c:	d9001d04 	addi	r4,sp,116
 402d3a0:	d9000015 	stw	r4,0(sp)
 402d3a4:	d8800115 	stw	r2,4(sp)
 402d3a8:	01400044 	movi	r5,1
 402d3ac:	d811883a 	mov	r8,sp
 402d3b0:	2809883a 	mov	r4,r5
 402d3b4:	42000204 	addi	r8,r8,8
 402d3b8:	29400044 	addi	r5,r5,1
 402d3bc:	003f4606 	br	402d0d8 <__flash_rwdata_start+0xffffa804>
 402d3c0:	d8802517 	ldw	r2,148(sp)
 402d3c4:	14c0010e 	bge	r2,r19,402d3cc <___vfiprintf_internal_r+0xef4>
 402d3c8:	9805883a 	mov	r2,r19
 402d3cc:	d9402417 	ldw	r5,144(sp)
 402d3d0:	288b883a 	add	r5,r5,r2
 402d3d4:	d9402415 	stw	r5,144(sp)
 402d3d8:	003dd006 	br	402cb1c <__flash_rwdata_start+0xffffa248>
 402d3dc:	d8001d85 	stb	zero,118(sp)
 402d3e0:	80005d16 	blt	r16,zero,402d558 <___vfiprintf_internal_r+0x1080>
 402d3e4:	00ffdfc4 	movi	r3,-129
 402d3e8:	9d04b03a 	or	r2,r19,r20
 402d3ec:	88e2703a 	and	r17,r17,r3
 402d3f0:	103d3726 	beq	r2,zero,402c8d0 <__flash_rwdata_start+0xffff9ffc>
 402d3f4:	002b883a 	mov	r21,zero
 402d3f8:	d9002617 	ldw	r4,152(sp)
 402d3fc:	ddc01a04 	addi	r23,sp,104
 402d400:	988003cc 	andi	r2,r19,15
 402d404:	a006973a 	slli	r3,r20,28
 402d408:	2085883a 	add	r2,r4,r2
 402d40c:	9826d13a 	srli	r19,r19,4
 402d410:	10800003 	ldbu	r2,0(r2)
 402d414:	a028d13a 	srli	r20,r20,4
 402d418:	bdffffc4 	addi	r23,r23,-1
 402d41c:	1ce6b03a 	or	r19,r3,r19
 402d420:	b8800005 	stb	r2,0(r23)
 402d424:	9d04b03a 	or	r2,r19,r20
 402d428:	103ff51e 	bne	r2,zero,402d400 <__flash_rwdata_start+0xffffab2c>
 402d42c:	d8801e17 	ldw	r2,120(sp)
 402d430:	15e9c83a 	sub	r20,r2,r23
 402d434:	003d2b06 	br	402c8e4 <__flash_rwdata_start+0xffffa010>
 402d438:	d9402017 	ldw	r5,128(sp)
 402d43c:	d9002117 	ldw	r4,132(sp)
 402d440:	d9801a04 	addi	r6,sp,104
 402d444:	402c3c40 	call	402c3c4 <__sprint_r.part.0>
 402d448:	103f5b1e 	bne	r2,zero,402d1b8 <__flash_rwdata_start+0xffffa8e4>
 402d44c:	d8801c17 	ldw	r2,112(sp)
 402d450:	d811883a 	mov	r8,sp
 402d454:	003f6706 	br	402d1f4 <__flash_rwdata_start+0xffffa920>
 402d458:	d9402017 	ldw	r5,128(sp)
 402d45c:	d9002117 	ldw	r4,132(sp)
 402d460:	d9801a04 	addi	r6,sp,104
 402d464:	402c3c40 	call	402c3c4 <__sprint_r.part.0>
 402d468:	103f531e 	bne	r2,zero,402d1b8 <__flash_rwdata_start+0xffffa8e4>
 402d46c:	d811883a 	mov	r8,sp
 402d470:	003cd906 	br	402c7d8 <__flash_rwdata_start+0xffff9f04>
 402d474:	10803fcc 	andi	r2,r2,255
 402d478:	1080201c 	xori	r2,r2,128
 402d47c:	10bfe004 	addi	r2,r2,-128
 402d480:	00c00c04 	movi	r3,48
 402d484:	10ffe926 	beq	r2,r3,402d42c <__flash_rwdata_start+0xffffab58>
 402d488:	b8ffffc5 	stb	r3,-1(r23)
 402d48c:	d8c01e17 	ldw	r3,120(sp)
 402d490:	b8bfffc4 	addi	r2,r23,-1
 402d494:	102f883a 	mov	r23,r2
 402d498:	18a9c83a 	sub	r20,r3,r2
 402d49c:	003d1106 	br	402c8e4 <__flash_rwdata_start+0xffffa010>
 402d4a0:	d9402017 	ldw	r5,128(sp)
 402d4a4:	d9002117 	ldw	r4,132(sp)
 402d4a8:	d9801a04 	addi	r6,sp,104
 402d4ac:	d8c02a15 	stw	r3,168(sp)
 402d4b0:	d9c02b15 	stw	r7,172(sp)
 402d4b4:	402c3c40 	call	402c3c4 <__sprint_r.part.0>
 402d4b8:	d8c02a17 	ldw	r3,168(sp)
 402d4bc:	d9c02b17 	ldw	r7,172(sp)
 402d4c0:	103f3d1e 	bne	r2,zero,402d1b8 <__flash_rwdata_start+0xffffa8e4>
 402d4c4:	d9001b17 	ldw	r4,108(sp)
 402d4c8:	d8801c17 	ldw	r2,112(sp)
 402d4cc:	d811883a 	mov	r8,sp
 402d4d0:	21400044 	addi	r5,r4,1
 402d4d4:	003d4406 	br	402c9e8 <__flash_rwdata_start+0xffffa114>
 402d4d8:	d9402017 	ldw	r5,128(sp)
 402d4dc:	d9002117 	ldw	r4,132(sp)
 402d4e0:	d9801a04 	addi	r6,sp,104
 402d4e4:	d8c02a15 	stw	r3,168(sp)
 402d4e8:	402c3c40 	call	402c3c4 <__sprint_r.part.0>
 402d4ec:	d8c02a17 	ldw	r3,168(sp)
 402d4f0:	103f311e 	bne	r2,zero,402d1b8 <__flash_rwdata_start+0xffffa8e4>
 402d4f4:	d9001b17 	ldw	r4,108(sp)
 402d4f8:	d8801c17 	ldw	r2,112(sp)
 402d4fc:	d811883a 	mov	r8,sp
 402d500:	21400044 	addi	r5,r4,1
 402d504:	003ef406 	br	402d0d8 <__flash_rwdata_start+0xffffa804>
 402d508:	1000bd1e 	bne	r2,zero,402d800 <___vfiprintf_internal_r+0x1328>
 402d50c:	01400044 	movi	r5,1
 402d510:	0009883a 	mov	r4,zero
 402d514:	d811883a 	mov	r8,sp
 402d518:	003ef106 	br	402d0e0 <__flash_rwdata_start+0xffffa80c>
 402d51c:	d9402017 	ldw	r5,128(sp)
 402d520:	d9002117 	ldw	r4,132(sp)
 402d524:	d9801a04 	addi	r6,sp,104
 402d528:	402c3c40 	call	402c3c4 <__sprint_r.part.0>
 402d52c:	103f221e 	bne	r2,zero,402d1b8 <__flash_rwdata_start+0xffffa8e4>
 402d530:	d9401b17 	ldw	r5,108(sp)
 402d534:	d8801c17 	ldw	r2,112(sp)
 402d538:	d811883a 	mov	r8,sp
 402d53c:	29400044 	addi	r5,r5,1
 402d540:	003d6206 	br	402cacc <__flash_rwdata_start+0xffffa1f8>
 402d544:	01400034 	movhi	r5,0
 402d548:	29405804 	addi	r5,r5,352
 402d54c:	d9402615 	stw	r5,152(sp)
 402d550:	d8c02215 	stw	r3,136(sp)
 402d554:	1023883a 	mov	r17,r2
 402d558:	9d04b03a 	or	r2,r19,r20
 402d55c:	103fa51e 	bne	r2,zero,402d3f4 <__flash_rwdata_start+0xffffab20>
 402d560:	002b883a 	mov	r21,zero
 402d564:	00800084 	movi	r2,2
 402d568:	003e4a06 	br	402ce94 <__flash_rwdata_start+0xffffa5c0>
 402d56c:	01400034 	movhi	r5,0
 402d570:	29405804 	addi	r5,r5,352
 402d574:	002b883a 	mov	r21,zero
 402d578:	d9402615 	stw	r5,152(sp)
 402d57c:	003f9e06 	br	402d3f8 <__flash_rwdata_start+0xffffab24>
 402d580:	d9402217 	ldw	r5,136(sp)
 402d584:	d8001d85 	stb	zero,118(sp)
 402d588:	0029883a 	mov	r20,zero
 402d58c:	28800104 	addi	r2,r5,4
 402d590:	2cc00017 	ldw	r19,0(r5)
 402d594:	803e3a16 	blt	r16,zero,402ce80 <__flash_rwdata_start+0xffffa5ac>
 402d598:	00ffdfc4 	movi	r3,-129
 402d59c:	d8802215 	stw	r2,136(sp)
 402d5a0:	88e2703a 	and	r17,r17,r3
 402d5a4:	002b883a 	mov	r21,zero
 402d5a8:	983e9b26 	beq	r19,zero,402d018 <__flash_rwdata_start+0xffffa744>
 402d5ac:	00800244 	movi	r2,9
 402d5b0:	14fdc936 	bltu	r2,r19,402ccd8 <__flash_rwdata_start+0xffffa404>
 402d5b4:	003e9a06 	br	402d020 <__flash_rwdata_start+0xffffa74c>
 402d5b8:	00800c04 	movi	r2,48
 402d5bc:	d8c01d45 	stb	r3,117(sp)
 402d5c0:	d8801d05 	stb	r2,116(sp)
 402d5c4:	d8001d85 	stb	zero,118(sp)
 402d5c8:	88c00094 	ori	r3,r17,2
 402d5cc:	80009c16 	blt	r16,zero,402d840 <___vfiprintf_internal_r+0x1368>
 402d5d0:	00bfdfc4 	movi	r2,-129
 402d5d4:	88a2703a 	and	r17,r17,r2
 402d5d8:	8c400094 	ori	r17,r17,2
 402d5dc:	002b883a 	mov	r21,zero
 402d5e0:	003f8506 	br	402d3f8 <__flash_rwdata_start+0xffffab24>
 402d5e4:	b029883a 	mov	r20,r22
 402d5e8:	003c0b06 	br	402c618 <__flash_rwdata_start+0xffff9d44>
 402d5ec:	04e7c83a 	sub	r19,zero,r19
 402d5f0:	05400b44 	movi	r21,45
 402d5f4:	9804c03a 	cmpne	r2,r19,zero
 402d5f8:	0529c83a 	sub	r20,zero,r20
 402d5fc:	dd401d85 	stb	r21,118(sp)
 402d600:	a0a9c83a 	sub	r20,r20,r2
 402d604:	80009716 	blt	r16,zero,402d864 <___vfiprintf_internal_r+0x138c>
 402d608:	00bfdfc4 	movi	r2,-129
 402d60c:	88a2703a 	and	r17,r17,r2
 402d610:	003db006 	br	402ccd4 <__flash_rwdata_start+0xffffa400>
 402d614:	b0c00007 	ldb	r3,0(r22)
 402d618:	003c0c06 	br	402c64c <__flash_rwdata_start+0xffff9d78>
 402d61c:	8880100c 	andi	r2,r17,64
 402d620:	d8001d85 	stb	zero,118(sp)
 402d624:	1000461e 	bne	r2,zero,402d740 <___vfiprintf_internal_r+0x1268>
 402d628:	d9002217 	ldw	r4,136(sp)
 402d62c:	0029883a 	mov	r20,zero
 402d630:	20800104 	addi	r2,r4,4
 402d634:	24c00017 	ldw	r19,0(r4)
 402d638:	803df80e 	bge	r16,zero,402ce1c <__flash_rwdata_start+0xffffa548>
 402d63c:	9d06b03a 	or	r3,r19,r20
 402d640:	d8802215 	stw	r2,136(sp)
 402d644:	183d5e1e 	bne	r3,zero,402cbc0 <__flash_rwdata_start+0xffffa2ec>
 402d648:	002b883a 	mov	r21,zero
 402d64c:	0005883a 	mov	r2,zero
 402d650:	003e1006 	br	402ce94 <__flash_rwdata_start+0xffffa5c0>
 402d654:	8880040c 	andi	r2,r17,16
 402d658:	1000321e 	bne	r2,zero,402d724 <___vfiprintf_internal_r+0x124c>
 402d65c:	8c40100c 	andi	r17,r17,64
 402d660:	88008d26 	beq	r17,zero,402d898 <___vfiprintf_internal_r+0x13c0>
 402d664:	d9402217 	ldw	r5,136(sp)
 402d668:	d8c02417 	ldw	r3,144(sp)
 402d66c:	28800017 	ldw	r2,0(r5)
 402d670:	29400104 	addi	r5,r5,4
 402d674:	d9402215 	stw	r5,136(sp)
 402d678:	10c0000d 	sth	r3,0(r2)
 402d67c:	003bca06 	br	402c5a8 <__flash_rwdata_start+0xffff9cd4>
 402d680:	8880100c 	andi	r2,r17,64
 402d684:	10003a26 	beq	r2,zero,402d770 <___vfiprintf_internal_r+0x1298>
 402d688:	d8802217 	ldw	r2,136(sp)
 402d68c:	14c0000f 	ldh	r19,0(r2)
 402d690:	10800104 	addi	r2,r2,4
 402d694:	d8802215 	stw	r2,136(sp)
 402d698:	9829d7fa 	srai	r20,r19,31
 402d69c:	a005883a 	mov	r2,r20
 402d6a0:	003d8506 	br	402ccb8 <__flash_rwdata_start+0xffffa3e4>
 402d6a4:	8880100c 	andi	r2,r17,64
 402d6a8:	10002b26 	beq	r2,zero,402d758 <___vfiprintf_internal_r+0x1280>
 402d6ac:	d8802217 	ldw	r2,136(sp)
 402d6b0:	0029883a 	mov	r20,zero
 402d6b4:	14c0000b 	ldhu	r19,0(r2)
 402d6b8:	10800104 	addi	r2,r2,4
 402d6bc:	d8802215 	stw	r2,136(sp)
 402d6c0:	003d5d06 	br	402cc38 <__flash_rwdata_start+0xffffa364>
 402d6c4:	d9402017 	ldw	r5,128(sp)
 402d6c8:	d9002117 	ldw	r4,132(sp)
 402d6cc:	d9801a04 	addi	r6,sp,104
 402d6d0:	d8c02a15 	stw	r3,168(sp)
 402d6d4:	d9c02b15 	stw	r7,172(sp)
 402d6d8:	402c3c40 	call	402c3c4 <__sprint_r.part.0>
 402d6dc:	d8c02a17 	ldw	r3,168(sp)
 402d6e0:	d9c02b17 	ldw	r7,172(sp)
 402d6e4:	103eb41e 	bne	r2,zero,402d1b8 <__flash_rwdata_start+0xffffa8e4>
 402d6e8:	d9001b17 	ldw	r4,108(sp)
 402d6ec:	d8801c17 	ldw	r2,112(sp)
 402d6f0:	d811883a 	mov	r8,sp
 402d6f4:	21400044 	addi	r5,r4,1
 402d6f8:	003e6706 	br	402d098 <__flash_rwdata_start+0xffffa7c4>
 402d6fc:	00bfffc4 	movi	r2,-1
 402d700:	003c4a06 	br	402c82c <__flash_rwdata_start+0xffff9f58>
 402d704:	9805883a 	mov	r2,r19
 402d708:	003ee806 	br	402d2ac <__flash_rwdata_start+0xffffa9d8>
 402d70c:	d8c02217 	ldw	r3,136(sp)
 402d710:	0029883a 	mov	r20,zero
 402d714:	18800104 	addi	r2,r3,4
 402d718:	1cc0000b 	ldhu	r19,0(r3)
 402d71c:	803f9e0e 	bge	r16,zero,402d598 <__flash_rwdata_start+0xffffacc4>
 402d720:	003dd706 	br	402ce80 <__flash_rwdata_start+0xffffa5ac>
 402d724:	d8c02217 	ldw	r3,136(sp)
 402d728:	d9002417 	ldw	r4,144(sp)
 402d72c:	18800017 	ldw	r2,0(r3)
 402d730:	18c00104 	addi	r3,r3,4
 402d734:	d8c02215 	stw	r3,136(sp)
 402d738:	11000015 	stw	r4,0(r2)
 402d73c:	003b9a06 	br	402c5a8 <__flash_rwdata_start+0xffff9cd4>
 402d740:	d8c02217 	ldw	r3,136(sp)
 402d744:	0029883a 	mov	r20,zero
 402d748:	18800104 	addi	r2,r3,4
 402d74c:	1cc0000b 	ldhu	r19,0(r3)
 402d750:	803db20e 	bge	r16,zero,402ce1c <__flash_rwdata_start+0xffffa548>
 402d754:	003fb906 	br	402d63c <__flash_rwdata_start+0xffffad68>
 402d758:	d9002217 	ldw	r4,136(sp)
 402d75c:	0029883a 	mov	r20,zero
 402d760:	24c00017 	ldw	r19,0(r4)
 402d764:	21000104 	addi	r4,r4,4
 402d768:	d9002215 	stw	r4,136(sp)
 402d76c:	003d3206 	br	402cc38 <__flash_rwdata_start+0xffffa364>
 402d770:	d8c02217 	ldw	r3,136(sp)
 402d774:	1cc00017 	ldw	r19,0(r3)
 402d778:	18c00104 	addi	r3,r3,4
 402d77c:	d8c02215 	stw	r3,136(sp)
 402d780:	9829d7fa 	srai	r20,r19,31
 402d784:	a005883a 	mov	r2,r20
 402d788:	003d4b06 	br	402ccb8 <__flash_rwdata_start+0xffffa3e4>
 402d78c:	0009883a 	mov	r4,zero
 402d790:	01400044 	movi	r5,1
 402d794:	d811883a 	mov	r8,sp
 402d798:	003e4f06 	br	402d0d8 <__flash_rwdata_start+0xffffa804>
 402d79c:	d8c02215 	stw	r3,136(sp)
 402d7a0:	002b883a 	mov	r21,zero
 402d7a4:	003db806 	br	402ce88 <__flash_rwdata_start+0xffffa5b4>
 402d7a8:	d811883a 	mov	r8,sp
 402d7ac:	003e9606 	br	402d208 <__flash_rwdata_start+0xffffa934>
 402d7b0:	01000034 	movhi	r4,0
 402d7b4:	2100b804 	addi	r4,r4,736
 402d7b8:	d9002315 	stw	r4,140(sp)
 402d7bc:	003e6306 	br	402d14c <__flash_rwdata_start+0xffffa878>
 402d7c0:	b0c00043 	ldbu	r3,1(r22)
 402d7c4:	8c400814 	ori	r17,r17,32
 402d7c8:	b5800044 	addi	r22,r22,1
 402d7cc:	18c03fcc 	andi	r3,r3,255
 402d7d0:	18c0201c 	xori	r3,r3,128
 402d7d4:	18ffe004 	addi	r3,r3,-128
 402d7d8:	003b9c06 	br	402c64c <__flash_rwdata_start+0xffff9d78>
 402d7dc:	b809883a 	mov	r4,r23
 402d7e0:	da002a15 	stw	r8,168(sp)
 402d7e4:	402c32c0 	call	402c32c <strlen>
 402d7e8:	1029883a 	mov	r20,r2
 402d7ec:	dd401d83 	ldbu	r21,118(sp)
 402d7f0:	df002215 	stw	fp,136(sp)
 402d7f4:	0021883a 	mov	r16,zero
 402d7f8:	da002a17 	ldw	r8,168(sp)
 402d7fc:	003c3906 	br	402c8e4 <__flash_rwdata_start+0xffffa010>
 402d800:	d9402017 	ldw	r5,128(sp)
 402d804:	d9002117 	ldw	r4,132(sp)
 402d808:	d9801a04 	addi	r6,sp,104
 402d80c:	402c3c40 	call	402c3c4 <__sprint_r.part.0>
 402d810:	103e691e 	bne	r2,zero,402d1b8 <__flash_rwdata_start+0xffffa8e4>
 402d814:	d9001b17 	ldw	r4,108(sp)
 402d818:	d8801c17 	ldw	r2,112(sp)
 402d81c:	d811883a 	mov	r8,sp
 402d820:	21400044 	addi	r5,r4,1
 402d824:	003e2e06 	br	402d0e0 <__flash_rwdata_start+0xffffa80c>
 402d828:	01000034 	movhi	r4,0
 402d82c:	2100bc04 	addi	r4,r4,752
 402d830:	d9002315 	stw	r4,140(sp)
 402d834:	d9001b17 	ldw	r4,108(sp)
 402d838:	21000044 	addi	r4,r4,1
 402d83c:	003c5e06 	br	402c9b8 <__flash_rwdata_start+0xffffa0e4>
 402d840:	002b883a 	mov	r21,zero
 402d844:	00800084 	movi	r2,2
 402d848:	10803fcc 	andi	r2,r2,255
 402d84c:	01000044 	movi	r4,1
 402d850:	11002b26 	beq	r2,r4,402d900 <___vfiprintf_internal_r+0x1428>
 402d854:	01000084 	movi	r4,2
 402d858:	11002b1e 	bne	r2,r4,402d908 <___vfiprintf_internal_r+0x1430>
 402d85c:	1823883a 	mov	r17,r3
 402d860:	003ee506 	br	402d3f8 <__flash_rwdata_start+0xffffab24>
 402d864:	8807883a 	mov	r3,r17
 402d868:	00800044 	movi	r2,1
 402d86c:	003ff606 	br	402d848 <__flash_rwdata_start+0xffffaf74>
 402d870:	00800184 	movi	r2,6
 402d874:	1400012e 	bgeu	r2,r16,402d87c <___vfiprintf_internal_r+0x13a4>
 402d878:	1021883a 	mov	r16,r2
 402d87c:	8029883a 	mov	r20,r16
 402d880:	8027883a 	mov	r19,r16
 402d884:	80002216 	blt	r16,zero,402d910 <___vfiprintf_internal_r+0x1438>
 402d888:	05c00034 	movhi	r23,0
 402d88c:	df002215 	stw	fp,136(sp)
 402d890:	bdc05d04 	addi	r23,r23,372
 402d894:	003cfb06 	br	402cc84 <__flash_rwdata_start+0xffffa3b0>
 402d898:	d9002217 	ldw	r4,136(sp)
 402d89c:	d9402417 	ldw	r5,144(sp)
 402d8a0:	20800017 	ldw	r2,0(r4)
 402d8a4:	21000104 	addi	r4,r4,4
 402d8a8:	d9002215 	stw	r4,136(sp)
 402d8ac:	11400015 	stw	r5,0(r2)
 402d8b0:	003b3d06 	br	402c5a8 <__flash_rwdata_start+0xffff9cd4>
 402d8b4:	01400034 	movhi	r5,0
 402d8b8:	2940bc04 	addi	r5,r5,752
 402d8bc:	d9402315 	stw	r5,140(sp)
 402d8c0:	d9401b17 	ldw	r5,108(sp)
 402d8c4:	29400044 	addi	r5,r5,1
 402d8c8:	003e6d06 	br	402d280 <__flash_rwdata_start+0xffffa9ac>
 402d8cc:	8029883a 	mov	r20,r16
 402d8d0:	dd401d83 	ldbu	r21,118(sp)
 402d8d4:	df002215 	stw	fp,136(sp)
 402d8d8:	0021883a 	mov	r16,zero
 402d8dc:	003c0106 	br	402c8e4 <__flash_rwdata_start+0xffffa010>
 402d8e0:	00c00034 	movhi	r3,0
 402d8e4:	18c0b804 	addi	r3,r3,736
 402d8e8:	d8c02315 	stw	r3,140(sp)
 402d8ec:	280d883a 	mov	r6,r5
 402d8f0:	003c6906 	br	402ca98 <__flash_rwdata_start+0xffffa1c4>
 402d8f4:	802d883a 	mov	r22,r16
 402d8f8:	0021883a 	mov	r16,zero
 402d8fc:	003b5406 	br	402c650 <__flash_rwdata_start+0xffff9d7c>
 402d900:	1823883a 	mov	r17,r3
 402d904:	003cf306 	br	402ccd4 <__flash_rwdata_start+0xffffa400>
 402d908:	1823883a 	mov	r17,r3
 402d90c:	003cad06 	br	402cbc4 <__flash_rwdata_start+0xffffa2f0>
 402d910:	0027883a 	mov	r19,zero
 402d914:	003fdc06 	br	402d888 <__flash_rwdata_start+0xffffafb4>
 402d918:	d9402217 	ldw	r5,136(sp)
 402d91c:	8005883a 	mov	r2,r16
 402d920:	b0c00043 	ldbu	r3,1(r22)
 402d924:	2c000017 	ldw	r16,0(r5)
 402d928:	29000104 	addi	r4,r5,4
 402d92c:	d9002215 	stw	r4,136(sp)
 402d930:	102d883a 	mov	r22,r2
 402d934:	803fa50e 	bge	r16,zero,402d7cc <__flash_rwdata_start+0xffffaef8>
 402d938:	18c03fcc 	andi	r3,r3,255
 402d93c:	18c0201c 	xori	r3,r3,128
 402d940:	043fffc4 	movi	r16,-1
 402d944:	18ffe004 	addi	r3,r3,-128
 402d948:	003b4006 	br	402c64c <__flash_rwdata_start+0xffff9d78>
 402d94c:	d9402303 	ldbu	r5,140(sp)
 402d950:	d9401d85 	stb	r5,118(sp)
 402d954:	003cae06 	br	402cc10 <__flash_rwdata_start+0xffffa33c>
 402d958:	d8c02303 	ldbu	r3,140(sp)
 402d95c:	d8c01d85 	stb	r3,118(sp)
 402d960:	003d1406 	br	402cdb4 <__flash_rwdata_start+0xffffa4e0>
 402d964:	d8c02303 	ldbu	r3,140(sp)
 402d968:	d8c01d85 	stb	r3,118(sp)
 402d96c:	003cca06 	br	402cc98 <__flash_rwdata_start+0xffffa3c4>
 402d970:	8880004c 	andi	r2,r17,1
 402d974:	002b883a 	mov	r21,zero
 402d978:	10000526 	beq	r2,zero,402d990 <___vfiprintf_internal_r+0x14b8>
 402d97c:	00800c04 	movi	r2,48
 402d980:	d88019c5 	stb	r2,103(sp)
 402d984:	dd002817 	ldw	r20,160(sp)
 402d988:	ddc019c4 	addi	r23,sp,103
 402d98c:	003bd506 	br	402c8e4 <__flash_rwdata_start+0xffffa010>
 402d990:	0029883a 	mov	r20,zero
 402d994:	ddc01a04 	addi	r23,sp,104
 402d998:	003bd206 	br	402c8e4 <__flash_rwdata_start+0xffffa010>
 402d99c:	d9002303 	ldbu	r4,140(sp)
 402d9a0:	d9001d85 	stb	r4,118(sp)
 402d9a4:	003da606 	br	402d040 <__flash_rwdata_start+0xffffa76c>
 402d9a8:	d8c02303 	ldbu	r3,140(sp)
 402d9ac:	d8c01d85 	stb	r3,118(sp)
 402d9b0:	003c7606 	br	402cb8c <__flash_rwdata_start+0xffffa2b8>
 402d9b4:	d8c02303 	ldbu	r3,140(sp)
 402d9b8:	d8c01d85 	stb	r3,118(sp)
 402d9bc:	003c6506 	br	402cb54 <__flash_rwdata_start+0xffffa280>
 402d9c0:	d9002303 	ldbu	r4,140(sp)
 402d9c4:	d9001d85 	stb	r4,118(sp)
 402d9c8:	003d3d06 	br	402cec0 <__flash_rwdata_start+0xffffa5ec>
 402d9cc:	d8c02303 	ldbu	r3,140(sp)
 402d9d0:	d8c01d85 	stb	r3,118(sp)
 402d9d4:	003d1d06 	br	402ce4c <__flash_rwdata_start+0xffffa578>
 402d9d8:	d8c02303 	ldbu	r3,140(sp)
 402d9dc:	d8c01d85 	stb	r3,118(sp)
 402d9e0:	003d0306 	br	402cdf0 <__flash_rwdata_start+0xffffa51c>

0402d9e4 <__vfiprintf_internal>:
 402d9e4:	00800034 	movhi	r2,0
 402d9e8:	10877804 	addi	r2,r2,7648
 402d9ec:	300f883a 	mov	r7,r6
 402d9f0:	280d883a 	mov	r6,r5
 402d9f4:	200b883a 	mov	r5,r4
 402d9f8:	11000017 	ldw	r4,0(r2)
 402d9fc:	402c4d81 	jmpi	402c4d8 <___vfiprintf_internal_r>

0402da00 <__sbprintf>:
 402da00:	2880030b 	ldhu	r2,12(r5)
 402da04:	2ac01917 	ldw	r11,100(r5)
 402da08:	2a80038b 	ldhu	r10,14(r5)
 402da0c:	2a400717 	ldw	r9,28(r5)
 402da10:	2a000917 	ldw	r8,36(r5)
 402da14:	defee204 	addi	sp,sp,-1144
 402da18:	00c10004 	movi	r3,1024
 402da1c:	dc011a15 	stw	r16,1128(sp)
 402da20:	10bfff4c 	andi	r2,r2,65533
 402da24:	2821883a 	mov	r16,r5
 402da28:	d8cb883a 	add	r5,sp,r3
 402da2c:	dc811c15 	stw	r18,1136(sp)
 402da30:	dc411b15 	stw	r17,1132(sp)
 402da34:	dfc11d15 	stw	ra,1140(sp)
 402da38:	2025883a 	mov	r18,r4
 402da3c:	d881030d 	sth	r2,1036(sp)
 402da40:	dac11915 	stw	r11,1124(sp)
 402da44:	da81038d 	sth	r10,1038(sp)
 402da48:	da410715 	stw	r9,1052(sp)
 402da4c:	da010915 	stw	r8,1060(sp)
 402da50:	dec10015 	stw	sp,1024(sp)
 402da54:	dec10415 	stw	sp,1040(sp)
 402da58:	d8c10215 	stw	r3,1032(sp)
 402da5c:	d8c10515 	stw	r3,1044(sp)
 402da60:	d8010615 	stw	zero,1048(sp)
 402da64:	402c4d80 	call	402c4d8 <___vfiprintf_internal_r>
 402da68:	1023883a 	mov	r17,r2
 402da6c:	10000416 	blt	r2,zero,402da80 <__sbprintf+0x80>
 402da70:	d9410004 	addi	r5,sp,1024
 402da74:	9009883a 	mov	r4,r18
 402da78:	40297a40 	call	40297a4 <_fflush_r>
 402da7c:	10000d1e 	bne	r2,zero,402dab4 <__sbprintf+0xb4>
 402da80:	d881030b 	ldhu	r2,1036(sp)
 402da84:	1080100c 	andi	r2,r2,64
 402da88:	10000326 	beq	r2,zero,402da98 <__sbprintf+0x98>
 402da8c:	8080030b 	ldhu	r2,12(r16)
 402da90:	10801014 	ori	r2,r2,64
 402da94:	8080030d 	sth	r2,12(r16)
 402da98:	8805883a 	mov	r2,r17
 402da9c:	dfc11d17 	ldw	ra,1140(sp)
 402daa0:	dc811c17 	ldw	r18,1136(sp)
 402daa4:	dc411b17 	ldw	r17,1132(sp)
 402daa8:	dc011a17 	ldw	r16,1128(sp)
 402daac:	dec11e04 	addi	sp,sp,1144
 402dab0:	f800283a 	ret
 402dab4:	047fffc4 	movi	r17,-1
 402dab8:	003ff106 	br	402da80 <__flash_rwdata_start+0xffffb1ac>

0402dabc <_write_r>:
 402dabc:	defffd04 	addi	sp,sp,-12
 402dac0:	2805883a 	mov	r2,r5
 402dac4:	dc000015 	stw	r16,0(sp)
 402dac8:	04000034 	movhi	r16,0
 402dacc:	dc400115 	stw	r17,4(sp)
 402dad0:	300b883a 	mov	r5,r6
 402dad4:	84078f04 	addi	r16,r16,7740
 402dad8:	2023883a 	mov	r17,r4
 402dadc:	380d883a 	mov	r6,r7
 402dae0:	1009883a 	mov	r4,r2
 402dae4:	dfc00215 	stw	ra,8(sp)
 402dae8:	80000015 	stw	zero,0(r16)
 402daec:	40305440 	call	4030544 <write>
 402daf0:	00ffffc4 	movi	r3,-1
 402daf4:	10c00526 	beq	r2,r3,402db0c <_write_r+0x50>
 402daf8:	dfc00217 	ldw	ra,8(sp)
 402dafc:	dc400117 	ldw	r17,4(sp)
 402db00:	dc000017 	ldw	r16,0(sp)
 402db04:	dec00304 	addi	sp,sp,12
 402db08:	f800283a 	ret
 402db0c:	80c00017 	ldw	r3,0(r16)
 402db10:	183ff926 	beq	r3,zero,402daf8 <__flash_rwdata_start+0xffffb224>
 402db14:	88c00015 	stw	r3,0(r17)
 402db18:	003ff706 	br	402daf8 <__flash_rwdata_start+0xffffb224>

0402db1c <_close_r>:
 402db1c:	defffd04 	addi	sp,sp,-12
 402db20:	dc000015 	stw	r16,0(sp)
 402db24:	04000034 	movhi	r16,0
 402db28:	dc400115 	stw	r17,4(sp)
 402db2c:	84078f04 	addi	r16,r16,7740
 402db30:	2023883a 	mov	r17,r4
 402db34:	2809883a 	mov	r4,r5
 402db38:	dfc00215 	stw	ra,8(sp)
 402db3c:	80000015 	stw	zero,0(r16)
 402db40:	402fcbc0 	call	402fcbc <close>
 402db44:	00ffffc4 	movi	r3,-1
 402db48:	10c00526 	beq	r2,r3,402db60 <_close_r+0x44>
 402db4c:	dfc00217 	ldw	ra,8(sp)
 402db50:	dc400117 	ldw	r17,4(sp)
 402db54:	dc000017 	ldw	r16,0(sp)
 402db58:	dec00304 	addi	sp,sp,12
 402db5c:	f800283a 	ret
 402db60:	80c00017 	ldw	r3,0(r16)
 402db64:	183ff926 	beq	r3,zero,402db4c <__flash_rwdata_start+0xffffb278>
 402db68:	88c00015 	stw	r3,0(r17)
 402db6c:	003ff706 	br	402db4c <__flash_rwdata_start+0xffffb278>

0402db70 <_calloc_r>:
 402db70:	defffe04 	addi	sp,sp,-8
 402db74:	2805883a 	mov	r2,r5
 402db78:	dc000015 	stw	r16,0(sp)
 402db7c:	300b883a 	mov	r5,r6
 402db80:	2021883a 	mov	r16,r4
 402db84:	1009883a 	mov	r4,r2
 402db88:	dfc00115 	stw	ra,4(sp)
 402db8c:	402572c0 	call	402572c <__mulsi3>
 402db90:	100b883a 	mov	r5,r2
 402db94:	8009883a 	mov	r4,r16
 402db98:	402a4340 	call	402a434 <_malloc_r>
 402db9c:	10002926 	beq	r2,zero,402dc44 <_calloc_r+0xd4>
 402dba0:	11bfff17 	ldw	r6,-4(r2)
 402dba4:	1021883a 	mov	r16,r2
 402dba8:	00bfff04 	movi	r2,-4
 402dbac:	308c703a 	and	r6,r6,r2
 402dbb0:	00c00904 	movi	r3,36
 402dbb4:	308d883a 	add	r6,r6,r2
 402dbb8:	19801636 	bltu	r3,r6,402dc14 <_calloc_r+0xa4>
 402dbbc:	008004c4 	movi	r2,19
 402dbc0:	11800b2e 	bgeu	r2,r6,402dbf0 <_calloc_r+0x80>
 402dbc4:	80000015 	stw	zero,0(r16)
 402dbc8:	80000115 	stw	zero,4(r16)
 402dbcc:	008006c4 	movi	r2,27
 402dbd0:	11801a2e 	bgeu	r2,r6,402dc3c <_calloc_r+0xcc>
 402dbd4:	80000215 	stw	zero,8(r16)
 402dbd8:	80000315 	stw	zero,12(r16)
 402dbdc:	30c0151e 	bne	r6,r3,402dc34 <_calloc_r+0xc4>
 402dbe0:	80000415 	stw	zero,16(r16)
 402dbe4:	80800604 	addi	r2,r16,24
 402dbe8:	80000515 	stw	zero,20(r16)
 402dbec:	00000106 	br	402dbf4 <_calloc_r+0x84>
 402dbf0:	8005883a 	mov	r2,r16
 402dbf4:	10000015 	stw	zero,0(r2)
 402dbf8:	10000115 	stw	zero,4(r2)
 402dbfc:	10000215 	stw	zero,8(r2)
 402dc00:	8005883a 	mov	r2,r16
 402dc04:	dfc00117 	ldw	ra,4(sp)
 402dc08:	dc000017 	ldw	r16,0(sp)
 402dc0c:	dec00204 	addi	sp,sp,8
 402dc10:	f800283a 	ret
 402dc14:	000b883a 	mov	r5,zero
 402dc18:	8009883a 	mov	r4,r16
 402dc1c:	402ae6c0 	call	402ae6c <memset>
 402dc20:	8005883a 	mov	r2,r16
 402dc24:	dfc00117 	ldw	ra,4(sp)
 402dc28:	dc000017 	ldw	r16,0(sp)
 402dc2c:	dec00204 	addi	sp,sp,8
 402dc30:	f800283a 	ret
 402dc34:	80800404 	addi	r2,r16,16
 402dc38:	003fee06 	br	402dbf4 <__flash_rwdata_start+0xffffb320>
 402dc3c:	80800204 	addi	r2,r16,8
 402dc40:	003fec06 	br	402dbf4 <__flash_rwdata_start+0xffffb320>
 402dc44:	0005883a 	mov	r2,zero
 402dc48:	003fee06 	br	402dc04 <__flash_rwdata_start+0xffffb330>

0402dc4c <_fclose_r>:
 402dc4c:	28003926 	beq	r5,zero,402dd34 <_fclose_r+0xe8>
 402dc50:	defffc04 	addi	sp,sp,-16
 402dc54:	dc400115 	stw	r17,4(sp)
 402dc58:	dc000015 	stw	r16,0(sp)
 402dc5c:	dfc00315 	stw	ra,12(sp)
 402dc60:	dc800215 	stw	r18,8(sp)
 402dc64:	2023883a 	mov	r17,r4
 402dc68:	2821883a 	mov	r16,r5
 402dc6c:	20000226 	beq	r4,zero,402dc78 <_fclose_r+0x2c>
 402dc70:	20800e17 	ldw	r2,56(r4)
 402dc74:	10002726 	beq	r2,zero,402dd14 <_fclose_r+0xc8>
 402dc78:	8080030f 	ldh	r2,12(r16)
 402dc7c:	1000071e 	bne	r2,zero,402dc9c <_fclose_r+0x50>
 402dc80:	0005883a 	mov	r2,zero
 402dc84:	dfc00317 	ldw	ra,12(sp)
 402dc88:	dc800217 	ldw	r18,8(sp)
 402dc8c:	dc400117 	ldw	r17,4(sp)
 402dc90:	dc000017 	ldw	r16,0(sp)
 402dc94:	dec00404 	addi	sp,sp,16
 402dc98:	f800283a 	ret
 402dc9c:	800b883a 	mov	r5,r16
 402dca0:	8809883a 	mov	r4,r17
 402dca4:	40295880 	call	4029588 <__sflush_r>
 402dca8:	1025883a 	mov	r18,r2
 402dcac:	80800b17 	ldw	r2,44(r16)
 402dcb0:	10000426 	beq	r2,zero,402dcc4 <_fclose_r+0x78>
 402dcb4:	81400717 	ldw	r5,28(r16)
 402dcb8:	8809883a 	mov	r4,r17
 402dcbc:	103ee83a 	callr	r2
 402dcc0:	10001616 	blt	r2,zero,402dd1c <_fclose_r+0xd0>
 402dcc4:	8080030b 	ldhu	r2,12(r16)
 402dcc8:	1080200c 	andi	r2,r2,128
 402dccc:	1000151e 	bne	r2,zero,402dd24 <_fclose_r+0xd8>
 402dcd0:	81400c17 	ldw	r5,48(r16)
 402dcd4:	28000526 	beq	r5,zero,402dcec <_fclose_r+0xa0>
 402dcd8:	80801004 	addi	r2,r16,64
 402dcdc:	28800226 	beq	r5,r2,402dce8 <_fclose_r+0x9c>
 402dce0:	8809883a 	mov	r4,r17
 402dce4:	4029d040 	call	4029d04 <_free_r>
 402dce8:	80000c15 	stw	zero,48(r16)
 402dcec:	81401117 	ldw	r5,68(r16)
 402dcf0:	28000326 	beq	r5,zero,402dd00 <_fclose_r+0xb4>
 402dcf4:	8809883a 	mov	r4,r17
 402dcf8:	4029d040 	call	4029d04 <_free_r>
 402dcfc:	80001115 	stw	zero,68(r16)
 402dd00:	4029ba00 	call	4029ba0 <__sfp_lock_acquire>
 402dd04:	8000030d 	sth	zero,12(r16)
 402dd08:	4029ba40 	call	4029ba4 <__sfp_lock_release>
 402dd0c:	9005883a 	mov	r2,r18
 402dd10:	003fdc06 	br	402dc84 <__flash_rwdata_start+0xffffb3b0>
 402dd14:	4029b900 	call	4029b90 <__sinit>
 402dd18:	003fd706 	br	402dc78 <__flash_rwdata_start+0xffffb3a4>
 402dd1c:	04bfffc4 	movi	r18,-1
 402dd20:	003fe806 	br	402dcc4 <__flash_rwdata_start+0xffffb3f0>
 402dd24:	81400417 	ldw	r5,16(r16)
 402dd28:	8809883a 	mov	r4,r17
 402dd2c:	4029d040 	call	4029d04 <_free_r>
 402dd30:	003fe706 	br	402dcd0 <__flash_rwdata_start+0xffffb3fc>
 402dd34:	0005883a 	mov	r2,zero
 402dd38:	f800283a 	ret

0402dd3c <fclose>:
 402dd3c:	00800034 	movhi	r2,0
 402dd40:	10877804 	addi	r2,r2,7648
 402dd44:	200b883a 	mov	r5,r4
 402dd48:	11000017 	ldw	r4,0(r2)
 402dd4c:	402dc4c1 	jmpi	402dc4c <_fclose_r>

0402dd50 <__fputwc>:
 402dd50:	defff804 	addi	sp,sp,-32
 402dd54:	dcc00415 	stw	r19,16(sp)
 402dd58:	dc800315 	stw	r18,12(sp)
 402dd5c:	dc000115 	stw	r16,4(sp)
 402dd60:	dfc00715 	stw	ra,28(sp)
 402dd64:	dd400615 	stw	r21,24(sp)
 402dd68:	dd000515 	stw	r20,20(sp)
 402dd6c:	dc400215 	stw	r17,8(sp)
 402dd70:	2027883a 	mov	r19,r4
 402dd74:	2825883a 	mov	r18,r5
 402dd78:	3021883a 	mov	r16,r6
 402dd7c:	402a2240 	call	402a224 <__locale_mb_cur_max>
 402dd80:	00c00044 	movi	r3,1
 402dd84:	10c03e26 	beq	r2,r3,402de80 <__fputwc+0x130>
 402dd88:	81c01704 	addi	r7,r16,92
 402dd8c:	900d883a 	mov	r6,r18
 402dd90:	d80b883a 	mov	r5,sp
 402dd94:	9809883a 	mov	r4,r19
 402dd98:	402eda80 	call	402eda8 <_wcrtomb_r>
 402dd9c:	1029883a 	mov	r20,r2
 402dda0:	00bfffc4 	movi	r2,-1
 402dda4:	a0802026 	beq	r20,r2,402de28 <__fputwc+0xd8>
 402dda8:	d9400003 	ldbu	r5,0(sp)
 402ddac:	a0001c26 	beq	r20,zero,402de20 <__fputwc+0xd0>
 402ddb0:	0023883a 	mov	r17,zero
 402ddb4:	05400284 	movi	r21,10
 402ddb8:	00000906 	br	402dde0 <__fputwc+0x90>
 402ddbc:	80800017 	ldw	r2,0(r16)
 402ddc0:	11400005 	stb	r5,0(r2)
 402ddc4:	80c00017 	ldw	r3,0(r16)
 402ddc8:	18c00044 	addi	r3,r3,1
 402ddcc:	80c00015 	stw	r3,0(r16)
 402ddd0:	8c400044 	addi	r17,r17,1
 402ddd4:	dc45883a 	add	r2,sp,r17
 402ddd8:	8d00112e 	bgeu	r17,r20,402de20 <__fputwc+0xd0>
 402dddc:	11400003 	ldbu	r5,0(r2)
 402dde0:	80c00217 	ldw	r3,8(r16)
 402dde4:	18ffffc4 	addi	r3,r3,-1
 402dde8:	80c00215 	stw	r3,8(r16)
 402ddec:	183ff30e 	bge	r3,zero,402ddbc <__flash_rwdata_start+0xffffb4e8>
 402ddf0:	80800617 	ldw	r2,24(r16)
 402ddf4:	18801916 	blt	r3,r2,402de5c <__fputwc+0x10c>
 402ddf8:	80800017 	ldw	r2,0(r16)
 402ddfc:	11400005 	stb	r5,0(r2)
 402de00:	80800017 	ldw	r2,0(r16)
 402de04:	10c00003 	ldbu	r3,0(r2)
 402de08:	10800044 	addi	r2,r2,1
 402de0c:	1d402326 	beq	r3,r21,402de9c <__fputwc+0x14c>
 402de10:	80800015 	stw	r2,0(r16)
 402de14:	8c400044 	addi	r17,r17,1
 402de18:	dc45883a 	add	r2,sp,r17
 402de1c:	8d3fef36 	bltu	r17,r20,402dddc <__flash_rwdata_start+0xffffb508>
 402de20:	9005883a 	mov	r2,r18
 402de24:	00000406 	br	402de38 <__fputwc+0xe8>
 402de28:	80c0030b 	ldhu	r3,12(r16)
 402de2c:	a005883a 	mov	r2,r20
 402de30:	18c01014 	ori	r3,r3,64
 402de34:	80c0030d 	sth	r3,12(r16)
 402de38:	dfc00717 	ldw	ra,28(sp)
 402de3c:	dd400617 	ldw	r21,24(sp)
 402de40:	dd000517 	ldw	r20,20(sp)
 402de44:	dcc00417 	ldw	r19,16(sp)
 402de48:	dc800317 	ldw	r18,12(sp)
 402de4c:	dc400217 	ldw	r17,8(sp)
 402de50:	dc000117 	ldw	r16,4(sp)
 402de54:	dec00804 	addi	sp,sp,32
 402de58:	f800283a 	ret
 402de5c:	800d883a 	mov	r6,r16
 402de60:	29403fcc 	andi	r5,r5,255
 402de64:	9809883a 	mov	r4,r19
 402de68:	402ec500 	call	402ec50 <__swbuf_r>
 402de6c:	10bfffe0 	cmpeqi	r2,r2,-1
 402de70:	10803fcc 	andi	r2,r2,255
 402de74:	103fd626 	beq	r2,zero,402ddd0 <__flash_rwdata_start+0xffffb4fc>
 402de78:	00bfffc4 	movi	r2,-1
 402de7c:	003fee06 	br	402de38 <__flash_rwdata_start+0xffffb564>
 402de80:	90ffffc4 	addi	r3,r18,-1
 402de84:	01003f84 	movi	r4,254
 402de88:	20ffbf36 	bltu	r4,r3,402dd88 <__flash_rwdata_start+0xffffb4b4>
 402de8c:	900b883a 	mov	r5,r18
 402de90:	dc800005 	stb	r18,0(sp)
 402de94:	1029883a 	mov	r20,r2
 402de98:	003fc506 	br	402ddb0 <__flash_rwdata_start+0xffffb4dc>
 402de9c:	800d883a 	mov	r6,r16
 402dea0:	a80b883a 	mov	r5,r21
 402dea4:	9809883a 	mov	r4,r19
 402dea8:	402ec500 	call	402ec50 <__swbuf_r>
 402deac:	10bfffe0 	cmpeqi	r2,r2,-1
 402deb0:	003fef06 	br	402de70 <__flash_rwdata_start+0xffffb59c>

0402deb4 <_fputwc_r>:
 402deb4:	3080030b 	ldhu	r2,12(r6)
 402deb8:	10c8000c 	andi	r3,r2,8192
 402debc:	1800051e 	bne	r3,zero,402ded4 <_fputwc_r+0x20>
 402dec0:	30c01917 	ldw	r3,100(r6)
 402dec4:	10880014 	ori	r2,r2,8192
 402dec8:	3080030d 	sth	r2,12(r6)
 402decc:	18880014 	ori	r2,r3,8192
 402ded0:	30801915 	stw	r2,100(r6)
 402ded4:	402dd501 	jmpi	402dd50 <__fputwc>

0402ded8 <fputwc>:
 402ded8:	00800034 	movhi	r2,0
 402dedc:	defffc04 	addi	sp,sp,-16
 402dee0:	10877804 	addi	r2,r2,7648
 402dee4:	dc000115 	stw	r16,4(sp)
 402dee8:	14000017 	ldw	r16,0(r2)
 402deec:	dc400215 	stw	r17,8(sp)
 402def0:	dfc00315 	stw	ra,12(sp)
 402def4:	2023883a 	mov	r17,r4
 402def8:	80000226 	beq	r16,zero,402df04 <fputwc+0x2c>
 402defc:	80800e17 	ldw	r2,56(r16)
 402df00:	10001026 	beq	r2,zero,402df44 <fputwc+0x6c>
 402df04:	2880030b 	ldhu	r2,12(r5)
 402df08:	10c8000c 	andi	r3,r2,8192
 402df0c:	1800051e 	bne	r3,zero,402df24 <fputwc+0x4c>
 402df10:	28c01917 	ldw	r3,100(r5)
 402df14:	10880014 	ori	r2,r2,8192
 402df18:	2880030d 	sth	r2,12(r5)
 402df1c:	18880014 	ori	r2,r3,8192
 402df20:	28801915 	stw	r2,100(r5)
 402df24:	280d883a 	mov	r6,r5
 402df28:	8009883a 	mov	r4,r16
 402df2c:	880b883a 	mov	r5,r17
 402df30:	dfc00317 	ldw	ra,12(sp)
 402df34:	dc400217 	ldw	r17,8(sp)
 402df38:	dc000117 	ldw	r16,4(sp)
 402df3c:	dec00404 	addi	sp,sp,16
 402df40:	402dd501 	jmpi	402dd50 <__fputwc>
 402df44:	8009883a 	mov	r4,r16
 402df48:	d9400015 	stw	r5,0(sp)
 402df4c:	4029b900 	call	4029b90 <__sinit>
 402df50:	d9400017 	ldw	r5,0(sp)
 402df54:	003feb06 	br	402df04 <__flash_rwdata_start+0xffffb630>

0402df58 <_fstat_r>:
 402df58:	defffd04 	addi	sp,sp,-12
 402df5c:	2805883a 	mov	r2,r5
 402df60:	dc000015 	stw	r16,0(sp)
 402df64:	04000034 	movhi	r16,0
 402df68:	dc400115 	stw	r17,4(sp)
 402df6c:	84078f04 	addi	r16,r16,7740
 402df70:	2023883a 	mov	r17,r4
 402df74:	300b883a 	mov	r5,r6
 402df78:	1009883a 	mov	r4,r2
 402df7c:	dfc00215 	stw	ra,8(sp)
 402df80:	80000015 	stw	zero,0(r16)
 402df84:	402fdfc0 	call	402fdfc <fstat>
 402df88:	00ffffc4 	movi	r3,-1
 402df8c:	10c00526 	beq	r2,r3,402dfa4 <_fstat_r+0x4c>
 402df90:	dfc00217 	ldw	ra,8(sp)
 402df94:	dc400117 	ldw	r17,4(sp)
 402df98:	dc000017 	ldw	r16,0(sp)
 402df9c:	dec00304 	addi	sp,sp,12
 402dfa0:	f800283a 	ret
 402dfa4:	80c00017 	ldw	r3,0(r16)
 402dfa8:	183ff926 	beq	r3,zero,402df90 <__flash_rwdata_start+0xffffb6bc>
 402dfac:	88c00015 	stw	r3,0(r17)
 402dfb0:	003ff706 	br	402df90 <__flash_rwdata_start+0xffffb6bc>

0402dfb4 <__sfvwrite_r>:
 402dfb4:	30800217 	ldw	r2,8(r6)
 402dfb8:	10006726 	beq	r2,zero,402e158 <__sfvwrite_r+0x1a4>
 402dfbc:	28c0030b 	ldhu	r3,12(r5)
 402dfc0:	defff404 	addi	sp,sp,-48
 402dfc4:	dd400715 	stw	r21,28(sp)
 402dfc8:	dd000615 	stw	r20,24(sp)
 402dfcc:	dc000215 	stw	r16,8(sp)
 402dfd0:	dfc00b15 	stw	ra,44(sp)
 402dfd4:	df000a15 	stw	fp,40(sp)
 402dfd8:	ddc00915 	stw	r23,36(sp)
 402dfdc:	dd800815 	stw	r22,32(sp)
 402dfe0:	dcc00515 	stw	r19,20(sp)
 402dfe4:	dc800415 	stw	r18,16(sp)
 402dfe8:	dc400315 	stw	r17,12(sp)
 402dfec:	1880020c 	andi	r2,r3,8
 402dff0:	2821883a 	mov	r16,r5
 402dff4:	202b883a 	mov	r21,r4
 402dff8:	3029883a 	mov	r20,r6
 402dffc:	10002726 	beq	r2,zero,402e09c <__sfvwrite_r+0xe8>
 402e000:	28800417 	ldw	r2,16(r5)
 402e004:	10002526 	beq	r2,zero,402e09c <__sfvwrite_r+0xe8>
 402e008:	1880008c 	andi	r2,r3,2
 402e00c:	a4400017 	ldw	r17,0(r20)
 402e010:	10002a26 	beq	r2,zero,402e0bc <__sfvwrite_r+0x108>
 402e014:	05a00034 	movhi	r22,32768
 402e018:	0027883a 	mov	r19,zero
 402e01c:	0025883a 	mov	r18,zero
 402e020:	b5bf0004 	addi	r22,r22,-1024
 402e024:	980d883a 	mov	r6,r19
 402e028:	a809883a 	mov	r4,r21
 402e02c:	90004626 	beq	r18,zero,402e148 <__sfvwrite_r+0x194>
 402e030:	900f883a 	mov	r7,r18
 402e034:	b480022e 	bgeu	r22,r18,402e040 <__sfvwrite_r+0x8c>
 402e038:	01e00034 	movhi	r7,32768
 402e03c:	39ff0004 	addi	r7,r7,-1024
 402e040:	80800917 	ldw	r2,36(r16)
 402e044:	81400717 	ldw	r5,28(r16)
 402e048:	103ee83a 	callr	r2
 402e04c:	00805a0e 	bge	zero,r2,402e1b8 <__sfvwrite_r+0x204>
 402e050:	a0c00217 	ldw	r3,8(r20)
 402e054:	98a7883a 	add	r19,r19,r2
 402e058:	90a5c83a 	sub	r18,r18,r2
 402e05c:	1885c83a 	sub	r2,r3,r2
 402e060:	a0800215 	stw	r2,8(r20)
 402e064:	103fef1e 	bne	r2,zero,402e024 <__flash_rwdata_start+0xffffb750>
 402e068:	0005883a 	mov	r2,zero
 402e06c:	dfc00b17 	ldw	ra,44(sp)
 402e070:	df000a17 	ldw	fp,40(sp)
 402e074:	ddc00917 	ldw	r23,36(sp)
 402e078:	dd800817 	ldw	r22,32(sp)
 402e07c:	dd400717 	ldw	r21,28(sp)
 402e080:	dd000617 	ldw	r20,24(sp)
 402e084:	dcc00517 	ldw	r19,20(sp)
 402e088:	dc800417 	ldw	r18,16(sp)
 402e08c:	dc400317 	ldw	r17,12(sp)
 402e090:	dc000217 	ldw	r16,8(sp)
 402e094:	dec00c04 	addi	sp,sp,48
 402e098:	f800283a 	ret
 402e09c:	800b883a 	mov	r5,r16
 402e0a0:	a809883a 	mov	r4,r21
 402e0a4:	4027b840 	call	4027b84 <__swsetup_r>
 402e0a8:	1000ee1e 	bne	r2,zero,402e464 <__sfvwrite_r+0x4b0>
 402e0ac:	80c0030b 	ldhu	r3,12(r16)
 402e0b0:	a4400017 	ldw	r17,0(r20)
 402e0b4:	1880008c 	andi	r2,r3,2
 402e0b8:	103fd61e 	bne	r2,zero,402e014 <__flash_rwdata_start+0xffffb740>
 402e0bc:	1880004c 	andi	r2,r3,1
 402e0c0:	1000421e 	bne	r2,zero,402e1cc <__sfvwrite_r+0x218>
 402e0c4:	0039883a 	mov	fp,zero
 402e0c8:	0025883a 	mov	r18,zero
 402e0cc:	90001a26 	beq	r18,zero,402e138 <__sfvwrite_r+0x184>
 402e0d0:	1880800c 	andi	r2,r3,512
 402e0d4:	84c00217 	ldw	r19,8(r16)
 402e0d8:	10002126 	beq	r2,zero,402e160 <__sfvwrite_r+0x1ac>
 402e0dc:	982f883a 	mov	r23,r19
 402e0e0:	94c09636 	bltu	r18,r19,402e33c <__sfvwrite_r+0x388>
 402e0e4:	1881200c 	andi	r2,r3,1152
 402e0e8:	1000a11e 	bne	r2,zero,402e370 <__sfvwrite_r+0x3bc>
 402e0ec:	81000017 	ldw	r4,0(r16)
 402e0f0:	b80d883a 	mov	r6,r23
 402e0f4:	e00b883a 	mov	r5,fp
 402e0f8:	402e5300 	call	402e530 <memmove>
 402e0fc:	80c00217 	ldw	r3,8(r16)
 402e100:	81000017 	ldw	r4,0(r16)
 402e104:	9005883a 	mov	r2,r18
 402e108:	1ce7c83a 	sub	r19,r3,r19
 402e10c:	25cf883a 	add	r7,r4,r23
 402e110:	84c00215 	stw	r19,8(r16)
 402e114:	81c00015 	stw	r7,0(r16)
 402e118:	a0c00217 	ldw	r3,8(r20)
 402e11c:	e0b9883a 	add	fp,fp,r2
 402e120:	90a5c83a 	sub	r18,r18,r2
 402e124:	18a7c83a 	sub	r19,r3,r2
 402e128:	a4c00215 	stw	r19,8(r20)
 402e12c:	983fce26 	beq	r19,zero,402e068 <__flash_rwdata_start+0xffffb794>
 402e130:	80c0030b 	ldhu	r3,12(r16)
 402e134:	903fe61e 	bne	r18,zero,402e0d0 <__flash_rwdata_start+0xffffb7fc>
 402e138:	8f000017 	ldw	fp,0(r17)
 402e13c:	8c800117 	ldw	r18,4(r17)
 402e140:	8c400204 	addi	r17,r17,8
 402e144:	003fe106 	br	402e0cc <__flash_rwdata_start+0xffffb7f8>
 402e148:	8cc00017 	ldw	r19,0(r17)
 402e14c:	8c800117 	ldw	r18,4(r17)
 402e150:	8c400204 	addi	r17,r17,8
 402e154:	003fb306 	br	402e024 <__flash_rwdata_start+0xffffb750>
 402e158:	0005883a 	mov	r2,zero
 402e15c:	f800283a 	ret
 402e160:	81000017 	ldw	r4,0(r16)
 402e164:	80800417 	ldw	r2,16(r16)
 402e168:	11005a36 	bltu	r2,r4,402e2d4 <__sfvwrite_r+0x320>
 402e16c:	85c00517 	ldw	r23,20(r16)
 402e170:	95c05836 	bltu	r18,r23,402e2d4 <__sfvwrite_r+0x320>
 402e174:	00a00034 	movhi	r2,32768
 402e178:	10bfffc4 	addi	r2,r2,-1
 402e17c:	9009883a 	mov	r4,r18
 402e180:	1480012e 	bgeu	r2,r18,402e188 <__sfvwrite_r+0x1d4>
 402e184:	1009883a 	mov	r4,r2
 402e188:	b80b883a 	mov	r5,r23
 402e18c:	40255780 	call	4025578 <__divsi3>
 402e190:	b80b883a 	mov	r5,r23
 402e194:	1009883a 	mov	r4,r2
 402e198:	402572c0 	call	402572c <__mulsi3>
 402e19c:	81400717 	ldw	r5,28(r16)
 402e1a0:	80c00917 	ldw	r3,36(r16)
 402e1a4:	100f883a 	mov	r7,r2
 402e1a8:	e00d883a 	mov	r6,fp
 402e1ac:	a809883a 	mov	r4,r21
 402e1b0:	183ee83a 	callr	r3
 402e1b4:	00bfd816 	blt	zero,r2,402e118 <__flash_rwdata_start+0xffffb844>
 402e1b8:	8080030b 	ldhu	r2,12(r16)
 402e1bc:	10801014 	ori	r2,r2,64
 402e1c0:	8080030d 	sth	r2,12(r16)
 402e1c4:	00bfffc4 	movi	r2,-1
 402e1c8:	003fa806 	br	402e06c <__flash_rwdata_start+0xffffb798>
 402e1cc:	0027883a 	mov	r19,zero
 402e1d0:	0011883a 	mov	r8,zero
 402e1d4:	0039883a 	mov	fp,zero
 402e1d8:	0025883a 	mov	r18,zero
 402e1dc:	90001f26 	beq	r18,zero,402e25c <__sfvwrite_r+0x2a8>
 402e1e0:	40005a26 	beq	r8,zero,402e34c <__sfvwrite_r+0x398>
 402e1e4:	982d883a 	mov	r22,r19
 402e1e8:	94c0012e 	bgeu	r18,r19,402e1f0 <__sfvwrite_r+0x23c>
 402e1ec:	902d883a 	mov	r22,r18
 402e1f0:	81000017 	ldw	r4,0(r16)
 402e1f4:	80800417 	ldw	r2,16(r16)
 402e1f8:	b02f883a 	mov	r23,r22
 402e1fc:	81c00517 	ldw	r7,20(r16)
 402e200:	1100032e 	bgeu	r2,r4,402e210 <__sfvwrite_r+0x25c>
 402e204:	80c00217 	ldw	r3,8(r16)
 402e208:	38c7883a 	add	r3,r7,r3
 402e20c:	1d801816 	blt	r3,r22,402e270 <__sfvwrite_r+0x2bc>
 402e210:	b1c03e16 	blt	r22,r7,402e30c <__sfvwrite_r+0x358>
 402e214:	80800917 	ldw	r2,36(r16)
 402e218:	81400717 	ldw	r5,28(r16)
 402e21c:	e00d883a 	mov	r6,fp
 402e220:	da000115 	stw	r8,4(sp)
 402e224:	a809883a 	mov	r4,r21
 402e228:	103ee83a 	callr	r2
 402e22c:	102f883a 	mov	r23,r2
 402e230:	da000117 	ldw	r8,4(sp)
 402e234:	00bfe00e 	bge	zero,r2,402e1b8 <__flash_rwdata_start+0xffffb8e4>
 402e238:	9de7c83a 	sub	r19,r19,r23
 402e23c:	98001f26 	beq	r19,zero,402e2bc <__sfvwrite_r+0x308>
 402e240:	a0800217 	ldw	r2,8(r20)
 402e244:	e5f9883a 	add	fp,fp,r23
 402e248:	95e5c83a 	sub	r18,r18,r23
 402e24c:	15efc83a 	sub	r23,r2,r23
 402e250:	a5c00215 	stw	r23,8(r20)
 402e254:	b83f8426 	beq	r23,zero,402e068 <__flash_rwdata_start+0xffffb794>
 402e258:	903fe11e 	bne	r18,zero,402e1e0 <__flash_rwdata_start+0xffffb90c>
 402e25c:	8f000017 	ldw	fp,0(r17)
 402e260:	8c800117 	ldw	r18,4(r17)
 402e264:	0011883a 	mov	r8,zero
 402e268:	8c400204 	addi	r17,r17,8
 402e26c:	003fdb06 	br	402e1dc <__flash_rwdata_start+0xffffb908>
 402e270:	180d883a 	mov	r6,r3
 402e274:	e00b883a 	mov	r5,fp
 402e278:	da000115 	stw	r8,4(sp)
 402e27c:	d8c00015 	stw	r3,0(sp)
 402e280:	402e5300 	call	402e530 <memmove>
 402e284:	d8c00017 	ldw	r3,0(sp)
 402e288:	80800017 	ldw	r2,0(r16)
 402e28c:	800b883a 	mov	r5,r16
 402e290:	a809883a 	mov	r4,r21
 402e294:	10c5883a 	add	r2,r2,r3
 402e298:	80800015 	stw	r2,0(r16)
 402e29c:	d8c00015 	stw	r3,0(sp)
 402e2a0:	40297a40 	call	40297a4 <_fflush_r>
 402e2a4:	d8c00017 	ldw	r3,0(sp)
 402e2a8:	da000117 	ldw	r8,4(sp)
 402e2ac:	103fc21e 	bne	r2,zero,402e1b8 <__flash_rwdata_start+0xffffb8e4>
 402e2b0:	182f883a 	mov	r23,r3
 402e2b4:	9de7c83a 	sub	r19,r19,r23
 402e2b8:	983fe11e 	bne	r19,zero,402e240 <__flash_rwdata_start+0xffffb96c>
 402e2bc:	800b883a 	mov	r5,r16
 402e2c0:	a809883a 	mov	r4,r21
 402e2c4:	40297a40 	call	40297a4 <_fflush_r>
 402e2c8:	103fbb1e 	bne	r2,zero,402e1b8 <__flash_rwdata_start+0xffffb8e4>
 402e2cc:	0011883a 	mov	r8,zero
 402e2d0:	003fdb06 	br	402e240 <__flash_rwdata_start+0xffffb96c>
 402e2d4:	94c0012e 	bgeu	r18,r19,402e2dc <__sfvwrite_r+0x328>
 402e2d8:	9027883a 	mov	r19,r18
 402e2dc:	980d883a 	mov	r6,r19
 402e2e0:	e00b883a 	mov	r5,fp
 402e2e4:	402e5300 	call	402e530 <memmove>
 402e2e8:	80800217 	ldw	r2,8(r16)
 402e2ec:	80c00017 	ldw	r3,0(r16)
 402e2f0:	14c5c83a 	sub	r2,r2,r19
 402e2f4:	1cc7883a 	add	r3,r3,r19
 402e2f8:	80800215 	stw	r2,8(r16)
 402e2fc:	80c00015 	stw	r3,0(r16)
 402e300:	10004326 	beq	r2,zero,402e410 <__sfvwrite_r+0x45c>
 402e304:	9805883a 	mov	r2,r19
 402e308:	003f8306 	br	402e118 <__flash_rwdata_start+0xffffb844>
 402e30c:	b00d883a 	mov	r6,r22
 402e310:	e00b883a 	mov	r5,fp
 402e314:	da000115 	stw	r8,4(sp)
 402e318:	402e5300 	call	402e530 <memmove>
 402e31c:	80800217 	ldw	r2,8(r16)
 402e320:	80c00017 	ldw	r3,0(r16)
 402e324:	da000117 	ldw	r8,4(sp)
 402e328:	1585c83a 	sub	r2,r2,r22
 402e32c:	1dad883a 	add	r22,r3,r22
 402e330:	80800215 	stw	r2,8(r16)
 402e334:	85800015 	stw	r22,0(r16)
 402e338:	003fbf06 	br	402e238 <__flash_rwdata_start+0xffffb964>
 402e33c:	81000017 	ldw	r4,0(r16)
 402e340:	9027883a 	mov	r19,r18
 402e344:	902f883a 	mov	r23,r18
 402e348:	003f6906 	br	402e0f0 <__flash_rwdata_start+0xffffb81c>
 402e34c:	900d883a 	mov	r6,r18
 402e350:	01400284 	movi	r5,10
 402e354:	e009883a 	mov	r4,fp
 402e358:	402ac400 	call	402ac40 <memchr>
 402e35c:	10003e26 	beq	r2,zero,402e458 <__sfvwrite_r+0x4a4>
 402e360:	10800044 	addi	r2,r2,1
 402e364:	1727c83a 	sub	r19,r2,fp
 402e368:	02000044 	movi	r8,1
 402e36c:	003f9d06 	br	402e1e4 <__flash_rwdata_start+0xffffb910>
 402e370:	80800517 	ldw	r2,20(r16)
 402e374:	81400417 	ldw	r5,16(r16)
 402e378:	81c00017 	ldw	r7,0(r16)
 402e37c:	10a7883a 	add	r19,r2,r2
 402e380:	9885883a 	add	r2,r19,r2
 402e384:	1026d7fa 	srli	r19,r2,31
 402e388:	396dc83a 	sub	r22,r7,r5
 402e38c:	b1000044 	addi	r4,r22,1
 402e390:	9885883a 	add	r2,r19,r2
 402e394:	1027d07a 	srai	r19,r2,1
 402e398:	2485883a 	add	r2,r4,r18
 402e39c:	980d883a 	mov	r6,r19
 402e3a0:	9880022e 	bgeu	r19,r2,402e3ac <__sfvwrite_r+0x3f8>
 402e3a4:	1027883a 	mov	r19,r2
 402e3a8:	100d883a 	mov	r6,r2
 402e3ac:	18c1000c 	andi	r3,r3,1024
 402e3b0:	18001c26 	beq	r3,zero,402e424 <__sfvwrite_r+0x470>
 402e3b4:	300b883a 	mov	r5,r6
 402e3b8:	a809883a 	mov	r4,r21
 402e3bc:	402a4340 	call	402a434 <_malloc_r>
 402e3c0:	102f883a 	mov	r23,r2
 402e3c4:	10002926 	beq	r2,zero,402e46c <__sfvwrite_r+0x4b8>
 402e3c8:	81400417 	ldw	r5,16(r16)
 402e3cc:	b00d883a 	mov	r6,r22
 402e3d0:	1009883a 	mov	r4,r2
 402e3d4:	402ad240 	call	402ad24 <memcpy>
 402e3d8:	8080030b 	ldhu	r2,12(r16)
 402e3dc:	00fedfc4 	movi	r3,-1153
 402e3e0:	10c4703a 	and	r2,r2,r3
 402e3e4:	10802014 	ori	r2,r2,128
 402e3e8:	8080030d 	sth	r2,12(r16)
 402e3ec:	bd89883a 	add	r4,r23,r22
 402e3f0:	9d8fc83a 	sub	r7,r19,r22
 402e3f4:	85c00415 	stw	r23,16(r16)
 402e3f8:	84c00515 	stw	r19,20(r16)
 402e3fc:	81000015 	stw	r4,0(r16)
 402e400:	9027883a 	mov	r19,r18
 402e404:	81c00215 	stw	r7,8(r16)
 402e408:	902f883a 	mov	r23,r18
 402e40c:	003f3806 	br	402e0f0 <__flash_rwdata_start+0xffffb81c>
 402e410:	800b883a 	mov	r5,r16
 402e414:	a809883a 	mov	r4,r21
 402e418:	40297a40 	call	40297a4 <_fflush_r>
 402e41c:	103fb926 	beq	r2,zero,402e304 <__flash_rwdata_start+0xffffba30>
 402e420:	003f6506 	br	402e1b8 <__flash_rwdata_start+0xffffb8e4>
 402e424:	a809883a 	mov	r4,r21
 402e428:	402e6ec0 	call	402e6ec <_realloc_r>
 402e42c:	102f883a 	mov	r23,r2
 402e430:	103fee1e 	bne	r2,zero,402e3ec <__flash_rwdata_start+0xffffbb18>
 402e434:	81400417 	ldw	r5,16(r16)
 402e438:	a809883a 	mov	r4,r21
 402e43c:	4029d040 	call	4029d04 <_free_r>
 402e440:	8080030b 	ldhu	r2,12(r16)
 402e444:	00ffdfc4 	movi	r3,-129
 402e448:	1884703a 	and	r2,r3,r2
 402e44c:	00c00304 	movi	r3,12
 402e450:	a8c00015 	stw	r3,0(r21)
 402e454:	003f5906 	br	402e1bc <__flash_rwdata_start+0xffffb8e8>
 402e458:	94c00044 	addi	r19,r18,1
 402e45c:	02000044 	movi	r8,1
 402e460:	003f6006 	br	402e1e4 <__flash_rwdata_start+0xffffb910>
 402e464:	00bfffc4 	movi	r2,-1
 402e468:	003f0006 	br	402e06c <__flash_rwdata_start+0xffffb798>
 402e46c:	00800304 	movi	r2,12
 402e470:	a8800015 	stw	r2,0(r21)
 402e474:	8080030b 	ldhu	r2,12(r16)
 402e478:	003f5006 	br	402e1bc <__flash_rwdata_start+0xffffb8e8>

0402e47c <_isatty_r>:
 402e47c:	defffd04 	addi	sp,sp,-12
 402e480:	dc000015 	stw	r16,0(sp)
 402e484:	04000034 	movhi	r16,0
 402e488:	dc400115 	stw	r17,4(sp)
 402e48c:	84078f04 	addi	r16,r16,7740
 402e490:	2023883a 	mov	r17,r4
 402e494:	2809883a 	mov	r4,r5
 402e498:	dfc00215 	stw	ra,8(sp)
 402e49c:	80000015 	stw	zero,0(r16)
 402e4a0:	402fef00 	call	402fef0 <isatty>
 402e4a4:	00ffffc4 	movi	r3,-1
 402e4a8:	10c00526 	beq	r2,r3,402e4c0 <_isatty_r+0x44>
 402e4ac:	dfc00217 	ldw	ra,8(sp)
 402e4b0:	dc400117 	ldw	r17,4(sp)
 402e4b4:	dc000017 	ldw	r16,0(sp)
 402e4b8:	dec00304 	addi	sp,sp,12
 402e4bc:	f800283a 	ret
 402e4c0:	80c00017 	ldw	r3,0(r16)
 402e4c4:	183ff926 	beq	r3,zero,402e4ac <__flash_rwdata_start+0xffffbbd8>
 402e4c8:	88c00015 	stw	r3,0(r17)
 402e4cc:	003ff706 	br	402e4ac <__flash_rwdata_start+0xffffbbd8>

0402e4d0 <_lseek_r>:
 402e4d0:	defffd04 	addi	sp,sp,-12
 402e4d4:	2805883a 	mov	r2,r5
 402e4d8:	dc000015 	stw	r16,0(sp)
 402e4dc:	04000034 	movhi	r16,0
 402e4e0:	dc400115 	stw	r17,4(sp)
 402e4e4:	300b883a 	mov	r5,r6
 402e4e8:	84078f04 	addi	r16,r16,7740
 402e4ec:	2023883a 	mov	r17,r4
 402e4f0:	380d883a 	mov	r6,r7
 402e4f4:	1009883a 	mov	r4,r2
 402e4f8:	dfc00215 	stw	ra,8(sp)
 402e4fc:	80000015 	stw	zero,0(r16)
 402e500:	40300c40 	call	40300c4 <lseek>
 402e504:	00ffffc4 	movi	r3,-1
 402e508:	10c00526 	beq	r2,r3,402e520 <_lseek_r+0x50>
 402e50c:	dfc00217 	ldw	ra,8(sp)
 402e510:	dc400117 	ldw	r17,4(sp)
 402e514:	dc000017 	ldw	r16,0(sp)
 402e518:	dec00304 	addi	sp,sp,12
 402e51c:	f800283a 	ret
 402e520:	80c00017 	ldw	r3,0(r16)
 402e524:	183ff926 	beq	r3,zero,402e50c <__flash_rwdata_start+0xffffbc38>
 402e528:	88c00015 	stw	r3,0(r17)
 402e52c:	003ff706 	br	402e50c <__flash_rwdata_start+0xffffbc38>

0402e530 <memmove>:
 402e530:	2005883a 	mov	r2,r4
 402e534:	29000b2e 	bgeu	r5,r4,402e564 <memmove+0x34>
 402e538:	298f883a 	add	r7,r5,r6
 402e53c:	21c0092e 	bgeu	r4,r7,402e564 <memmove+0x34>
 402e540:	2187883a 	add	r3,r4,r6
 402e544:	198bc83a 	sub	r5,r3,r6
 402e548:	30004826 	beq	r6,zero,402e66c <memmove+0x13c>
 402e54c:	39ffffc4 	addi	r7,r7,-1
 402e550:	39000003 	ldbu	r4,0(r7)
 402e554:	18ffffc4 	addi	r3,r3,-1
 402e558:	19000005 	stb	r4,0(r3)
 402e55c:	28fffb1e 	bne	r5,r3,402e54c <__flash_rwdata_start+0xffffbc78>
 402e560:	f800283a 	ret
 402e564:	00c003c4 	movi	r3,15
 402e568:	1980412e 	bgeu	r3,r6,402e670 <memmove+0x140>
 402e56c:	2886b03a 	or	r3,r5,r2
 402e570:	18c000cc 	andi	r3,r3,3
 402e574:	1800401e 	bne	r3,zero,402e678 <memmove+0x148>
 402e578:	33fffc04 	addi	r15,r6,-16
 402e57c:	781ed13a 	srli	r15,r15,4
 402e580:	28c00104 	addi	r3,r5,4
 402e584:	13400104 	addi	r13,r2,4
 402e588:	781c913a 	slli	r14,r15,4
 402e58c:	2b000204 	addi	r12,r5,8
 402e590:	12c00204 	addi	r11,r2,8
 402e594:	73800504 	addi	r14,r14,20
 402e598:	2a800304 	addi	r10,r5,12
 402e59c:	12400304 	addi	r9,r2,12
 402e5a0:	2b9d883a 	add	r14,r5,r14
 402e5a4:	2811883a 	mov	r8,r5
 402e5a8:	100f883a 	mov	r7,r2
 402e5ac:	41000017 	ldw	r4,0(r8)
 402e5b0:	39c00404 	addi	r7,r7,16
 402e5b4:	18c00404 	addi	r3,r3,16
 402e5b8:	393ffc15 	stw	r4,-16(r7)
 402e5bc:	193ffc17 	ldw	r4,-16(r3)
 402e5c0:	6b400404 	addi	r13,r13,16
 402e5c4:	5ac00404 	addi	r11,r11,16
 402e5c8:	693ffc15 	stw	r4,-16(r13)
 402e5cc:	61000017 	ldw	r4,0(r12)
 402e5d0:	4a400404 	addi	r9,r9,16
 402e5d4:	42000404 	addi	r8,r8,16
 402e5d8:	593ffc15 	stw	r4,-16(r11)
 402e5dc:	51000017 	ldw	r4,0(r10)
 402e5e0:	63000404 	addi	r12,r12,16
 402e5e4:	52800404 	addi	r10,r10,16
 402e5e8:	493ffc15 	stw	r4,-16(r9)
 402e5ec:	1bbfef1e 	bne	r3,r14,402e5ac <__flash_rwdata_start+0xffffbcd8>
 402e5f0:	79000044 	addi	r4,r15,1
 402e5f4:	2008913a 	slli	r4,r4,4
 402e5f8:	328003cc 	andi	r10,r6,15
 402e5fc:	02c000c4 	movi	r11,3
 402e600:	1107883a 	add	r3,r2,r4
 402e604:	290b883a 	add	r5,r5,r4
 402e608:	5a801e2e 	bgeu	r11,r10,402e684 <memmove+0x154>
 402e60c:	1813883a 	mov	r9,r3
 402e610:	2811883a 	mov	r8,r5
 402e614:	500f883a 	mov	r7,r10
 402e618:	41000017 	ldw	r4,0(r8)
 402e61c:	4a400104 	addi	r9,r9,4
 402e620:	39ffff04 	addi	r7,r7,-4
 402e624:	493fff15 	stw	r4,-4(r9)
 402e628:	42000104 	addi	r8,r8,4
 402e62c:	59fffa36 	bltu	r11,r7,402e618 <__flash_rwdata_start+0xffffbd44>
 402e630:	513fff04 	addi	r4,r10,-4
 402e634:	2008d0ba 	srli	r4,r4,2
 402e638:	318000cc 	andi	r6,r6,3
 402e63c:	21000044 	addi	r4,r4,1
 402e640:	2109883a 	add	r4,r4,r4
 402e644:	2109883a 	add	r4,r4,r4
 402e648:	1907883a 	add	r3,r3,r4
 402e64c:	290b883a 	add	r5,r5,r4
 402e650:	30000b26 	beq	r6,zero,402e680 <memmove+0x150>
 402e654:	198d883a 	add	r6,r3,r6
 402e658:	29c00003 	ldbu	r7,0(r5)
 402e65c:	18c00044 	addi	r3,r3,1
 402e660:	29400044 	addi	r5,r5,1
 402e664:	19ffffc5 	stb	r7,-1(r3)
 402e668:	19bffb1e 	bne	r3,r6,402e658 <__flash_rwdata_start+0xffffbd84>
 402e66c:	f800283a 	ret
 402e670:	1007883a 	mov	r3,r2
 402e674:	003ff606 	br	402e650 <__flash_rwdata_start+0xffffbd7c>
 402e678:	1007883a 	mov	r3,r2
 402e67c:	003ff506 	br	402e654 <__flash_rwdata_start+0xffffbd80>
 402e680:	f800283a 	ret
 402e684:	500d883a 	mov	r6,r10
 402e688:	003ff106 	br	402e650 <__flash_rwdata_start+0xffffbd7c>

0402e68c <_read_r>:
 402e68c:	defffd04 	addi	sp,sp,-12
 402e690:	2805883a 	mov	r2,r5
 402e694:	dc000015 	stw	r16,0(sp)
 402e698:	04000034 	movhi	r16,0
 402e69c:	dc400115 	stw	r17,4(sp)
 402e6a0:	300b883a 	mov	r5,r6
 402e6a4:	84078f04 	addi	r16,r16,7740
 402e6a8:	2023883a 	mov	r17,r4
 402e6ac:	380d883a 	mov	r6,r7
 402e6b0:	1009883a 	mov	r4,r2
 402e6b4:	dfc00215 	stw	ra,8(sp)
 402e6b8:	80000015 	stw	zero,0(r16)
 402e6bc:	40302a00 	call	40302a0 <read>
 402e6c0:	00ffffc4 	movi	r3,-1
 402e6c4:	10c00526 	beq	r2,r3,402e6dc <_read_r+0x50>
 402e6c8:	dfc00217 	ldw	ra,8(sp)
 402e6cc:	dc400117 	ldw	r17,4(sp)
 402e6d0:	dc000017 	ldw	r16,0(sp)
 402e6d4:	dec00304 	addi	sp,sp,12
 402e6d8:	f800283a 	ret
 402e6dc:	80c00017 	ldw	r3,0(r16)
 402e6e0:	183ff926 	beq	r3,zero,402e6c8 <__flash_rwdata_start+0xffffbdf4>
 402e6e4:	88c00015 	stw	r3,0(r17)
 402e6e8:	003ff706 	br	402e6c8 <__flash_rwdata_start+0xffffbdf4>

0402e6ec <_realloc_r>:
 402e6ec:	defff604 	addi	sp,sp,-40
 402e6f0:	dc800215 	stw	r18,8(sp)
 402e6f4:	dfc00915 	stw	ra,36(sp)
 402e6f8:	df000815 	stw	fp,32(sp)
 402e6fc:	ddc00715 	stw	r23,28(sp)
 402e700:	dd800615 	stw	r22,24(sp)
 402e704:	dd400515 	stw	r21,20(sp)
 402e708:	dd000415 	stw	r20,16(sp)
 402e70c:	dcc00315 	stw	r19,12(sp)
 402e710:	dc400115 	stw	r17,4(sp)
 402e714:	dc000015 	stw	r16,0(sp)
 402e718:	3025883a 	mov	r18,r6
 402e71c:	2800b726 	beq	r5,zero,402e9fc <_realloc_r+0x310>
 402e720:	282b883a 	mov	r21,r5
 402e724:	2029883a 	mov	r20,r4
 402e728:	403021c0 	call	403021c <__malloc_lock>
 402e72c:	a8bfff17 	ldw	r2,-4(r21)
 402e730:	043fff04 	movi	r16,-4
 402e734:	90c002c4 	addi	r3,r18,11
 402e738:	01000584 	movi	r4,22
 402e73c:	acfffe04 	addi	r19,r21,-8
 402e740:	1420703a 	and	r16,r2,r16
 402e744:	20c0332e 	bgeu	r4,r3,402e814 <_realloc_r+0x128>
 402e748:	047ffe04 	movi	r17,-8
 402e74c:	1c62703a 	and	r17,r3,r17
 402e750:	8807883a 	mov	r3,r17
 402e754:	88005816 	blt	r17,zero,402e8b8 <_realloc_r+0x1cc>
 402e758:	8c805736 	bltu	r17,r18,402e8b8 <_realloc_r+0x1cc>
 402e75c:	80c0300e 	bge	r16,r3,402e820 <_realloc_r+0x134>
 402e760:	07000034 	movhi	fp,0
 402e764:	e701f204 	addi	fp,fp,1992
 402e768:	e1c00217 	ldw	r7,8(fp)
 402e76c:	9c09883a 	add	r4,r19,r16
 402e770:	22000117 	ldw	r8,4(r4)
 402e774:	21c06326 	beq	r4,r7,402e904 <_realloc_r+0x218>
 402e778:	017fff84 	movi	r5,-2
 402e77c:	414a703a 	and	r5,r8,r5
 402e780:	214b883a 	add	r5,r4,r5
 402e784:	29800117 	ldw	r6,4(r5)
 402e788:	3180004c 	andi	r6,r6,1
 402e78c:	30003f26 	beq	r6,zero,402e88c <_realloc_r+0x1a0>
 402e790:	1080004c 	andi	r2,r2,1
 402e794:	10008326 	beq	r2,zero,402e9a4 <_realloc_r+0x2b8>
 402e798:	900b883a 	mov	r5,r18
 402e79c:	a009883a 	mov	r4,r20
 402e7a0:	402a4340 	call	402a434 <_malloc_r>
 402e7a4:	1025883a 	mov	r18,r2
 402e7a8:	10011e26 	beq	r2,zero,402ec24 <_realloc_r+0x538>
 402e7ac:	a93fff17 	ldw	r4,-4(r21)
 402e7b0:	10fffe04 	addi	r3,r2,-8
 402e7b4:	00bfff84 	movi	r2,-2
 402e7b8:	2084703a 	and	r2,r4,r2
 402e7bc:	9885883a 	add	r2,r19,r2
 402e7c0:	1880ee26 	beq	r3,r2,402eb7c <_realloc_r+0x490>
 402e7c4:	81bfff04 	addi	r6,r16,-4
 402e7c8:	00800904 	movi	r2,36
 402e7cc:	1180b836 	bltu	r2,r6,402eab0 <_realloc_r+0x3c4>
 402e7d0:	00c004c4 	movi	r3,19
 402e7d4:	19809636 	bltu	r3,r6,402ea30 <_realloc_r+0x344>
 402e7d8:	9005883a 	mov	r2,r18
 402e7dc:	a807883a 	mov	r3,r21
 402e7e0:	19000017 	ldw	r4,0(r3)
 402e7e4:	11000015 	stw	r4,0(r2)
 402e7e8:	19000117 	ldw	r4,4(r3)
 402e7ec:	11000115 	stw	r4,4(r2)
 402e7f0:	18c00217 	ldw	r3,8(r3)
 402e7f4:	10c00215 	stw	r3,8(r2)
 402e7f8:	a80b883a 	mov	r5,r21
 402e7fc:	a009883a 	mov	r4,r20
 402e800:	4029d040 	call	4029d04 <_free_r>
 402e804:	a009883a 	mov	r4,r20
 402e808:	40302400 	call	4030240 <__malloc_unlock>
 402e80c:	9005883a 	mov	r2,r18
 402e810:	00001206 	br	402e85c <_realloc_r+0x170>
 402e814:	00c00404 	movi	r3,16
 402e818:	1823883a 	mov	r17,r3
 402e81c:	003fce06 	br	402e758 <__flash_rwdata_start+0xffffbe84>
 402e820:	a825883a 	mov	r18,r21
 402e824:	8445c83a 	sub	r2,r16,r17
 402e828:	00c003c4 	movi	r3,15
 402e82c:	18802636 	bltu	r3,r2,402e8c8 <_realloc_r+0x1dc>
 402e830:	99800117 	ldw	r6,4(r19)
 402e834:	9c07883a 	add	r3,r19,r16
 402e838:	3180004c 	andi	r6,r6,1
 402e83c:	3420b03a 	or	r16,r6,r16
 402e840:	9c000115 	stw	r16,4(r19)
 402e844:	18800117 	ldw	r2,4(r3)
 402e848:	10800054 	ori	r2,r2,1
 402e84c:	18800115 	stw	r2,4(r3)
 402e850:	a009883a 	mov	r4,r20
 402e854:	40302400 	call	4030240 <__malloc_unlock>
 402e858:	9005883a 	mov	r2,r18
 402e85c:	dfc00917 	ldw	ra,36(sp)
 402e860:	df000817 	ldw	fp,32(sp)
 402e864:	ddc00717 	ldw	r23,28(sp)
 402e868:	dd800617 	ldw	r22,24(sp)
 402e86c:	dd400517 	ldw	r21,20(sp)
 402e870:	dd000417 	ldw	r20,16(sp)
 402e874:	dcc00317 	ldw	r19,12(sp)
 402e878:	dc800217 	ldw	r18,8(sp)
 402e87c:	dc400117 	ldw	r17,4(sp)
 402e880:	dc000017 	ldw	r16,0(sp)
 402e884:	dec00a04 	addi	sp,sp,40
 402e888:	f800283a 	ret
 402e88c:	017fff04 	movi	r5,-4
 402e890:	414a703a 	and	r5,r8,r5
 402e894:	814d883a 	add	r6,r16,r5
 402e898:	30c01f16 	blt	r6,r3,402e918 <_realloc_r+0x22c>
 402e89c:	20800317 	ldw	r2,12(r4)
 402e8a0:	20c00217 	ldw	r3,8(r4)
 402e8a4:	a825883a 	mov	r18,r21
 402e8a8:	3021883a 	mov	r16,r6
 402e8ac:	18800315 	stw	r2,12(r3)
 402e8b0:	10c00215 	stw	r3,8(r2)
 402e8b4:	003fdb06 	br	402e824 <__flash_rwdata_start+0xffffbf50>
 402e8b8:	00800304 	movi	r2,12
 402e8bc:	a0800015 	stw	r2,0(r20)
 402e8c0:	0005883a 	mov	r2,zero
 402e8c4:	003fe506 	br	402e85c <__flash_rwdata_start+0xffffbf88>
 402e8c8:	98c00117 	ldw	r3,4(r19)
 402e8cc:	9c4b883a 	add	r5,r19,r17
 402e8d0:	11000054 	ori	r4,r2,1
 402e8d4:	18c0004c 	andi	r3,r3,1
 402e8d8:	1c62b03a 	or	r17,r3,r17
 402e8dc:	9c400115 	stw	r17,4(r19)
 402e8e0:	29000115 	stw	r4,4(r5)
 402e8e4:	2885883a 	add	r2,r5,r2
 402e8e8:	10c00117 	ldw	r3,4(r2)
 402e8ec:	29400204 	addi	r5,r5,8
 402e8f0:	a009883a 	mov	r4,r20
 402e8f4:	18c00054 	ori	r3,r3,1
 402e8f8:	10c00115 	stw	r3,4(r2)
 402e8fc:	4029d040 	call	4029d04 <_free_r>
 402e900:	003fd306 	br	402e850 <__flash_rwdata_start+0xffffbf7c>
 402e904:	017fff04 	movi	r5,-4
 402e908:	414a703a 	and	r5,r8,r5
 402e90c:	89800404 	addi	r6,r17,16
 402e910:	8151883a 	add	r8,r16,r5
 402e914:	4180590e 	bge	r8,r6,402ea7c <_realloc_r+0x390>
 402e918:	1080004c 	andi	r2,r2,1
 402e91c:	103f9e1e 	bne	r2,zero,402e798 <__flash_rwdata_start+0xffffbec4>
 402e920:	adbffe17 	ldw	r22,-8(r21)
 402e924:	00bfff04 	movi	r2,-4
 402e928:	9dadc83a 	sub	r22,r19,r22
 402e92c:	b1800117 	ldw	r6,4(r22)
 402e930:	3084703a 	and	r2,r6,r2
 402e934:	20002026 	beq	r4,zero,402e9b8 <_realloc_r+0x2cc>
 402e938:	80af883a 	add	r23,r16,r2
 402e93c:	b96f883a 	add	r23,r23,r5
 402e940:	21c05f26 	beq	r4,r7,402eac0 <_realloc_r+0x3d4>
 402e944:	b8c01c16 	blt	r23,r3,402e9b8 <_realloc_r+0x2cc>
 402e948:	20800317 	ldw	r2,12(r4)
 402e94c:	20c00217 	ldw	r3,8(r4)
 402e950:	81bfff04 	addi	r6,r16,-4
 402e954:	01000904 	movi	r4,36
 402e958:	18800315 	stw	r2,12(r3)
 402e95c:	10c00215 	stw	r3,8(r2)
 402e960:	b0c00217 	ldw	r3,8(r22)
 402e964:	b0800317 	ldw	r2,12(r22)
 402e968:	b4800204 	addi	r18,r22,8
 402e96c:	18800315 	stw	r2,12(r3)
 402e970:	10c00215 	stw	r3,8(r2)
 402e974:	21801b36 	bltu	r4,r6,402e9e4 <_realloc_r+0x2f8>
 402e978:	008004c4 	movi	r2,19
 402e97c:	1180352e 	bgeu	r2,r6,402ea54 <_realloc_r+0x368>
 402e980:	a8800017 	ldw	r2,0(r21)
 402e984:	b0800215 	stw	r2,8(r22)
 402e988:	a8800117 	ldw	r2,4(r21)
 402e98c:	b0800315 	stw	r2,12(r22)
 402e990:	008006c4 	movi	r2,27
 402e994:	11807f36 	bltu	r2,r6,402eb94 <_realloc_r+0x4a8>
 402e998:	b0800404 	addi	r2,r22,16
 402e99c:	ad400204 	addi	r21,r21,8
 402e9a0:	00002d06 	br	402ea58 <_realloc_r+0x36c>
 402e9a4:	adbffe17 	ldw	r22,-8(r21)
 402e9a8:	00bfff04 	movi	r2,-4
 402e9ac:	9dadc83a 	sub	r22,r19,r22
 402e9b0:	b1000117 	ldw	r4,4(r22)
 402e9b4:	2084703a 	and	r2,r4,r2
 402e9b8:	b03f7726 	beq	r22,zero,402e798 <__flash_rwdata_start+0xffffbec4>
 402e9bc:	80af883a 	add	r23,r16,r2
 402e9c0:	b8ff7516 	blt	r23,r3,402e798 <__flash_rwdata_start+0xffffbec4>
 402e9c4:	b0800317 	ldw	r2,12(r22)
 402e9c8:	b0c00217 	ldw	r3,8(r22)
 402e9cc:	81bfff04 	addi	r6,r16,-4
 402e9d0:	01000904 	movi	r4,36
 402e9d4:	18800315 	stw	r2,12(r3)
 402e9d8:	10c00215 	stw	r3,8(r2)
 402e9dc:	b4800204 	addi	r18,r22,8
 402e9e0:	21bfe52e 	bgeu	r4,r6,402e978 <__flash_rwdata_start+0xffffc0a4>
 402e9e4:	a80b883a 	mov	r5,r21
 402e9e8:	9009883a 	mov	r4,r18
 402e9ec:	402e5300 	call	402e530 <memmove>
 402e9f0:	b821883a 	mov	r16,r23
 402e9f4:	b027883a 	mov	r19,r22
 402e9f8:	003f8a06 	br	402e824 <__flash_rwdata_start+0xffffbf50>
 402e9fc:	300b883a 	mov	r5,r6
 402ea00:	dfc00917 	ldw	ra,36(sp)
 402ea04:	df000817 	ldw	fp,32(sp)
 402ea08:	ddc00717 	ldw	r23,28(sp)
 402ea0c:	dd800617 	ldw	r22,24(sp)
 402ea10:	dd400517 	ldw	r21,20(sp)
 402ea14:	dd000417 	ldw	r20,16(sp)
 402ea18:	dcc00317 	ldw	r19,12(sp)
 402ea1c:	dc800217 	ldw	r18,8(sp)
 402ea20:	dc400117 	ldw	r17,4(sp)
 402ea24:	dc000017 	ldw	r16,0(sp)
 402ea28:	dec00a04 	addi	sp,sp,40
 402ea2c:	402a4341 	jmpi	402a434 <_malloc_r>
 402ea30:	a8c00017 	ldw	r3,0(r21)
 402ea34:	90c00015 	stw	r3,0(r18)
 402ea38:	a8c00117 	ldw	r3,4(r21)
 402ea3c:	90c00115 	stw	r3,4(r18)
 402ea40:	00c006c4 	movi	r3,27
 402ea44:	19804536 	bltu	r3,r6,402eb5c <_realloc_r+0x470>
 402ea48:	90800204 	addi	r2,r18,8
 402ea4c:	a8c00204 	addi	r3,r21,8
 402ea50:	003f6306 	br	402e7e0 <__flash_rwdata_start+0xffffbf0c>
 402ea54:	9005883a 	mov	r2,r18
 402ea58:	a8c00017 	ldw	r3,0(r21)
 402ea5c:	b821883a 	mov	r16,r23
 402ea60:	b027883a 	mov	r19,r22
 402ea64:	10c00015 	stw	r3,0(r2)
 402ea68:	a8c00117 	ldw	r3,4(r21)
 402ea6c:	10c00115 	stw	r3,4(r2)
 402ea70:	a8c00217 	ldw	r3,8(r21)
 402ea74:	10c00215 	stw	r3,8(r2)
 402ea78:	003f6a06 	br	402e824 <__flash_rwdata_start+0xffffbf50>
 402ea7c:	9c67883a 	add	r19,r19,r17
 402ea80:	4445c83a 	sub	r2,r8,r17
 402ea84:	e4c00215 	stw	r19,8(fp)
 402ea88:	10800054 	ori	r2,r2,1
 402ea8c:	98800115 	stw	r2,4(r19)
 402ea90:	a8bfff17 	ldw	r2,-4(r21)
 402ea94:	a009883a 	mov	r4,r20
 402ea98:	1080004c 	andi	r2,r2,1
 402ea9c:	1462b03a 	or	r17,r2,r17
 402eaa0:	ac7fff15 	stw	r17,-4(r21)
 402eaa4:	40302400 	call	4030240 <__malloc_unlock>
 402eaa8:	a805883a 	mov	r2,r21
 402eaac:	003f6b06 	br	402e85c <__flash_rwdata_start+0xffffbf88>
 402eab0:	a80b883a 	mov	r5,r21
 402eab4:	9009883a 	mov	r4,r18
 402eab8:	402e5300 	call	402e530 <memmove>
 402eabc:	003f4e06 	br	402e7f8 <__flash_rwdata_start+0xffffbf24>
 402eac0:	89000404 	addi	r4,r17,16
 402eac4:	b93fbc16 	blt	r23,r4,402e9b8 <__flash_rwdata_start+0xffffc0e4>
 402eac8:	b0800317 	ldw	r2,12(r22)
 402eacc:	b0c00217 	ldw	r3,8(r22)
 402ead0:	81bfff04 	addi	r6,r16,-4
 402ead4:	01000904 	movi	r4,36
 402ead8:	18800315 	stw	r2,12(r3)
 402eadc:	10c00215 	stw	r3,8(r2)
 402eae0:	b4800204 	addi	r18,r22,8
 402eae4:	21804336 	bltu	r4,r6,402ebf4 <_realloc_r+0x508>
 402eae8:	008004c4 	movi	r2,19
 402eaec:	11803f2e 	bgeu	r2,r6,402ebec <_realloc_r+0x500>
 402eaf0:	a8800017 	ldw	r2,0(r21)
 402eaf4:	b0800215 	stw	r2,8(r22)
 402eaf8:	a8800117 	ldw	r2,4(r21)
 402eafc:	b0800315 	stw	r2,12(r22)
 402eb00:	008006c4 	movi	r2,27
 402eb04:	11803f36 	bltu	r2,r6,402ec04 <_realloc_r+0x518>
 402eb08:	b0800404 	addi	r2,r22,16
 402eb0c:	ad400204 	addi	r21,r21,8
 402eb10:	a8c00017 	ldw	r3,0(r21)
 402eb14:	10c00015 	stw	r3,0(r2)
 402eb18:	a8c00117 	ldw	r3,4(r21)
 402eb1c:	10c00115 	stw	r3,4(r2)
 402eb20:	a8c00217 	ldw	r3,8(r21)
 402eb24:	10c00215 	stw	r3,8(r2)
 402eb28:	b447883a 	add	r3,r22,r17
 402eb2c:	bc45c83a 	sub	r2,r23,r17
 402eb30:	e0c00215 	stw	r3,8(fp)
 402eb34:	10800054 	ori	r2,r2,1
 402eb38:	18800115 	stw	r2,4(r3)
 402eb3c:	b0800117 	ldw	r2,4(r22)
 402eb40:	a009883a 	mov	r4,r20
 402eb44:	1080004c 	andi	r2,r2,1
 402eb48:	1462b03a 	or	r17,r2,r17
 402eb4c:	b4400115 	stw	r17,4(r22)
 402eb50:	40302400 	call	4030240 <__malloc_unlock>
 402eb54:	9005883a 	mov	r2,r18
 402eb58:	003f4006 	br	402e85c <__flash_rwdata_start+0xffffbf88>
 402eb5c:	a8c00217 	ldw	r3,8(r21)
 402eb60:	90c00215 	stw	r3,8(r18)
 402eb64:	a8c00317 	ldw	r3,12(r21)
 402eb68:	90c00315 	stw	r3,12(r18)
 402eb6c:	30801126 	beq	r6,r2,402ebb4 <_realloc_r+0x4c8>
 402eb70:	90800404 	addi	r2,r18,16
 402eb74:	a8c00404 	addi	r3,r21,16
 402eb78:	003f1906 	br	402e7e0 <__flash_rwdata_start+0xffffbf0c>
 402eb7c:	90ffff17 	ldw	r3,-4(r18)
 402eb80:	00bfff04 	movi	r2,-4
 402eb84:	a825883a 	mov	r18,r21
 402eb88:	1884703a 	and	r2,r3,r2
 402eb8c:	80a1883a 	add	r16,r16,r2
 402eb90:	003f2406 	br	402e824 <__flash_rwdata_start+0xffffbf50>
 402eb94:	a8800217 	ldw	r2,8(r21)
 402eb98:	b0800415 	stw	r2,16(r22)
 402eb9c:	a8800317 	ldw	r2,12(r21)
 402eba0:	b0800515 	stw	r2,20(r22)
 402eba4:	31000a26 	beq	r6,r4,402ebd0 <_realloc_r+0x4e4>
 402eba8:	b0800604 	addi	r2,r22,24
 402ebac:	ad400404 	addi	r21,r21,16
 402ebb0:	003fa906 	br	402ea58 <__flash_rwdata_start+0xffffc184>
 402ebb4:	a9000417 	ldw	r4,16(r21)
 402ebb8:	90800604 	addi	r2,r18,24
 402ebbc:	a8c00604 	addi	r3,r21,24
 402ebc0:	91000415 	stw	r4,16(r18)
 402ebc4:	a9000517 	ldw	r4,20(r21)
 402ebc8:	91000515 	stw	r4,20(r18)
 402ebcc:	003f0406 	br	402e7e0 <__flash_rwdata_start+0xffffbf0c>
 402ebd0:	a8c00417 	ldw	r3,16(r21)
 402ebd4:	ad400604 	addi	r21,r21,24
 402ebd8:	b0800804 	addi	r2,r22,32
 402ebdc:	b0c00615 	stw	r3,24(r22)
 402ebe0:	a8ffff17 	ldw	r3,-4(r21)
 402ebe4:	b0c00715 	stw	r3,28(r22)
 402ebe8:	003f9b06 	br	402ea58 <__flash_rwdata_start+0xffffc184>
 402ebec:	9005883a 	mov	r2,r18
 402ebf0:	003fc706 	br	402eb10 <__flash_rwdata_start+0xffffc23c>
 402ebf4:	a80b883a 	mov	r5,r21
 402ebf8:	9009883a 	mov	r4,r18
 402ebfc:	402e5300 	call	402e530 <memmove>
 402ec00:	003fc906 	br	402eb28 <__flash_rwdata_start+0xffffc254>
 402ec04:	a8800217 	ldw	r2,8(r21)
 402ec08:	b0800415 	stw	r2,16(r22)
 402ec0c:	a8800317 	ldw	r2,12(r21)
 402ec10:	b0800515 	stw	r2,20(r22)
 402ec14:	31000726 	beq	r6,r4,402ec34 <_realloc_r+0x548>
 402ec18:	b0800604 	addi	r2,r22,24
 402ec1c:	ad400404 	addi	r21,r21,16
 402ec20:	003fbb06 	br	402eb10 <__flash_rwdata_start+0xffffc23c>
 402ec24:	a009883a 	mov	r4,r20
 402ec28:	40302400 	call	4030240 <__malloc_unlock>
 402ec2c:	0005883a 	mov	r2,zero
 402ec30:	003f0a06 	br	402e85c <__flash_rwdata_start+0xffffbf88>
 402ec34:	a8c00417 	ldw	r3,16(r21)
 402ec38:	ad400604 	addi	r21,r21,24
 402ec3c:	b0800804 	addi	r2,r22,32
 402ec40:	b0c00615 	stw	r3,24(r22)
 402ec44:	a8ffff17 	ldw	r3,-4(r21)
 402ec48:	b0c00715 	stw	r3,28(r22)
 402ec4c:	003fb006 	br	402eb10 <__flash_rwdata_start+0xffffc23c>

0402ec50 <__swbuf_r>:
 402ec50:	defffb04 	addi	sp,sp,-20
 402ec54:	dcc00315 	stw	r19,12(sp)
 402ec58:	dc800215 	stw	r18,8(sp)
 402ec5c:	dc000015 	stw	r16,0(sp)
 402ec60:	dfc00415 	stw	ra,16(sp)
 402ec64:	dc400115 	stw	r17,4(sp)
 402ec68:	2025883a 	mov	r18,r4
 402ec6c:	2827883a 	mov	r19,r5
 402ec70:	3021883a 	mov	r16,r6
 402ec74:	20000226 	beq	r4,zero,402ec80 <__swbuf_r+0x30>
 402ec78:	20800e17 	ldw	r2,56(r4)
 402ec7c:	10004226 	beq	r2,zero,402ed88 <__swbuf_r+0x138>
 402ec80:	80800617 	ldw	r2,24(r16)
 402ec84:	8100030b 	ldhu	r4,12(r16)
 402ec88:	80800215 	stw	r2,8(r16)
 402ec8c:	2080020c 	andi	r2,r4,8
 402ec90:	10003626 	beq	r2,zero,402ed6c <__swbuf_r+0x11c>
 402ec94:	80c00417 	ldw	r3,16(r16)
 402ec98:	18003426 	beq	r3,zero,402ed6c <__swbuf_r+0x11c>
 402ec9c:	2088000c 	andi	r2,r4,8192
 402eca0:	9c403fcc 	andi	r17,r19,255
 402eca4:	10001a26 	beq	r2,zero,402ed10 <__swbuf_r+0xc0>
 402eca8:	80800017 	ldw	r2,0(r16)
 402ecac:	81000517 	ldw	r4,20(r16)
 402ecb0:	10c7c83a 	sub	r3,r2,r3
 402ecb4:	1900200e 	bge	r3,r4,402ed38 <__swbuf_r+0xe8>
 402ecb8:	18c00044 	addi	r3,r3,1
 402ecbc:	81000217 	ldw	r4,8(r16)
 402ecc0:	11400044 	addi	r5,r2,1
 402ecc4:	81400015 	stw	r5,0(r16)
 402ecc8:	213fffc4 	addi	r4,r4,-1
 402eccc:	81000215 	stw	r4,8(r16)
 402ecd0:	14c00005 	stb	r19,0(r2)
 402ecd4:	80800517 	ldw	r2,20(r16)
 402ecd8:	10c01e26 	beq	r2,r3,402ed54 <__swbuf_r+0x104>
 402ecdc:	8080030b 	ldhu	r2,12(r16)
 402ece0:	1080004c 	andi	r2,r2,1
 402ece4:	10000226 	beq	r2,zero,402ecf0 <__swbuf_r+0xa0>
 402ece8:	00800284 	movi	r2,10
 402ecec:	88801926 	beq	r17,r2,402ed54 <__swbuf_r+0x104>
 402ecf0:	8805883a 	mov	r2,r17
 402ecf4:	dfc00417 	ldw	ra,16(sp)
 402ecf8:	dcc00317 	ldw	r19,12(sp)
 402ecfc:	dc800217 	ldw	r18,8(sp)
 402ed00:	dc400117 	ldw	r17,4(sp)
 402ed04:	dc000017 	ldw	r16,0(sp)
 402ed08:	dec00504 	addi	sp,sp,20
 402ed0c:	f800283a 	ret
 402ed10:	81401917 	ldw	r5,100(r16)
 402ed14:	00b7ffc4 	movi	r2,-8193
 402ed18:	21080014 	ori	r4,r4,8192
 402ed1c:	2884703a 	and	r2,r5,r2
 402ed20:	80801915 	stw	r2,100(r16)
 402ed24:	80800017 	ldw	r2,0(r16)
 402ed28:	8100030d 	sth	r4,12(r16)
 402ed2c:	81000517 	ldw	r4,20(r16)
 402ed30:	10c7c83a 	sub	r3,r2,r3
 402ed34:	193fe016 	blt	r3,r4,402ecb8 <__flash_rwdata_start+0xffffc3e4>
 402ed38:	800b883a 	mov	r5,r16
 402ed3c:	9009883a 	mov	r4,r18
 402ed40:	40297a40 	call	40297a4 <_fflush_r>
 402ed44:	1000071e 	bne	r2,zero,402ed64 <__swbuf_r+0x114>
 402ed48:	80800017 	ldw	r2,0(r16)
 402ed4c:	00c00044 	movi	r3,1
 402ed50:	003fda06 	br	402ecbc <__flash_rwdata_start+0xffffc3e8>
 402ed54:	800b883a 	mov	r5,r16
 402ed58:	9009883a 	mov	r4,r18
 402ed5c:	40297a40 	call	40297a4 <_fflush_r>
 402ed60:	103fe326 	beq	r2,zero,402ecf0 <__flash_rwdata_start+0xffffc41c>
 402ed64:	00bfffc4 	movi	r2,-1
 402ed68:	003fe206 	br	402ecf4 <__flash_rwdata_start+0xffffc420>
 402ed6c:	800b883a 	mov	r5,r16
 402ed70:	9009883a 	mov	r4,r18
 402ed74:	4027b840 	call	4027b84 <__swsetup_r>
 402ed78:	103ffa1e 	bne	r2,zero,402ed64 <__flash_rwdata_start+0xffffc490>
 402ed7c:	8100030b 	ldhu	r4,12(r16)
 402ed80:	80c00417 	ldw	r3,16(r16)
 402ed84:	003fc506 	br	402ec9c <__flash_rwdata_start+0xffffc3c8>
 402ed88:	4029b900 	call	4029b90 <__sinit>
 402ed8c:	003fbc06 	br	402ec80 <__flash_rwdata_start+0xffffc3ac>

0402ed90 <__swbuf>:
 402ed90:	00800034 	movhi	r2,0
 402ed94:	10877804 	addi	r2,r2,7648
 402ed98:	280d883a 	mov	r6,r5
 402ed9c:	200b883a 	mov	r5,r4
 402eda0:	11000017 	ldw	r4,0(r2)
 402eda4:	402ec501 	jmpi	402ec50 <__swbuf_r>

0402eda8 <_wcrtomb_r>:
 402eda8:	defff604 	addi	sp,sp,-40
 402edac:	00800034 	movhi	r2,0
 402edb0:	dc800815 	stw	r18,32(sp)
 402edb4:	dc400715 	stw	r17,28(sp)
 402edb8:	dc000615 	stw	r16,24(sp)
 402edbc:	10877c04 	addi	r2,r2,7664
 402edc0:	dfc00915 	stw	ra,36(sp)
 402edc4:	2021883a 	mov	r16,r4
 402edc8:	3823883a 	mov	r17,r7
 402edcc:	14800017 	ldw	r18,0(r2)
 402edd0:	28001426 	beq	r5,zero,402ee24 <_wcrtomb_r+0x7c>
 402edd4:	d9400415 	stw	r5,16(sp)
 402edd8:	d9800515 	stw	r6,20(sp)
 402eddc:	402a2180 	call	402a218 <__locale_charset>
 402ede0:	d9800517 	ldw	r6,20(sp)
 402ede4:	d9400417 	ldw	r5,16(sp)
 402ede8:	100f883a 	mov	r7,r2
 402edec:	dc400015 	stw	r17,0(sp)
 402edf0:	8009883a 	mov	r4,r16
 402edf4:	903ee83a 	callr	r18
 402edf8:	00ffffc4 	movi	r3,-1
 402edfc:	10c0031e 	bne	r2,r3,402ee0c <_wcrtomb_r+0x64>
 402ee00:	88000015 	stw	zero,0(r17)
 402ee04:	00c02284 	movi	r3,138
 402ee08:	80c00015 	stw	r3,0(r16)
 402ee0c:	dfc00917 	ldw	ra,36(sp)
 402ee10:	dc800817 	ldw	r18,32(sp)
 402ee14:	dc400717 	ldw	r17,28(sp)
 402ee18:	dc000617 	ldw	r16,24(sp)
 402ee1c:	dec00a04 	addi	sp,sp,40
 402ee20:	f800283a 	ret
 402ee24:	402a2180 	call	402a218 <__locale_charset>
 402ee28:	100f883a 	mov	r7,r2
 402ee2c:	dc400015 	stw	r17,0(sp)
 402ee30:	000d883a 	mov	r6,zero
 402ee34:	d9400104 	addi	r5,sp,4
 402ee38:	8009883a 	mov	r4,r16
 402ee3c:	903ee83a 	callr	r18
 402ee40:	003fed06 	br	402edf8 <__flash_rwdata_start+0xffffc524>

0402ee44 <wcrtomb>:
 402ee44:	defff604 	addi	sp,sp,-40
 402ee48:	00800034 	movhi	r2,0
 402ee4c:	dc800615 	stw	r18,24(sp)
 402ee50:	dc400515 	stw	r17,20(sp)
 402ee54:	10877804 	addi	r2,r2,7648
 402ee58:	dfc00915 	stw	ra,36(sp)
 402ee5c:	dd000815 	stw	r20,32(sp)
 402ee60:	dcc00715 	stw	r19,28(sp)
 402ee64:	dc000415 	stw	r16,16(sp)
 402ee68:	3025883a 	mov	r18,r6
 402ee6c:	14400017 	ldw	r17,0(r2)
 402ee70:	20001926 	beq	r4,zero,402eed8 <wcrtomb+0x94>
 402ee74:	00800034 	movhi	r2,0
 402ee78:	10877c04 	addi	r2,r2,7664
 402ee7c:	15000017 	ldw	r20,0(r2)
 402ee80:	2021883a 	mov	r16,r4
 402ee84:	2827883a 	mov	r19,r5
 402ee88:	402a2180 	call	402a218 <__locale_charset>
 402ee8c:	100f883a 	mov	r7,r2
 402ee90:	dc800015 	stw	r18,0(sp)
 402ee94:	980d883a 	mov	r6,r19
 402ee98:	800b883a 	mov	r5,r16
 402ee9c:	8809883a 	mov	r4,r17
 402eea0:	a03ee83a 	callr	r20
 402eea4:	00ffffc4 	movi	r3,-1
 402eea8:	10c0031e 	bne	r2,r3,402eeb8 <wcrtomb+0x74>
 402eeac:	90000015 	stw	zero,0(r18)
 402eeb0:	00c02284 	movi	r3,138
 402eeb4:	88c00015 	stw	r3,0(r17)
 402eeb8:	dfc00917 	ldw	ra,36(sp)
 402eebc:	dd000817 	ldw	r20,32(sp)
 402eec0:	dcc00717 	ldw	r19,28(sp)
 402eec4:	dc800617 	ldw	r18,24(sp)
 402eec8:	dc400517 	ldw	r17,20(sp)
 402eecc:	dc000417 	ldw	r16,16(sp)
 402eed0:	dec00a04 	addi	sp,sp,40
 402eed4:	f800283a 	ret
 402eed8:	00800034 	movhi	r2,0
 402eedc:	10877c04 	addi	r2,r2,7664
 402eee0:	14000017 	ldw	r16,0(r2)
 402eee4:	402a2180 	call	402a218 <__locale_charset>
 402eee8:	100f883a 	mov	r7,r2
 402eeec:	dc800015 	stw	r18,0(sp)
 402eef0:	000d883a 	mov	r6,zero
 402eef4:	d9400104 	addi	r5,sp,4
 402eef8:	8809883a 	mov	r4,r17
 402eefc:	803ee83a 	callr	r16
 402ef00:	003fe806 	br	402eea4 <__flash_rwdata_start+0xffffc5d0>

0402ef04 <__ascii_wctomb>:
 402ef04:	28000526 	beq	r5,zero,402ef1c <__ascii_wctomb+0x18>
 402ef08:	00803fc4 	movi	r2,255
 402ef0c:	11800536 	bltu	r2,r6,402ef24 <__ascii_wctomb+0x20>
 402ef10:	29800005 	stb	r6,0(r5)
 402ef14:	00800044 	movi	r2,1
 402ef18:	f800283a 	ret
 402ef1c:	0005883a 	mov	r2,zero
 402ef20:	f800283a 	ret
 402ef24:	00802284 	movi	r2,138
 402ef28:	20800015 	stw	r2,0(r4)
 402ef2c:	00bfffc4 	movi	r2,-1
 402ef30:	f800283a 	ret

0402ef34 <_wctomb_r>:
 402ef34:	00800034 	movhi	r2,0
 402ef38:	defff904 	addi	sp,sp,-28
 402ef3c:	10877c04 	addi	r2,r2,7664
 402ef40:	dfc00615 	stw	ra,24(sp)
 402ef44:	dc400515 	stw	r17,20(sp)
 402ef48:	dc000415 	stw	r16,16(sp)
 402ef4c:	3823883a 	mov	r17,r7
 402ef50:	14000017 	ldw	r16,0(r2)
 402ef54:	d9000115 	stw	r4,4(sp)
 402ef58:	d9400215 	stw	r5,8(sp)
 402ef5c:	d9800315 	stw	r6,12(sp)
 402ef60:	402a2180 	call	402a218 <__locale_charset>
 402ef64:	d9800317 	ldw	r6,12(sp)
 402ef68:	d9400217 	ldw	r5,8(sp)
 402ef6c:	d9000117 	ldw	r4,4(sp)
 402ef70:	100f883a 	mov	r7,r2
 402ef74:	dc400015 	stw	r17,0(sp)
 402ef78:	803ee83a 	callr	r16
 402ef7c:	dfc00617 	ldw	ra,24(sp)
 402ef80:	dc400517 	ldw	r17,20(sp)
 402ef84:	dc000417 	ldw	r16,16(sp)
 402ef88:	dec00704 	addi	sp,sp,28
 402ef8c:	f800283a 	ret

0402ef90 <__udivdi3>:
 402ef90:	defff404 	addi	sp,sp,-48
 402ef94:	dcc00515 	stw	r19,20(sp)
 402ef98:	dc000215 	stw	r16,8(sp)
 402ef9c:	dfc00b15 	stw	ra,44(sp)
 402efa0:	df000a15 	stw	fp,40(sp)
 402efa4:	ddc00915 	stw	r23,36(sp)
 402efa8:	dd800815 	stw	r22,32(sp)
 402efac:	dd400715 	stw	r21,28(sp)
 402efb0:	dd000615 	stw	r20,24(sp)
 402efb4:	dc800415 	stw	r18,16(sp)
 402efb8:	dc400315 	stw	r17,12(sp)
 402efbc:	2027883a 	mov	r19,r4
 402efc0:	2821883a 	mov	r16,r5
 402efc4:	3800461e 	bne	r7,zero,402f0e0 <__udivdi3+0x150>
 402efc8:	3023883a 	mov	r17,r6
 402efcc:	2025883a 	mov	r18,r4
 402efd0:	2980572e 	bgeu	r5,r6,402f130 <__udivdi3+0x1a0>
 402efd4:	00bfffd4 	movui	r2,65535
 402efd8:	282d883a 	mov	r22,r5
 402efdc:	1180b236 	bltu	r2,r6,402f2a8 <__udivdi3+0x318>
 402efe0:	00803fc4 	movi	r2,255
 402efe4:	1185803a 	cmpltu	r2,r2,r6
 402efe8:	100490fa 	slli	r2,r2,3
 402efec:	3086d83a 	srl	r3,r6,r2
 402eff0:	01000034 	movhi	r4,0
 402eff4:	21000e04 	addi	r4,r4,56
 402eff8:	20c7883a 	add	r3,r4,r3
 402effc:	18c00003 	ldbu	r3,0(r3)
 402f000:	1885883a 	add	r2,r3,r2
 402f004:	00c00804 	movi	r3,32
 402f008:	1887c83a 	sub	r3,r3,r2
 402f00c:	18000526 	beq	r3,zero,402f024 <__udivdi3+0x94>
 402f010:	80e0983a 	sll	r16,r16,r3
 402f014:	9884d83a 	srl	r2,r19,r2
 402f018:	30e2983a 	sll	r17,r6,r3
 402f01c:	98e4983a 	sll	r18,r19,r3
 402f020:	142cb03a 	or	r22,r2,r16
 402f024:	882ad43a 	srli	r21,r17,16
 402f028:	b009883a 	mov	r4,r22
 402f02c:	8d3fffcc 	andi	r20,r17,65535
 402f030:	a80b883a 	mov	r5,r21
 402f034:	40256d40 	call	40256d4 <__umodsi3>
 402f038:	b009883a 	mov	r4,r22
 402f03c:	a80b883a 	mov	r5,r21
 402f040:	1027883a 	mov	r19,r2
 402f044:	40256700 	call	4025670 <__udivsi3>
 402f048:	100b883a 	mov	r5,r2
 402f04c:	a009883a 	mov	r4,r20
 402f050:	102d883a 	mov	r22,r2
 402f054:	402572c0 	call	402572c <__mulsi3>
 402f058:	9826943a 	slli	r19,r19,16
 402f05c:	9006d43a 	srli	r3,r18,16
 402f060:	1cc6b03a 	or	r3,r3,r19
 402f064:	1880052e 	bgeu	r3,r2,402f07c <__udivdi3+0xec>
 402f068:	1c47883a 	add	r3,r3,r17
 402f06c:	b13fffc4 	addi	r4,r22,-1
 402f070:	1c400136 	bltu	r3,r17,402f078 <__udivdi3+0xe8>
 402f074:	18814236 	bltu	r3,r2,402f580 <__udivdi3+0x5f0>
 402f078:	202d883a 	mov	r22,r4
 402f07c:	18a1c83a 	sub	r16,r3,r2
 402f080:	8009883a 	mov	r4,r16
 402f084:	a80b883a 	mov	r5,r21
 402f088:	40256d40 	call	40256d4 <__umodsi3>
 402f08c:	1027883a 	mov	r19,r2
 402f090:	8009883a 	mov	r4,r16
 402f094:	a80b883a 	mov	r5,r21
 402f098:	9826943a 	slli	r19,r19,16
 402f09c:	40256700 	call	4025670 <__udivsi3>
 402f0a0:	100b883a 	mov	r5,r2
 402f0a4:	a009883a 	mov	r4,r20
 402f0a8:	94bfffcc 	andi	r18,r18,65535
 402f0ac:	1021883a 	mov	r16,r2
 402f0b0:	94e4b03a 	or	r18,r18,r19
 402f0b4:	402572c0 	call	402572c <__mulsi3>
 402f0b8:	9080052e 	bgeu	r18,r2,402f0d0 <__udivdi3+0x140>
 402f0bc:	8ca5883a 	add	r18,r17,r18
 402f0c0:	80ffffc4 	addi	r3,r16,-1
 402f0c4:	94410c36 	bltu	r18,r17,402f4f8 <__udivdi3+0x568>
 402f0c8:	90810b2e 	bgeu	r18,r2,402f4f8 <__udivdi3+0x568>
 402f0cc:	843fff84 	addi	r16,r16,-2
 402f0d0:	b004943a 	slli	r2,r22,16
 402f0d4:	0007883a 	mov	r3,zero
 402f0d8:	1404b03a 	or	r2,r2,r16
 402f0dc:	00005e06 	br	402f258 <__udivdi3+0x2c8>
 402f0e0:	29c05b36 	bltu	r5,r7,402f250 <__udivdi3+0x2c0>
 402f0e4:	00bfffd4 	movui	r2,65535
 402f0e8:	11c0672e 	bgeu	r2,r7,402f288 <__udivdi3+0x2f8>
 402f0ec:	00804034 	movhi	r2,256
 402f0f0:	10bfffc4 	addi	r2,r2,-1
 402f0f4:	11c10a36 	bltu	r2,r7,402f520 <__udivdi3+0x590>
 402f0f8:	00800404 	movi	r2,16
 402f0fc:	3886d83a 	srl	r3,r7,r2
 402f100:	01000034 	movhi	r4,0
 402f104:	21000e04 	addi	r4,r4,56
 402f108:	20c7883a 	add	r3,r4,r3
 402f10c:	18c00003 	ldbu	r3,0(r3)
 402f110:	05c00804 	movi	r23,32
 402f114:	1885883a 	add	r2,r3,r2
 402f118:	b8afc83a 	sub	r23,r23,r2
 402f11c:	b800671e 	bne	r23,zero,402f2bc <__udivdi3+0x32c>
 402f120:	3c010536 	bltu	r7,r16,402f538 <__udivdi3+0x5a8>
 402f124:	9985403a 	cmpgeu	r2,r19,r6
 402f128:	0007883a 	mov	r3,zero
 402f12c:	00004a06 	br	402f258 <__udivdi3+0x2c8>
 402f130:	3000041e 	bne	r6,zero,402f144 <__udivdi3+0x1b4>
 402f134:	000b883a 	mov	r5,zero
 402f138:	01000044 	movi	r4,1
 402f13c:	40256700 	call	4025670 <__udivsi3>
 402f140:	1023883a 	mov	r17,r2
 402f144:	00bfffd4 	movui	r2,65535
 402f148:	1440532e 	bgeu	r2,r17,402f298 <__udivdi3+0x308>
 402f14c:	00804034 	movhi	r2,256
 402f150:	10bfffc4 	addi	r2,r2,-1
 402f154:	1440f436 	bltu	r2,r17,402f528 <__udivdi3+0x598>
 402f158:	00800404 	movi	r2,16
 402f15c:	8886d83a 	srl	r3,r17,r2
 402f160:	01000034 	movhi	r4,0
 402f164:	21000e04 	addi	r4,r4,56
 402f168:	20c7883a 	add	r3,r4,r3
 402f16c:	18c00003 	ldbu	r3,0(r3)
 402f170:	1885883a 	add	r2,r3,r2
 402f174:	00c00804 	movi	r3,32
 402f178:	1887c83a 	sub	r3,r3,r2
 402f17c:	1800a51e 	bne	r3,zero,402f414 <__udivdi3+0x484>
 402f180:	882ad43a 	srli	r21,r17,16
 402f184:	8461c83a 	sub	r16,r16,r17
 402f188:	8d3fffcc 	andi	r20,r17,65535
 402f18c:	00c00044 	movi	r3,1
 402f190:	a80b883a 	mov	r5,r21
 402f194:	8009883a 	mov	r4,r16
 402f198:	d8c00115 	stw	r3,4(sp)
 402f19c:	40256d40 	call	40256d4 <__umodsi3>
 402f1a0:	a80b883a 	mov	r5,r21
 402f1a4:	8009883a 	mov	r4,r16
 402f1a8:	1027883a 	mov	r19,r2
 402f1ac:	40256700 	call	4025670 <__udivsi3>
 402f1b0:	a00b883a 	mov	r5,r20
 402f1b4:	1009883a 	mov	r4,r2
 402f1b8:	102d883a 	mov	r22,r2
 402f1bc:	402572c0 	call	402572c <__mulsi3>
 402f1c0:	9826943a 	slli	r19,r19,16
 402f1c4:	900ed43a 	srli	r7,r18,16
 402f1c8:	d8c00117 	ldw	r3,4(sp)
 402f1cc:	3cceb03a 	or	r7,r7,r19
 402f1d0:	3880052e 	bgeu	r7,r2,402f1e8 <__udivdi3+0x258>
 402f1d4:	3c4f883a 	add	r7,r7,r17
 402f1d8:	b13fffc4 	addi	r4,r22,-1
 402f1dc:	3c400136 	bltu	r7,r17,402f1e4 <__udivdi3+0x254>
 402f1e0:	3880e436 	bltu	r7,r2,402f574 <__udivdi3+0x5e4>
 402f1e4:	202d883a 	mov	r22,r4
 402f1e8:	38a1c83a 	sub	r16,r7,r2
 402f1ec:	8009883a 	mov	r4,r16
 402f1f0:	a80b883a 	mov	r5,r21
 402f1f4:	d8c00115 	stw	r3,4(sp)
 402f1f8:	40256d40 	call	40256d4 <__umodsi3>
 402f1fc:	1027883a 	mov	r19,r2
 402f200:	8009883a 	mov	r4,r16
 402f204:	a80b883a 	mov	r5,r21
 402f208:	9826943a 	slli	r19,r19,16
 402f20c:	40256700 	call	4025670 <__udivsi3>
 402f210:	a00b883a 	mov	r5,r20
 402f214:	1009883a 	mov	r4,r2
 402f218:	94bfffcc 	andi	r18,r18,65535
 402f21c:	1021883a 	mov	r16,r2
 402f220:	94e4b03a 	or	r18,r18,r19
 402f224:	402572c0 	call	402572c <__mulsi3>
 402f228:	d8c00117 	ldw	r3,4(sp)
 402f22c:	9080052e 	bgeu	r18,r2,402f244 <__udivdi3+0x2b4>
 402f230:	8ca5883a 	add	r18,r17,r18
 402f234:	813fffc4 	addi	r4,r16,-1
 402f238:	9440ad36 	bltu	r18,r17,402f4f0 <__udivdi3+0x560>
 402f23c:	9080ac2e 	bgeu	r18,r2,402f4f0 <__udivdi3+0x560>
 402f240:	843fff84 	addi	r16,r16,-2
 402f244:	b004943a 	slli	r2,r22,16
 402f248:	1404b03a 	or	r2,r2,r16
 402f24c:	00000206 	br	402f258 <__udivdi3+0x2c8>
 402f250:	0007883a 	mov	r3,zero
 402f254:	0005883a 	mov	r2,zero
 402f258:	dfc00b17 	ldw	ra,44(sp)
 402f25c:	df000a17 	ldw	fp,40(sp)
 402f260:	ddc00917 	ldw	r23,36(sp)
 402f264:	dd800817 	ldw	r22,32(sp)
 402f268:	dd400717 	ldw	r21,28(sp)
 402f26c:	dd000617 	ldw	r20,24(sp)
 402f270:	dcc00517 	ldw	r19,20(sp)
 402f274:	dc800417 	ldw	r18,16(sp)
 402f278:	dc400317 	ldw	r17,12(sp)
 402f27c:	dc000217 	ldw	r16,8(sp)
 402f280:	dec00c04 	addi	sp,sp,48
 402f284:	f800283a 	ret
 402f288:	00803fc4 	movi	r2,255
 402f28c:	11c5803a 	cmpltu	r2,r2,r7
 402f290:	100490fa 	slli	r2,r2,3
 402f294:	003f9906 	br	402f0fc <__flash_rwdata_start+0xffffc828>
 402f298:	00803fc4 	movi	r2,255
 402f29c:	1445803a 	cmpltu	r2,r2,r17
 402f2a0:	100490fa 	slli	r2,r2,3
 402f2a4:	003fad06 	br	402f15c <__flash_rwdata_start+0xffffc888>
 402f2a8:	00804034 	movhi	r2,256
 402f2ac:	10bfffc4 	addi	r2,r2,-1
 402f2b0:	11809f36 	bltu	r2,r6,402f530 <__udivdi3+0x5a0>
 402f2b4:	00800404 	movi	r2,16
 402f2b8:	003f4c06 	br	402efec <__flash_rwdata_start+0xffffc718>
 402f2bc:	3dce983a 	sll	r7,r7,r23
 402f2c0:	30b8d83a 	srl	fp,r6,r2
 402f2c4:	80a2d83a 	srl	r17,r16,r2
 402f2c8:	35cc983a 	sll	r6,r6,r23
 402f2cc:	3f38b03a 	or	fp,r7,fp
 402f2d0:	e024d43a 	srli	r18,fp,16
 402f2d4:	9884d83a 	srl	r2,r19,r2
 402f2d8:	85e0983a 	sll	r16,r16,r23
 402f2dc:	8809883a 	mov	r4,r17
 402f2e0:	900b883a 	mov	r5,r18
 402f2e4:	d9800015 	stw	r6,0(sp)
 402f2e8:	1420b03a 	or	r16,r2,r16
 402f2ec:	40256d40 	call	40256d4 <__umodsi3>
 402f2f0:	900b883a 	mov	r5,r18
 402f2f4:	8809883a 	mov	r4,r17
 402f2f8:	1029883a 	mov	r20,r2
 402f2fc:	e5bfffcc 	andi	r22,fp,65535
 402f300:	40256700 	call	4025670 <__udivsi3>
 402f304:	100b883a 	mov	r5,r2
 402f308:	b009883a 	mov	r4,r22
 402f30c:	102b883a 	mov	r21,r2
 402f310:	402572c0 	call	402572c <__mulsi3>
 402f314:	a028943a 	slli	r20,r20,16
 402f318:	8006d43a 	srli	r3,r16,16
 402f31c:	1d06b03a 	or	r3,r3,r20
 402f320:	1880042e 	bgeu	r3,r2,402f334 <__udivdi3+0x3a4>
 402f324:	1f07883a 	add	r3,r3,fp
 402f328:	a93fffc4 	addi	r4,r21,-1
 402f32c:	1f00892e 	bgeu	r3,fp,402f554 <__udivdi3+0x5c4>
 402f330:	202b883a 	mov	r21,r4
 402f334:	18a3c83a 	sub	r17,r3,r2
 402f338:	8809883a 	mov	r4,r17
 402f33c:	900b883a 	mov	r5,r18
 402f340:	40256d40 	call	40256d4 <__umodsi3>
 402f344:	1029883a 	mov	r20,r2
 402f348:	8809883a 	mov	r4,r17
 402f34c:	900b883a 	mov	r5,r18
 402f350:	a028943a 	slli	r20,r20,16
 402f354:	40256700 	call	4025670 <__udivsi3>
 402f358:	100b883a 	mov	r5,r2
 402f35c:	b009883a 	mov	r4,r22
 402f360:	843fffcc 	andi	r16,r16,65535
 402f364:	1023883a 	mov	r17,r2
 402f368:	8520b03a 	or	r16,r16,r20
 402f36c:	402572c0 	call	402572c <__mulsi3>
 402f370:	8080042e 	bgeu	r16,r2,402f384 <__udivdi3+0x3f4>
 402f374:	8721883a 	add	r16,r16,fp
 402f378:	88ffffc4 	addi	r3,r17,-1
 402f37c:	8700712e 	bgeu	r16,fp,402f544 <__udivdi3+0x5b4>
 402f380:	1823883a 	mov	r17,r3
 402f384:	a80e943a 	slli	r7,r21,16
 402f388:	d8c00017 	ldw	r3,0(sp)
 402f38c:	80a1c83a 	sub	r16,r16,r2
 402f390:	3c64b03a 	or	r18,r7,r17
 402f394:	1d3fffcc 	andi	r20,r3,65535
 402f398:	9022d43a 	srli	r17,r18,16
 402f39c:	95bfffcc 	andi	r22,r18,65535
 402f3a0:	a00b883a 	mov	r5,r20
 402f3a4:	b009883a 	mov	r4,r22
 402f3a8:	182ad43a 	srli	r21,r3,16
 402f3ac:	402572c0 	call	402572c <__mulsi3>
 402f3b0:	a00b883a 	mov	r5,r20
 402f3b4:	8809883a 	mov	r4,r17
 402f3b8:	1039883a 	mov	fp,r2
 402f3bc:	402572c0 	call	402572c <__mulsi3>
 402f3c0:	8809883a 	mov	r4,r17
 402f3c4:	a80b883a 	mov	r5,r21
 402f3c8:	1029883a 	mov	r20,r2
 402f3cc:	402572c0 	call	402572c <__mulsi3>
 402f3d0:	a80b883a 	mov	r5,r21
 402f3d4:	b009883a 	mov	r4,r22
 402f3d8:	1023883a 	mov	r17,r2
 402f3dc:	402572c0 	call	402572c <__mulsi3>
 402f3e0:	e006d43a 	srli	r3,fp,16
 402f3e4:	1505883a 	add	r2,r2,r20
 402f3e8:	1887883a 	add	r3,r3,r2
 402f3ec:	1d00022e 	bgeu	r3,r20,402f3f8 <__udivdi3+0x468>
 402f3f0:	00800074 	movhi	r2,1
 402f3f4:	88a3883a 	add	r17,r17,r2
 402f3f8:	1804d43a 	srli	r2,r3,16
 402f3fc:	1463883a 	add	r17,r2,r17
 402f400:	84404436 	bltu	r16,r17,402f514 <__udivdi3+0x584>
 402f404:	84403e26 	beq	r16,r17,402f500 <__udivdi3+0x570>
 402f408:	9005883a 	mov	r2,r18
 402f40c:	0007883a 	mov	r3,zero
 402f410:	003f9106 	br	402f258 <__flash_rwdata_start+0xffffc984>
 402f414:	88e2983a 	sll	r17,r17,r3
 402f418:	80aed83a 	srl	r23,r16,r2
 402f41c:	80e0983a 	sll	r16,r16,r3
 402f420:	882ad43a 	srli	r21,r17,16
 402f424:	9884d83a 	srl	r2,r19,r2
 402f428:	b809883a 	mov	r4,r23
 402f42c:	a80b883a 	mov	r5,r21
 402f430:	98e4983a 	sll	r18,r19,r3
 402f434:	142cb03a 	or	r22,r2,r16
 402f438:	40256d40 	call	40256d4 <__umodsi3>
 402f43c:	b809883a 	mov	r4,r23
 402f440:	a80b883a 	mov	r5,r21
 402f444:	1027883a 	mov	r19,r2
 402f448:	8d3fffcc 	andi	r20,r17,65535
 402f44c:	40256700 	call	4025670 <__udivsi3>
 402f450:	a009883a 	mov	r4,r20
 402f454:	100b883a 	mov	r5,r2
 402f458:	102f883a 	mov	r23,r2
 402f45c:	402572c0 	call	402572c <__mulsi3>
 402f460:	9826943a 	slli	r19,r19,16
 402f464:	b008d43a 	srli	r4,r22,16
 402f468:	24c8b03a 	or	r4,r4,r19
 402f46c:	2080062e 	bgeu	r4,r2,402f488 <__udivdi3+0x4f8>
 402f470:	2449883a 	add	r4,r4,r17
 402f474:	b8ffffc4 	addi	r3,r23,-1
 402f478:	24403c36 	bltu	r4,r17,402f56c <__udivdi3+0x5dc>
 402f47c:	20803b2e 	bgeu	r4,r2,402f56c <__udivdi3+0x5dc>
 402f480:	bdffff84 	addi	r23,r23,-2
 402f484:	2449883a 	add	r4,r4,r17
 402f488:	20a1c83a 	sub	r16,r4,r2
 402f48c:	a80b883a 	mov	r5,r21
 402f490:	8009883a 	mov	r4,r16
 402f494:	40256d40 	call	40256d4 <__umodsi3>
 402f498:	a80b883a 	mov	r5,r21
 402f49c:	8009883a 	mov	r4,r16
 402f4a0:	1027883a 	mov	r19,r2
 402f4a4:	40256700 	call	4025670 <__udivsi3>
 402f4a8:	a009883a 	mov	r4,r20
 402f4ac:	100b883a 	mov	r5,r2
 402f4b0:	9826943a 	slli	r19,r19,16
 402f4b4:	1039883a 	mov	fp,r2
 402f4b8:	402572c0 	call	402572c <__mulsi3>
 402f4bc:	b13fffcc 	andi	r4,r22,65535
 402f4c0:	24c8b03a 	or	r4,r4,r19
 402f4c4:	2080062e 	bgeu	r4,r2,402f4e0 <__udivdi3+0x550>
 402f4c8:	2449883a 	add	r4,r4,r17
 402f4cc:	e0ffffc4 	addi	r3,fp,-1
 402f4d0:	24402436 	bltu	r4,r17,402f564 <__udivdi3+0x5d4>
 402f4d4:	2080232e 	bgeu	r4,r2,402f564 <__udivdi3+0x5d4>
 402f4d8:	e73fff84 	addi	fp,fp,-2
 402f4dc:	2449883a 	add	r4,r4,r17
 402f4e0:	b82e943a 	slli	r23,r23,16
 402f4e4:	20a1c83a 	sub	r16,r4,r2
 402f4e8:	bf06b03a 	or	r3,r23,fp
 402f4ec:	003f2806 	br	402f190 <__flash_rwdata_start+0xffffc8bc>
 402f4f0:	2021883a 	mov	r16,r4
 402f4f4:	003f5306 	br	402f244 <__flash_rwdata_start+0xffffc970>
 402f4f8:	1821883a 	mov	r16,r3
 402f4fc:	003ef406 	br	402f0d0 <__flash_rwdata_start+0xffffc7fc>
 402f500:	1806943a 	slli	r3,r3,16
 402f504:	9de6983a 	sll	r19,r19,r23
 402f508:	e73fffcc 	andi	fp,fp,65535
 402f50c:	1f07883a 	add	r3,r3,fp
 402f510:	98ffbd2e 	bgeu	r19,r3,402f408 <__flash_rwdata_start+0xffffcb34>
 402f514:	90bfffc4 	addi	r2,r18,-1
 402f518:	0007883a 	mov	r3,zero
 402f51c:	003f4e06 	br	402f258 <__flash_rwdata_start+0xffffc984>
 402f520:	00800604 	movi	r2,24
 402f524:	003ef506 	br	402f0fc <__flash_rwdata_start+0xffffc828>
 402f528:	00800604 	movi	r2,24
 402f52c:	003f0b06 	br	402f15c <__flash_rwdata_start+0xffffc888>
 402f530:	00800604 	movi	r2,24
 402f534:	003ead06 	br	402efec <__flash_rwdata_start+0xffffc718>
 402f538:	0007883a 	mov	r3,zero
 402f53c:	00800044 	movi	r2,1
 402f540:	003f4506 	br	402f258 <__flash_rwdata_start+0xffffc984>
 402f544:	80bf8e2e 	bgeu	r16,r2,402f380 <__flash_rwdata_start+0xffffcaac>
 402f548:	8c7fff84 	addi	r17,r17,-2
 402f54c:	8721883a 	add	r16,r16,fp
 402f550:	003f8c06 	br	402f384 <__flash_rwdata_start+0xffffcab0>
 402f554:	18bf762e 	bgeu	r3,r2,402f330 <__flash_rwdata_start+0xffffca5c>
 402f558:	ad7fff84 	addi	r21,r21,-2
 402f55c:	1f07883a 	add	r3,r3,fp
 402f560:	003f7406 	br	402f334 <__flash_rwdata_start+0xffffca60>
 402f564:	1839883a 	mov	fp,r3
 402f568:	003fdd06 	br	402f4e0 <__flash_rwdata_start+0xffffcc0c>
 402f56c:	182f883a 	mov	r23,r3
 402f570:	003fc506 	br	402f488 <__flash_rwdata_start+0xffffcbb4>
 402f574:	b5bfff84 	addi	r22,r22,-2
 402f578:	3c4f883a 	add	r7,r7,r17
 402f57c:	003f1a06 	br	402f1e8 <__flash_rwdata_start+0xffffc914>
 402f580:	b5bfff84 	addi	r22,r22,-2
 402f584:	1c47883a 	add	r3,r3,r17
 402f588:	003ebc06 	br	402f07c <__flash_rwdata_start+0xffffc7a8>

0402f58c <__umoddi3>:
 402f58c:	defff304 	addi	sp,sp,-52
 402f590:	df000b15 	stw	fp,44(sp)
 402f594:	dc400415 	stw	r17,16(sp)
 402f598:	dc000315 	stw	r16,12(sp)
 402f59c:	dfc00c15 	stw	ra,48(sp)
 402f5a0:	ddc00a15 	stw	r23,40(sp)
 402f5a4:	dd800915 	stw	r22,36(sp)
 402f5a8:	dd400815 	stw	r21,32(sp)
 402f5ac:	dd000715 	stw	r20,28(sp)
 402f5b0:	dcc00615 	stw	r19,24(sp)
 402f5b4:	dc800515 	stw	r18,20(sp)
 402f5b8:	2021883a 	mov	r16,r4
 402f5bc:	2823883a 	mov	r17,r5
 402f5c0:	2839883a 	mov	fp,r5
 402f5c4:	3800401e 	bne	r7,zero,402f6c8 <__umoddi3+0x13c>
 402f5c8:	3027883a 	mov	r19,r6
 402f5cc:	2029883a 	mov	r20,r4
 402f5d0:	2980552e 	bgeu	r5,r6,402f728 <__umoddi3+0x19c>
 402f5d4:	00bfffd4 	movui	r2,65535
 402f5d8:	1180a236 	bltu	r2,r6,402f864 <__umoddi3+0x2d8>
 402f5dc:	01003fc4 	movi	r4,255
 402f5e0:	2189803a 	cmpltu	r4,r4,r6
 402f5e4:	200890fa 	slli	r4,r4,3
 402f5e8:	3104d83a 	srl	r2,r6,r4
 402f5ec:	00c00034 	movhi	r3,0
 402f5f0:	18c00e04 	addi	r3,r3,56
 402f5f4:	1885883a 	add	r2,r3,r2
 402f5f8:	10c00003 	ldbu	r3,0(r2)
 402f5fc:	00800804 	movi	r2,32
 402f600:	1909883a 	add	r4,r3,r4
 402f604:	1125c83a 	sub	r18,r2,r4
 402f608:	90000526 	beq	r18,zero,402f620 <__umoddi3+0x94>
 402f60c:	8ca2983a 	sll	r17,r17,r18
 402f610:	8108d83a 	srl	r4,r16,r4
 402f614:	34a6983a 	sll	r19,r6,r18
 402f618:	84a8983a 	sll	r20,r16,r18
 402f61c:	2478b03a 	or	fp,r4,r17
 402f620:	982cd43a 	srli	r22,r19,16
 402f624:	e009883a 	mov	r4,fp
 402f628:	9dffffcc 	andi	r23,r19,65535
 402f62c:	b00b883a 	mov	r5,r22
 402f630:	40256d40 	call	40256d4 <__umodsi3>
 402f634:	b00b883a 	mov	r5,r22
 402f638:	e009883a 	mov	r4,fp
 402f63c:	102b883a 	mov	r21,r2
 402f640:	40256700 	call	4025670 <__udivsi3>
 402f644:	100b883a 	mov	r5,r2
 402f648:	b809883a 	mov	r4,r23
 402f64c:	402572c0 	call	402572c <__mulsi3>
 402f650:	a82a943a 	slli	r21,r21,16
 402f654:	a006d43a 	srli	r3,r20,16
 402f658:	1d46b03a 	or	r3,r3,r21
 402f65c:	1880032e 	bgeu	r3,r2,402f66c <__umoddi3+0xe0>
 402f660:	1cc7883a 	add	r3,r3,r19
 402f664:	1cc00136 	bltu	r3,r19,402f66c <__umoddi3+0xe0>
 402f668:	18813136 	bltu	r3,r2,402fb30 <__umoddi3+0x5a4>
 402f66c:	18a1c83a 	sub	r16,r3,r2
 402f670:	b00b883a 	mov	r5,r22
 402f674:	8009883a 	mov	r4,r16
 402f678:	40256d40 	call	40256d4 <__umodsi3>
 402f67c:	b00b883a 	mov	r5,r22
 402f680:	8009883a 	mov	r4,r16
 402f684:	1023883a 	mov	r17,r2
 402f688:	40256700 	call	4025670 <__udivsi3>
 402f68c:	100b883a 	mov	r5,r2
 402f690:	b809883a 	mov	r4,r23
 402f694:	8822943a 	slli	r17,r17,16
 402f698:	402572c0 	call	402572c <__mulsi3>
 402f69c:	a0ffffcc 	andi	r3,r20,65535
 402f6a0:	1c46b03a 	or	r3,r3,r17
 402f6a4:	1880042e 	bgeu	r3,r2,402f6b8 <__umoddi3+0x12c>
 402f6a8:	1cc7883a 	add	r3,r3,r19
 402f6ac:	1cc00236 	bltu	r3,r19,402f6b8 <__umoddi3+0x12c>
 402f6b0:	1880012e 	bgeu	r3,r2,402f6b8 <__umoddi3+0x12c>
 402f6b4:	1cc7883a 	add	r3,r3,r19
 402f6b8:	1885c83a 	sub	r2,r3,r2
 402f6bc:	1484d83a 	srl	r2,r2,r18
 402f6c0:	0007883a 	mov	r3,zero
 402f6c4:	00005306 	br	402f814 <__umoddi3+0x288>
 402f6c8:	29c05036 	bltu	r5,r7,402f80c <__umoddi3+0x280>
 402f6cc:	00bfffd4 	movui	r2,65535
 402f6d0:	11c05c2e 	bgeu	r2,r7,402f844 <__umoddi3+0x2b8>
 402f6d4:	00804034 	movhi	r2,256
 402f6d8:	10bfffc4 	addi	r2,r2,-1
 402f6dc:	11c10636 	bltu	r2,r7,402faf8 <__umoddi3+0x56c>
 402f6e0:	01000404 	movi	r4,16
 402f6e4:	3904d83a 	srl	r2,r7,r4
 402f6e8:	00c00034 	movhi	r3,0
 402f6ec:	18c00e04 	addi	r3,r3,56
 402f6f0:	1885883a 	add	r2,r3,r2
 402f6f4:	14c00003 	ldbu	r19,0(r2)
 402f6f8:	00c00804 	movi	r3,32
 402f6fc:	9927883a 	add	r19,r19,r4
 402f700:	1ce9c83a 	sub	r20,r3,r19
 402f704:	a0005c1e 	bne	r20,zero,402f878 <__umoddi3+0x2ec>
 402f708:	3c400136 	bltu	r7,r17,402f710 <__umoddi3+0x184>
 402f70c:	81810a36 	bltu	r16,r6,402fb38 <__umoddi3+0x5ac>
 402f710:	8185c83a 	sub	r2,r16,r6
 402f714:	89e3c83a 	sub	r17,r17,r7
 402f718:	8089803a 	cmpltu	r4,r16,r2
 402f71c:	8939c83a 	sub	fp,r17,r4
 402f720:	e007883a 	mov	r3,fp
 402f724:	00003b06 	br	402f814 <__umoddi3+0x288>
 402f728:	3000041e 	bne	r6,zero,402f73c <__umoddi3+0x1b0>
 402f72c:	000b883a 	mov	r5,zero
 402f730:	01000044 	movi	r4,1
 402f734:	40256700 	call	4025670 <__udivsi3>
 402f738:	1027883a 	mov	r19,r2
 402f73c:	00bfffd4 	movui	r2,65535
 402f740:	14c0442e 	bgeu	r2,r19,402f854 <__umoddi3+0x2c8>
 402f744:	00804034 	movhi	r2,256
 402f748:	10bfffc4 	addi	r2,r2,-1
 402f74c:	14c0ec36 	bltu	r2,r19,402fb00 <__umoddi3+0x574>
 402f750:	00800404 	movi	r2,16
 402f754:	9886d83a 	srl	r3,r19,r2
 402f758:	01000034 	movhi	r4,0
 402f75c:	21000e04 	addi	r4,r4,56
 402f760:	20c7883a 	add	r3,r4,r3
 402f764:	18c00003 	ldbu	r3,0(r3)
 402f768:	1887883a 	add	r3,r3,r2
 402f76c:	00800804 	movi	r2,32
 402f770:	10e5c83a 	sub	r18,r2,r3
 402f774:	9000ab1e 	bne	r18,zero,402fa24 <__umoddi3+0x498>
 402f778:	982cd43a 	srli	r22,r19,16
 402f77c:	8ce3c83a 	sub	r17,r17,r19
 402f780:	9dffffcc 	andi	r23,r19,65535
 402f784:	b00b883a 	mov	r5,r22
 402f788:	8809883a 	mov	r4,r17
 402f78c:	40256d40 	call	40256d4 <__umodsi3>
 402f790:	b00b883a 	mov	r5,r22
 402f794:	8809883a 	mov	r4,r17
 402f798:	102b883a 	mov	r21,r2
 402f79c:	40256700 	call	4025670 <__udivsi3>
 402f7a0:	b80b883a 	mov	r5,r23
 402f7a4:	1009883a 	mov	r4,r2
 402f7a8:	402572c0 	call	402572c <__mulsi3>
 402f7ac:	a82a943a 	slli	r21,r21,16
 402f7b0:	a006d43a 	srli	r3,r20,16
 402f7b4:	1d46b03a 	or	r3,r3,r21
 402f7b8:	1880042e 	bgeu	r3,r2,402f7cc <__umoddi3+0x240>
 402f7bc:	1cc7883a 	add	r3,r3,r19
 402f7c0:	1cc00236 	bltu	r3,r19,402f7cc <__umoddi3+0x240>
 402f7c4:	1880012e 	bgeu	r3,r2,402f7cc <__umoddi3+0x240>
 402f7c8:	1cc7883a 	add	r3,r3,r19
 402f7cc:	18a1c83a 	sub	r16,r3,r2
 402f7d0:	b00b883a 	mov	r5,r22
 402f7d4:	8009883a 	mov	r4,r16
 402f7d8:	40256d40 	call	40256d4 <__umodsi3>
 402f7dc:	1023883a 	mov	r17,r2
 402f7e0:	b00b883a 	mov	r5,r22
 402f7e4:	8009883a 	mov	r4,r16
 402f7e8:	40256700 	call	4025670 <__udivsi3>
 402f7ec:	8822943a 	slli	r17,r17,16
 402f7f0:	b80b883a 	mov	r5,r23
 402f7f4:	1009883a 	mov	r4,r2
 402f7f8:	402572c0 	call	402572c <__mulsi3>
 402f7fc:	a53fffcc 	andi	r20,r20,65535
 402f800:	a446b03a 	or	r3,r20,r17
 402f804:	18bfac2e 	bgeu	r3,r2,402f6b8 <__flash_rwdata_start+0xffffcde4>
 402f808:	003fa706 	br	402f6a8 <__flash_rwdata_start+0xffffcdd4>
 402f80c:	2005883a 	mov	r2,r4
 402f810:	2807883a 	mov	r3,r5
 402f814:	dfc00c17 	ldw	ra,48(sp)
 402f818:	df000b17 	ldw	fp,44(sp)
 402f81c:	ddc00a17 	ldw	r23,40(sp)
 402f820:	dd800917 	ldw	r22,36(sp)
 402f824:	dd400817 	ldw	r21,32(sp)
 402f828:	dd000717 	ldw	r20,28(sp)
 402f82c:	dcc00617 	ldw	r19,24(sp)
 402f830:	dc800517 	ldw	r18,20(sp)
 402f834:	dc400417 	ldw	r17,16(sp)
 402f838:	dc000317 	ldw	r16,12(sp)
 402f83c:	dec00d04 	addi	sp,sp,52
 402f840:	f800283a 	ret
 402f844:	04c03fc4 	movi	r19,255
 402f848:	99c9803a 	cmpltu	r4,r19,r7
 402f84c:	200890fa 	slli	r4,r4,3
 402f850:	003fa406 	br	402f6e4 <__flash_rwdata_start+0xffffce10>
 402f854:	00803fc4 	movi	r2,255
 402f858:	14c5803a 	cmpltu	r2,r2,r19
 402f85c:	100490fa 	slli	r2,r2,3
 402f860:	003fbc06 	br	402f754 <__flash_rwdata_start+0xffffce80>
 402f864:	00804034 	movhi	r2,256
 402f868:	10bfffc4 	addi	r2,r2,-1
 402f86c:	1180a636 	bltu	r2,r6,402fb08 <__umoddi3+0x57c>
 402f870:	01000404 	movi	r4,16
 402f874:	003f5c06 	br	402f5e8 <__flash_rwdata_start+0xffffcd14>
 402f878:	3d0e983a 	sll	r7,r7,r20
 402f87c:	34ead83a 	srl	r21,r6,r19
 402f880:	8cc6d83a 	srl	r3,r17,r19
 402f884:	8d10983a 	sll	r8,r17,r20
 402f888:	3d6ab03a 	or	r21,r7,r21
 402f88c:	a82cd43a 	srli	r22,r21,16
 402f890:	84e2d83a 	srl	r17,r16,r19
 402f894:	1809883a 	mov	r4,r3
 402f898:	b00b883a 	mov	r5,r22
 402f89c:	8a22b03a 	or	r17,r17,r8
 402f8a0:	3524983a 	sll	r18,r6,r20
 402f8a4:	dc400015 	stw	r17,0(sp)
 402f8a8:	d8c00115 	stw	r3,4(sp)
 402f8ac:	40256d40 	call	40256d4 <__umodsi3>
 402f8b0:	d8c00117 	ldw	r3,4(sp)
 402f8b4:	b00b883a 	mov	r5,r22
 402f8b8:	1039883a 	mov	fp,r2
 402f8bc:	1809883a 	mov	r4,r3
 402f8c0:	40256700 	call	4025670 <__udivsi3>
 402f8c4:	adffffcc 	andi	r23,r21,65535
 402f8c8:	100b883a 	mov	r5,r2
 402f8cc:	b809883a 	mov	r4,r23
 402f8d0:	1023883a 	mov	r17,r2
 402f8d4:	402572c0 	call	402572c <__mulsi3>
 402f8d8:	d9400017 	ldw	r5,0(sp)
 402f8dc:	e008943a 	slli	r4,fp,16
 402f8e0:	8520983a 	sll	r16,r16,r20
 402f8e4:	2806d43a 	srli	r3,r5,16
 402f8e8:	1906b03a 	or	r3,r3,r4
 402f8ec:	1880042e 	bgeu	r3,r2,402f900 <__umoddi3+0x374>
 402f8f0:	1d47883a 	add	r3,r3,r21
 402f8f4:	893fffc4 	addi	r4,r17,-1
 402f8f8:	1d40892e 	bgeu	r3,r21,402fb20 <__umoddi3+0x594>
 402f8fc:	2023883a 	mov	r17,r4
 402f900:	18b9c83a 	sub	fp,r3,r2
 402f904:	b00b883a 	mov	r5,r22
 402f908:	e009883a 	mov	r4,fp
 402f90c:	40256d40 	call	40256d4 <__umodsi3>
 402f910:	b00b883a 	mov	r5,r22
 402f914:	e009883a 	mov	r4,fp
 402f918:	d8800215 	stw	r2,8(sp)
 402f91c:	40256700 	call	4025670 <__udivsi3>
 402f920:	100b883a 	mov	r5,r2
 402f924:	b809883a 	mov	r4,r23
 402f928:	102d883a 	mov	r22,r2
 402f92c:	402572c0 	call	402572c <__mulsi3>
 402f930:	d9800217 	ldw	r6,8(sp)
 402f934:	d8c00017 	ldw	r3,0(sp)
 402f938:	300c943a 	slli	r6,r6,16
 402f93c:	1a3fffcc 	andi	r8,r3,65535
 402f940:	4190b03a 	or	r8,r8,r6
 402f944:	4080042e 	bgeu	r8,r2,402f958 <__umoddi3+0x3cc>
 402f948:	4551883a 	add	r8,r8,r21
 402f94c:	b0ffffc4 	addi	r3,r22,-1
 402f950:	45406f2e 	bgeu	r8,r21,402fb10 <__umoddi3+0x584>
 402f954:	182d883a 	mov	r22,r3
 402f958:	880e943a 	slli	r7,r17,16
 402f95c:	9006d43a 	srli	r3,r18,16
 402f960:	91bfffcc 	andi	r6,r18,65535
 402f964:	3dacb03a 	or	r22,r7,r22
 402f968:	b02ed43a 	srli	r23,r22,16
 402f96c:	b5bfffcc 	andi	r22,r22,65535
 402f970:	300b883a 	mov	r5,r6
 402f974:	b009883a 	mov	r4,r22
 402f978:	40a3c83a 	sub	r17,r8,r2
 402f97c:	d8c00115 	stw	r3,4(sp)
 402f980:	d9800215 	stw	r6,8(sp)
 402f984:	402572c0 	call	402572c <__mulsi3>
 402f988:	d9800217 	ldw	r6,8(sp)
 402f98c:	b809883a 	mov	r4,r23
 402f990:	1039883a 	mov	fp,r2
 402f994:	300b883a 	mov	r5,r6
 402f998:	402572c0 	call	402572c <__mulsi3>
 402f99c:	d8c00117 	ldw	r3,4(sp)
 402f9a0:	b809883a 	mov	r4,r23
 402f9a4:	d8800215 	stw	r2,8(sp)
 402f9a8:	180b883a 	mov	r5,r3
 402f9ac:	402572c0 	call	402572c <__mulsi3>
 402f9b0:	d8c00117 	ldw	r3,4(sp)
 402f9b4:	b009883a 	mov	r4,r22
 402f9b8:	102f883a 	mov	r23,r2
 402f9bc:	180b883a 	mov	r5,r3
 402f9c0:	402572c0 	call	402572c <__mulsi3>
 402f9c4:	d9800217 	ldw	r6,8(sp)
 402f9c8:	e006d43a 	srli	r3,fp,16
 402f9cc:	1185883a 	add	r2,r2,r6
 402f9d0:	1885883a 	add	r2,r3,r2
 402f9d4:	1180022e 	bgeu	r2,r6,402f9e0 <__umoddi3+0x454>
 402f9d8:	00c00074 	movhi	r3,1
 402f9dc:	b8ef883a 	add	r23,r23,r3
 402f9e0:	1006d43a 	srli	r3,r2,16
 402f9e4:	1004943a 	slli	r2,r2,16
 402f9e8:	e73fffcc 	andi	fp,fp,65535
 402f9ec:	1dc7883a 	add	r3,r3,r23
 402f9f0:	1739883a 	add	fp,r2,fp
 402f9f4:	88c03a36 	bltu	r17,r3,402fae0 <__umoddi3+0x554>
 402f9f8:	88c05126 	beq	r17,r3,402fb40 <__umoddi3+0x5b4>
 402f9fc:	88c9c83a 	sub	r4,r17,r3
 402fa00:	e00f883a 	mov	r7,fp
 402fa04:	81cfc83a 	sub	r7,r16,r7
 402fa08:	81c7803a 	cmpltu	r3,r16,r7
 402fa0c:	20c7c83a 	sub	r3,r4,r3
 402fa10:	1cc4983a 	sll	r2,r3,r19
 402fa14:	3d0ed83a 	srl	r7,r7,r20
 402fa18:	1d06d83a 	srl	r3,r3,r20
 402fa1c:	11c4b03a 	or	r2,r2,r7
 402fa20:	003f7c06 	br	402f814 <__flash_rwdata_start+0xffffcf40>
 402fa24:	9ca6983a 	sll	r19,r19,r18
 402fa28:	88f8d83a 	srl	fp,r17,r3
 402fa2c:	80c4d83a 	srl	r2,r16,r3
 402fa30:	982cd43a 	srli	r22,r19,16
 402fa34:	8ca2983a 	sll	r17,r17,r18
 402fa38:	e009883a 	mov	r4,fp
 402fa3c:	b00b883a 	mov	r5,r22
 402fa40:	146ab03a 	or	r21,r2,r17
 402fa44:	40256d40 	call	40256d4 <__umodsi3>
 402fa48:	b00b883a 	mov	r5,r22
 402fa4c:	e009883a 	mov	r4,fp
 402fa50:	1029883a 	mov	r20,r2
 402fa54:	9dffffcc 	andi	r23,r19,65535
 402fa58:	40256700 	call	4025670 <__udivsi3>
 402fa5c:	b809883a 	mov	r4,r23
 402fa60:	100b883a 	mov	r5,r2
 402fa64:	402572c0 	call	402572c <__mulsi3>
 402fa68:	a008943a 	slli	r4,r20,16
 402fa6c:	a806d43a 	srli	r3,r21,16
 402fa70:	84a8983a 	sll	r20,r16,r18
 402fa74:	1906b03a 	or	r3,r3,r4
 402fa78:	1880042e 	bgeu	r3,r2,402fa8c <__umoddi3+0x500>
 402fa7c:	1cc7883a 	add	r3,r3,r19
 402fa80:	1cc00236 	bltu	r3,r19,402fa8c <__umoddi3+0x500>
 402fa84:	1880012e 	bgeu	r3,r2,402fa8c <__umoddi3+0x500>
 402fa88:	1cc7883a 	add	r3,r3,r19
 402fa8c:	18a3c83a 	sub	r17,r3,r2
 402fa90:	b00b883a 	mov	r5,r22
 402fa94:	8809883a 	mov	r4,r17
 402fa98:	40256d40 	call	40256d4 <__umodsi3>
 402fa9c:	b00b883a 	mov	r5,r22
 402faa0:	8809883a 	mov	r4,r17
 402faa4:	1021883a 	mov	r16,r2
 402faa8:	40256700 	call	4025670 <__udivsi3>
 402faac:	100b883a 	mov	r5,r2
 402fab0:	b809883a 	mov	r4,r23
 402fab4:	8020943a 	slli	r16,r16,16
 402fab8:	402572c0 	call	402572c <__mulsi3>
 402fabc:	a8ffffcc 	andi	r3,r21,65535
 402fac0:	1c06b03a 	or	r3,r3,r16
 402fac4:	1880042e 	bgeu	r3,r2,402fad8 <__umoddi3+0x54c>
 402fac8:	1cc7883a 	add	r3,r3,r19
 402facc:	1cc00236 	bltu	r3,r19,402fad8 <__umoddi3+0x54c>
 402fad0:	1880012e 	bgeu	r3,r2,402fad8 <__umoddi3+0x54c>
 402fad4:	1cc7883a 	add	r3,r3,r19
 402fad8:	18a3c83a 	sub	r17,r3,r2
 402fadc:	003f2906 	br	402f784 <__flash_rwdata_start+0xffffceb0>
 402fae0:	e48fc83a 	sub	r7,fp,r18
 402fae4:	1d49c83a 	sub	r4,r3,r21
 402fae8:	e1f9803a 	cmpltu	fp,fp,r7
 402faec:	2739c83a 	sub	fp,r4,fp
 402faf0:	8f09c83a 	sub	r4,r17,fp
 402faf4:	003fc306 	br	402fa04 <__flash_rwdata_start+0xffffd130>
 402faf8:	01000604 	movi	r4,24
 402fafc:	003ef906 	br	402f6e4 <__flash_rwdata_start+0xffffce10>
 402fb00:	00800604 	movi	r2,24
 402fb04:	003f1306 	br	402f754 <__flash_rwdata_start+0xffffce80>
 402fb08:	01000604 	movi	r4,24
 402fb0c:	003eb606 	br	402f5e8 <__flash_rwdata_start+0xffffcd14>
 402fb10:	40bf902e 	bgeu	r8,r2,402f954 <__flash_rwdata_start+0xffffd080>
 402fb14:	b5bfff84 	addi	r22,r22,-2
 402fb18:	4551883a 	add	r8,r8,r21
 402fb1c:	003f8e06 	br	402f958 <__flash_rwdata_start+0xffffd084>
 402fb20:	18bf762e 	bgeu	r3,r2,402f8fc <__flash_rwdata_start+0xffffd028>
 402fb24:	8c7fff84 	addi	r17,r17,-2
 402fb28:	1d47883a 	add	r3,r3,r21
 402fb2c:	003f7406 	br	402f900 <__flash_rwdata_start+0xffffd02c>
 402fb30:	1cc7883a 	add	r3,r3,r19
 402fb34:	003ecd06 	br	402f66c <__flash_rwdata_start+0xffffcd98>
 402fb38:	8005883a 	mov	r2,r16
 402fb3c:	003ef806 	br	402f720 <__flash_rwdata_start+0xffffce4c>
 402fb40:	873fe736 	bltu	r16,fp,402fae0 <__flash_rwdata_start+0xffffd20c>
 402fb44:	e00f883a 	mov	r7,fp
 402fb48:	0009883a 	mov	r4,zero
 402fb4c:	003fad06 	br	402fa04 <__flash_rwdata_start+0xffffd130>

0402fb50 <__eqdf2>:
 402fb50:	2804d53a 	srli	r2,r5,20
 402fb54:	3806d53a 	srli	r3,r7,20
 402fb58:	02000434 	movhi	r8,16
 402fb5c:	423fffc4 	addi	r8,r8,-1
 402fb60:	1081ffcc 	andi	r2,r2,2047
 402fb64:	0281ffc4 	movi	r10,2047
 402fb68:	2a12703a 	and	r9,r5,r8
 402fb6c:	18c1ffcc 	andi	r3,r3,2047
 402fb70:	3a10703a 	and	r8,r7,r8
 402fb74:	280ad7fa 	srli	r5,r5,31
 402fb78:	380ed7fa 	srli	r7,r7,31
 402fb7c:	12801026 	beq	r2,r10,402fbc0 <__eqdf2+0x70>
 402fb80:	0281ffc4 	movi	r10,2047
 402fb84:	1a800a26 	beq	r3,r10,402fbb0 <__eqdf2+0x60>
 402fb88:	10c00226 	beq	r2,r3,402fb94 <__eqdf2+0x44>
 402fb8c:	00800044 	movi	r2,1
 402fb90:	f800283a 	ret
 402fb94:	4a3ffd1e 	bne	r9,r8,402fb8c <__flash_rwdata_start+0xffffd2b8>
 402fb98:	21bffc1e 	bne	r4,r6,402fb8c <__flash_rwdata_start+0xffffd2b8>
 402fb9c:	29c00c26 	beq	r5,r7,402fbd0 <__eqdf2+0x80>
 402fba0:	103ffa1e 	bne	r2,zero,402fb8c <__flash_rwdata_start+0xffffd2b8>
 402fba4:	2244b03a 	or	r2,r4,r9
 402fba8:	1004c03a 	cmpne	r2,r2,zero
 402fbac:	f800283a 	ret
 402fbb0:	3214b03a 	or	r10,r6,r8
 402fbb4:	503ff426 	beq	r10,zero,402fb88 <__flash_rwdata_start+0xffffd2b4>
 402fbb8:	00800044 	movi	r2,1
 402fbbc:	f800283a 	ret
 402fbc0:	2254b03a 	or	r10,r4,r9
 402fbc4:	503fee26 	beq	r10,zero,402fb80 <__flash_rwdata_start+0xffffd2ac>
 402fbc8:	00800044 	movi	r2,1
 402fbcc:	f800283a 	ret
 402fbd0:	0005883a 	mov	r2,zero
 402fbd4:	f800283a 	ret

0402fbd8 <__floatunsidf>:
 402fbd8:	defffe04 	addi	sp,sp,-8
 402fbdc:	dc000015 	stw	r16,0(sp)
 402fbe0:	dfc00115 	stw	ra,4(sp)
 402fbe4:	2021883a 	mov	r16,r4
 402fbe8:	20002226 	beq	r4,zero,402fc74 <__floatunsidf+0x9c>
 402fbec:	40255140 	call	4025514 <__clzsi2>
 402fbf0:	01010784 	movi	r4,1054
 402fbf4:	2089c83a 	sub	r4,r4,r2
 402fbf8:	01810cc4 	movi	r6,1075
 402fbfc:	310dc83a 	sub	r6,r6,r4
 402fc00:	00c007c4 	movi	r3,31
 402fc04:	1980120e 	bge	r3,r6,402fc50 <__floatunsidf+0x78>
 402fc08:	00c104c4 	movi	r3,1043
 402fc0c:	1907c83a 	sub	r3,r3,r4
 402fc10:	80ca983a 	sll	r5,r16,r3
 402fc14:	00800434 	movhi	r2,16
 402fc18:	10bfffc4 	addi	r2,r2,-1
 402fc1c:	2101ffcc 	andi	r4,r4,2047
 402fc20:	0021883a 	mov	r16,zero
 402fc24:	288a703a 	and	r5,r5,r2
 402fc28:	2008953a 	slli	r4,r4,20
 402fc2c:	00c00434 	movhi	r3,16
 402fc30:	18ffffc4 	addi	r3,r3,-1
 402fc34:	28c6703a 	and	r3,r5,r3
 402fc38:	8005883a 	mov	r2,r16
 402fc3c:	1906b03a 	or	r3,r3,r4
 402fc40:	dfc00117 	ldw	ra,4(sp)
 402fc44:	dc000017 	ldw	r16,0(sp)
 402fc48:	dec00204 	addi	sp,sp,8
 402fc4c:	f800283a 	ret
 402fc50:	00c002c4 	movi	r3,11
 402fc54:	188bc83a 	sub	r5,r3,r2
 402fc58:	814ad83a 	srl	r5,r16,r5
 402fc5c:	00c00434 	movhi	r3,16
 402fc60:	18ffffc4 	addi	r3,r3,-1
 402fc64:	81a0983a 	sll	r16,r16,r6
 402fc68:	2101ffcc 	andi	r4,r4,2047
 402fc6c:	28ca703a 	and	r5,r5,r3
 402fc70:	003fed06 	br	402fc28 <__flash_rwdata_start+0xffffd354>
 402fc74:	0009883a 	mov	r4,zero
 402fc78:	000b883a 	mov	r5,zero
 402fc7c:	003fea06 	br	402fc28 <__flash_rwdata_start+0xffffd354>

0402fc80 <alt_get_errno>:
 402fc80:	defffe04 	addi	sp,sp,-8
 402fc84:	dfc00115 	stw	ra,4(sp)
 402fc88:	df000015 	stw	fp,0(sp)
 402fc8c:	d839883a 	mov	fp,sp
 402fc90:	d0a00c17 	ldw	r2,-32720(gp)
 402fc94:	10000326 	beq	r2,zero,402fca4 <alt_get_errno+0x24>
 402fc98:	d0a00c17 	ldw	r2,-32720(gp)
 402fc9c:	103ee83a 	callr	r2
 402fca0:	00000106 	br	402fca8 <alt_get_errno+0x28>
 402fca4:	d0a01904 	addi	r2,gp,-32668
 402fca8:	e037883a 	mov	sp,fp
 402fcac:	dfc00117 	ldw	ra,4(sp)
 402fcb0:	df000017 	ldw	fp,0(sp)
 402fcb4:	dec00204 	addi	sp,sp,8
 402fcb8:	f800283a 	ret

0402fcbc <close>:
 402fcbc:	defffb04 	addi	sp,sp,-20
 402fcc0:	dfc00415 	stw	ra,16(sp)
 402fcc4:	df000315 	stw	fp,12(sp)
 402fcc8:	df000304 	addi	fp,sp,12
 402fccc:	e13fff15 	stw	r4,-4(fp)
 402fcd0:	e0bfff17 	ldw	r2,-4(fp)
 402fcd4:	10000816 	blt	r2,zero,402fcf8 <close+0x3c>
 402fcd8:	01400304 	movi	r5,12
 402fcdc:	e13fff17 	ldw	r4,-4(fp)
 402fce0:	402572c0 	call	402572c <__mulsi3>
 402fce4:	1007883a 	mov	r3,r2
 402fce8:	00800034 	movhi	r2,0
 402fcec:	1082fe04 	addi	r2,r2,3064
 402fcf0:	1885883a 	add	r2,r3,r2
 402fcf4:	00000106 	br	402fcfc <close+0x40>
 402fcf8:	0005883a 	mov	r2,zero
 402fcfc:	e0bffd15 	stw	r2,-12(fp)
 402fd00:	e0bffd17 	ldw	r2,-12(fp)
 402fd04:	10001926 	beq	r2,zero,402fd6c <close+0xb0>
 402fd08:	e0bffd17 	ldw	r2,-12(fp)
 402fd0c:	10800017 	ldw	r2,0(r2)
 402fd10:	10800417 	ldw	r2,16(r2)
 402fd14:	10000626 	beq	r2,zero,402fd30 <close+0x74>
 402fd18:	e0bffd17 	ldw	r2,-12(fp)
 402fd1c:	10800017 	ldw	r2,0(r2)
 402fd20:	10800417 	ldw	r2,16(r2)
 402fd24:	e13ffd17 	ldw	r4,-12(fp)
 402fd28:	103ee83a 	callr	r2
 402fd2c:	00000106 	br	402fd34 <close+0x78>
 402fd30:	0005883a 	mov	r2,zero
 402fd34:	e0bffe15 	stw	r2,-8(fp)
 402fd38:	e13fff17 	ldw	r4,-4(fp)
 402fd3c:	40303a40 	call	40303a4 <alt_release_fd>
 402fd40:	e0bffe17 	ldw	r2,-8(fp)
 402fd44:	1000070e 	bge	r2,zero,402fd64 <close+0xa8>
 402fd48:	402fc800 	call	402fc80 <alt_get_errno>
 402fd4c:	1007883a 	mov	r3,r2
 402fd50:	e0bffe17 	ldw	r2,-8(fp)
 402fd54:	0085c83a 	sub	r2,zero,r2
 402fd58:	18800015 	stw	r2,0(r3)
 402fd5c:	00bfffc4 	movi	r2,-1
 402fd60:	00000706 	br	402fd80 <close+0xc4>
 402fd64:	0005883a 	mov	r2,zero
 402fd68:	00000506 	br	402fd80 <close+0xc4>
 402fd6c:	402fc800 	call	402fc80 <alt_get_errno>
 402fd70:	1007883a 	mov	r3,r2
 402fd74:	00801444 	movi	r2,81
 402fd78:	18800015 	stw	r2,0(r3)
 402fd7c:	00bfffc4 	movi	r2,-1
 402fd80:	e037883a 	mov	sp,fp
 402fd84:	dfc00117 	ldw	ra,4(sp)
 402fd88:	df000017 	ldw	fp,0(sp)
 402fd8c:	dec00204 	addi	sp,sp,8
 402fd90:	f800283a 	ret

0402fd94 <alt_dev_null_write>:
 402fd94:	defffc04 	addi	sp,sp,-16
 402fd98:	df000315 	stw	fp,12(sp)
 402fd9c:	df000304 	addi	fp,sp,12
 402fda0:	e13ffd15 	stw	r4,-12(fp)
 402fda4:	e17ffe15 	stw	r5,-8(fp)
 402fda8:	e1bfff15 	stw	r6,-4(fp)
 402fdac:	e0bfff17 	ldw	r2,-4(fp)
 402fdb0:	e037883a 	mov	sp,fp
 402fdb4:	df000017 	ldw	fp,0(sp)
 402fdb8:	dec00104 	addi	sp,sp,4
 402fdbc:	f800283a 	ret

0402fdc0 <alt_get_errno>:
 402fdc0:	defffe04 	addi	sp,sp,-8
 402fdc4:	dfc00115 	stw	ra,4(sp)
 402fdc8:	df000015 	stw	fp,0(sp)
 402fdcc:	d839883a 	mov	fp,sp
 402fdd0:	d0a00c17 	ldw	r2,-32720(gp)
 402fdd4:	10000326 	beq	r2,zero,402fde4 <alt_get_errno+0x24>
 402fdd8:	d0a00c17 	ldw	r2,-32720(gp)
 402fddc:	103ee83a 	callr	r2
 402fde0:	00000106 	br	402fde8 <alt_get_errno+0x28>
 402fde4:	d0a01904 	addi	r2,gp,-32668
 402fde8:	e037883a 	mov	sp,fp
 402fdec:	dfc00117 	ldw	ra,4(sp)
 402fdf0:	df000017 	ldw	fp,0(sp)
 402fdf4:	dec00204 	addi	sp,sp,8
 402fdf8:	f800283a 	ret

0402fdfc <fstat>:
 402fdfc:	defffb04 	addi	sp,sp,-20
 402fe00:	dfc00415 	stw	ra,16(sp)
 402fe04:	df000315 	stw	fp,12(sp)
 402fe08:	df000304 	addi	fp,sp,12
 402fe0c:	e13ffe15 	stw	r4,-8(fp)
 402fe10:	e17fff15 	stw	r5,-4(fp)
 402fe14:	e0bffe17 	ldw	r2,-8(fp)
 402fe18:	10000816 	blt	r2,zero,402fe3c <fstat+0x40>
 402fe1c:	01400304 	movi	r5,12
 402fe20:	e13ffe17 	ldw	r4,-8(fp)
 402fe24:	402572c0 	call	402572c <__mulsi3>
 402fe28:	1007883a 	mov	r3,r2
 402fe2c:	00800034 	movhi	r2,0
 402fe30:	1082fe04 	addi	r2,r2,3064
 402fe34:	1885883a 	add	r2,r3,r2
 402fe38:	00000106 	br	402fe40 <fstat+0x44>
 402fe3c:	0005883a 	mov	r2,zero
 402fe40:	e0bffd15 	stw	r2,-12(fp)
 402fe44:	e0bffd17 	ldw	r2,-12(fp)
 402fe48:	10001026 	beq	r2,zero,402fe8c <fstat+0x90>
 402fe4c:	e0bffd17 	ldw	r2,-12(fp)
 402fe50:	10800017 	ldw	r2,0(r2)
 402fe54:	10800817 	ldw	r2,32(r2)
 402fe58:	10000726 	beq	r2,zero,402fe78 <fstat+0x7c>
 402fe5c:	e0bffd17 	ldw	r2,-12(fp)
 402fe60:	10800017 	ldw	r2,0(r2)
 402fe64:	10800817 	ldw	r2,32(r2)
 402fe68:	e17fff17 	ldw	r5,-4(fp)
 402fe6c:	e13ffd17 	ldw	r4,-12(fp)
 402fe70:	103ee83a 	callr	r2
 402fe74:	00000a06 	br	402fea0 <fstat+0xa4>
 402fe78:	e0bfff17 	ldw	r2,-4(fp)
 402fe7c:	00c80004 	movi	r3,8192
 402fe80:	10c00115 	stw	r3,4(r2)
 402fe84:	0005883a 	mov	r2,zero
 402fe88:	00000506 	br	402fea0 <fstat+0xa4>
 402fe8c:	402fdc00 	call	402fdc0 <alt_get_errno>
 402fe90:	1007883a 	mov	r3,r2
 402fe94:	00801444 	movi	r2,81
 402fe98:	18800015 	stw	r2,0(r3)
 402fe9c:	00bfffc4 	movi	r2,-1
 402fea0:	e037883a 	mov	sp,fp
 402fea4:	dfc00117 	ldw	ra,4(sp)
 402fea8:	df000017 	ldw	fp,0(sp)
 402feac:	dec00204 	addi	sp,sp,8
 402feb0:	f800283a 	ret

0402feb4 <alt_get_errno>:
 402feb4:	defffe04 	addi	sp,sp,-8
 402feb8:	dfc00115 	stw	ra,4(sp)
 402febc:	df000015 	stw	fp,0(sp)
 402fec0:	d839883a 	mov	fp,sp
 402fec4:	d0a00c17 	ldw	r2,-32720(gp)
 402fec8:	10000326 	beq	r2,zero,402fed8 <alt_get_errno+0x24>
 402fecc:	d0a00c17 	ldw	r2,-32720(gp)
 402fed0:	103ee83a 	callr	r2
 402fed4:	00000106 	br	402fedc <alt_get_errno+0x28>
 402fed8:	d0a01904 	addi	r2,gp,-32668
 402fedc:	e037883a 	mov	sp,fp
 402fee0:	dfc00117 	ldw	ra,4(sp)
 402fee4:	df000017 	ldw	fp,0(sp)
 402fee8:	dec00204 	addi	sp,sp,8
 402feec:	f800283a 	ret

0402fef0 <isatty>:
 402fef0:	deffed04 	addi	sp,sp,-76
 402fef4:	dfc01215 	stw	ra,72(sp)
 402fef8:	df001115 	stw	fp,68(sp)
 402fefc:	df001104 	addi	fp,sp,68
 402ff00:	e13fff15 	stw	r4,-4(fp)
 402ff04:	e0bfff17 	ldw	r2,-4(fp)
 402ff08:	10000816 	blt	r2,zero,402ff2c <isatty+0x3c>
 402ff0c:	01400304 	movi	r5,12
 402ff10:	e13fff17 	ldw	r4,-4(fp)
 402ff14:	402572c0 	call	402572c <__mulsi3>
 402ff18:	1007883a 	mov	r3,r2
 402ff1c:	00800034 	movhi	r2,0
 402ff20:	1082fe04 	addi	r2,r2,3064
 402ff24:	1885883a 	add	r2,r3,r2
 402ff28:	00000106 	br	402ff30 <isatty+0x40>
 402ff2c:	0005883a 	mov	r2,zero
 402ff30:	e0bfef15 	stw	r2,-68(fp)
 402ff34:	e0bfef17 	ldw	r2,-68(fp)
 402ff38:	10000e26 	beq	r2,zero,402ff74 <isatty+0x84>
 402ff3c:	e0bfef17 	ldw	r2,-68(fp)
 402ff40:	10800017 	ldw	r2,0(r2)
 402ff44:	10800817 	ldw	r2,32(r2)
 402ff48:	1000021e 	bne	r2,zero,402ff54 <isatty+0x64>
 402ff4c:	00800044 	movi	r2,1
 402ff50:	00000d06 	br	402ff88 <isatty+0x98>
 402ff54:	e0bff004 	addi	r2,fp,-64
 402ff58:	100b883a 	mov	r5,r2
 402ff5c:	e13fff17 	ldw	r4,-4(fp)
 402ff60:	402fdfc0 	call	402fdfc <fstat>
 402ff64:	e0bff117 	ldw	r2,-60(fp)
 402ff68:	10880020 	cmpeqi	r2,r2,8192
 402ff6c:	10803fcc 	andi	r2,r2,255
 402ff70:	00000506 	br	402ff88 <isatty+0x98>
 402ff74:	402feb40 	call	402feb4 <alt_get_errno>
 402ff78:	1007883a 	mov	r3,r2
 402ff7c:	00801444 	movi	r2,81
 402ff80:	18800015 	stw	r2,0(r3)
 402ff84:	0005883a 	mov	r2,zero
 402ff88:	e037883a 	mov	sp,fp
 402ff8c:	dfc00117 	ldw	ra,4(sp)
 402ff90:	df000017 	ldw	fp,0(sp)
 402ff94:	dec00204 	addi	sp,sp,8
 402ff98:	f800283a 	ret

0402ff9c <alt_load_section>:
 402ff9c:	defffc04 	addi	sp,sp,-16
 402ffa0:	df000315 	stw	fp,12(sp)
 402ffa4:	df000304 	addi	fp,sp,12
 402ffa8:	e13ffd15 	stw	r4,-12(fp)
 402ffac:	e17ffe15 	stw	r5,-8(fp)
 402ffb0:	e1bfff15 	stw	r6,-4(fp)
 402ffb4:	e0fffe17 	ldw	r3,-8(fp)
 402ffb8:	e0bffd17 	ldw	r2,-12(fp)
 402ffbc:	18800c26 	beq	r3,r2,402fff0 <alt_load_section+0x54>
 402ffc0:	00000806 	br	402ffe4 <alt_load_section+0x48>
 402ffc4:	e0bffe17 	ldw	r2,-8(fp)
 402ffc8:	10c00104 	addi	r3,r2,4
 402ffcc:	e0fffe15 	stw	r3,-8(fp)
 402ffd0:	e0fffd17 	ldw	r3,-12(fp)
 402ffd4:	19000104 	addi	r4,r3,4
 402ffd8:	e13ffd15 	stw	r4,-12(fp)
 402ffdc:	18c00017 	ldw	r3,0(r3)
 402ffe0:	10c00015 	stw	r3,0(r2)
 402ffe4:	e0fffe17 	ldw	r3,-8(fp)
 402ffe8:	e0bfff17 	ldw	r2,-4(fp)
 402ffec:	18bff51e 	bne	r3,r2,402ffc4 <__flash_rwdata_start+0xffffd6f0>
 402fff0:	0001883a 	nop
 402fff4:	e037883a 	mov	sp,fp
 402fff8:	df000017 	ldw	fp,0(sp)
 402fffc:	dec00104 	addi	sp,sp,4
 4030000:	f800283a 	ret

04030004 <alt_load>:
 4030004:	defffe04 	addi	sp,sp,-8
 4030008:	dfc00115 	stw	ra,4(sp)
 403000c:	df000015 	stw	fp,0(sp)
 4030010:	d839883a 	mov	fp,sp
 4030014:	01800034 	movhi	r6,0
 4030018:	31878704 	addi	r6,r6,7708
 403001c:	01400034 	movhi	r5,0
 4030020:	2940cb04 	addi	r5,r5,812
 4030024:	010100f4 	movhi	r4,1027
 4030028:	210a3504 	addi	r4,r4,10452
 403002c:	402ff9c0 	call	402ff9c <alt_load_section>
 4030030:	018100b4 	movhi	r6,1026
 4030034:	31808c04 	addi	r6,r6,560
 4030038:	014100b4 	movhi	r5,1026
 403003c:	29400804 	addi	r5,r5,32
 4030040:	010100b4 	movhi	r4,1026
 4030044:	21000804 	addi	r4,r4,32
 4030048:	402ff9c0 	call	402ff9c <alt_load_section>
 403004c:	01800034 	movhi	r6,0
 4030050:	3180cb04 	addi	r6,r6,812
 4030054:	01400034 	movhi	r5,0
 4030058:	29400004 	addi	r5,r5,0
 403005c:	010100f4 	movhi	r4,1027
 4030060:	21096a04 	addi	r4,r4,9640
 4030064:	402ff9c0 	call	402ff9c <alt_load_section>
 4030068:	40314f00 	call	40314f0 <alt_dcache_flush_all>
 403006c:	40316b00 	call	40316b0 <alt_icache_flush_all>
 4030070:	0001883a 	nop
 4030074:	e037883a 	mov	sp,fp
 4030078:	dfc00117 	ldw	ra,4(sp)
 403007c:	df000017 	ldw	fp,0(sp)
 4030080:	dec00204 	addi	sp,sp,8
 4030084:	f800283a 	ret

04030088 <alt_get_errno>:
 4030088:	defffe04 	addi	sp,sp,-8
 403008c:	dfc00115 	stw	ra,4(sp)
 4030090:	df000015 	stw	fp,0(sp)
 4030094:	d839883a 	mov	fp,sp
 4030098:	d0a00c17 	ldw	r2,-32720(gp)
 403009c:	10000326 	beq	r2,zero,40300ac <alt_get_errno+0x24>
 40300a0:	d0a00c17 	ldw	r2,-32720(gp)
 40300a4:	103ee83a 	callr	r2
 40300a8:	00000106 	br	40300b0 <alt_get_errno+0x28>
 40300ac:	d0a01904 	addi	r2,gp,-32668
 40300b0:	e037883a 	mov	sp,fp
 40300b4:	dfc00117 	ldw	ra,4(sp)
 40300b8:	df000017 	ldw	fp,0(sp)
 40300bc:	dec00204 	addi	sp,sp,8
 40300c0:	f800283a 	ret

040300c4 <lseek>:
 40300c4:	defff904 	addi	sp,sp,-28
 40300c8:	dfc00615 	stw	ra,24(sp)
 40300cc:	df000515 	stw	fp,20(sp)
 40300d0:	df000504 	addi	fp,sp,20
 40300d4:	e13ffd15 	stw	r4,-12(fp)
 40300d8:	e17ffe15 	stw	r5,-8(fp)
 40300dc:	e1bfff15 	stw	r6,-4(fp)
 40300e0:	e03ffb15 	stw	zero,-20(fp)
 40300e4:	e0bffd17 	ldw	r2,-12(fp)
 40300e8:	10000816 	blt	r2,zero,403010c <lseek+0x48>
 40300ec:	01400304 	movi	r5,12
 40300f0:	e13ffd17 	ldw	r4,-12(fp)
 40300f4:	402572c0 	call	402572c <__mulsi3>
 40300f8:	1007883a 	mov	r3,r2
 40300fc:	00800034 	movhi	r2,0
 4030100:	1082fe04 	addi	r2,r2,3064
 4030104:	1885883a 	add	r2,r3,r2
 4030108:	00000106 	br	4030110 <lseek+0x4c>
 403010c:	0005883a 	mov	r2,zero
 4030110:	e0bffc15 	stw	r2,-16(fp)
 4030114:	e0bffc17 	ldw	r2,-16(fp)
 4030118:	10001026 	beq	r2,zero,403015c <lseek+0x98>
 403011c:	e0bffc17 	ldw	r2,-16(fp)
 4030120:	10800017 	ldw	r2,0(r2)
 4030124:	10800717 	ldw	r2,28(r2)
 4030128:	10000926 	beq	r2,zero,4030150 <lseek+0x8c>
 403012c:	e0bffc17 	ldw	r2,-16(fp)
 4030130:	10800017 	ldw	r2,0(r2)
 4030134:	10800717 	ldw	r2,28(r2)
 4030138:	e1bfff17 	ldw	r6,-4(fp)
 403013c:	e17ffe17 	ldw	r5,-8(fp)
 4030140:	e13ffc17 	ldw	r4,-16(fp)
 4030144:	103ee83a 	callr	r2
 4030148:	e0bffb15 	stw	r2,-20(fp)
 403014c:	00000506 	br	4030164 <lseek+0xa0>
 4030150:	00bfde84 	movi	r2,-134
 4030154:	e0bffb15 	stw	r2,-20(fp)
 4030158:	00000206 	br	4030164 <lseek+0xa0>
 403015c:	00bfebc4 	movi	r2,-81
 4030160:	e0bffb15 	stw	r2,-20(fp)
 4030164:	e0bffb17 	ldw	r2,-20(fp)
 4030168:	1000070e 	bge	r2,zero,4030188 <lseek+0xc4>
 403016c:	40300880 	call	4030088 <alt_get_errno>
 4030170:	1007883a 	mov	r3,r2
 4030174:	e0bffb17 	ldw	r2,-20(fp)
 4030178:	0085c83a 	sub	r2,zero,r2
 403017c:	18800015 	stw	r2,0(r3)
 4030180:	00bfffc4 	movi	r2,-1
 4030184:	e0bffb15 	stw	r2,-20(fp)
 4030188:	e0bffb17 	ldw	r2,-20(fp)
 403018c:	e037883a 	mov	sp,fp
 4030190:	dfc00117 	ldw	ra,4(sp)
 4030194:	df000017 	ldw	fp,0(sp)
 4030198:	dec00204 	addi	sp,sp,8
 403019c:	f800283a 	ret

040301a0 <alt_main>:
 40301a0:	defffd04 	addi	sp,sp,-12
 40301a4:	dfc00215 	stw	ra,8(sp)
 40301a8:	df000115 	stw	fp,4(sp)
 40301ac:	df000104 	addi	fp,sp,4
 40301b0:	0009883a 	mov	r4,zero
 40301b4:	40306780 	call	4030678 <alt_irq_init>
 40301b8:	0001883a 	nop
 40301bc:	40306b00 	call	40306b0 <alt_sys_init>
 40301c0:	01800034 	movhi	r6,0
 40301c4:	3180c304 	addi	r6,r6,780
 40301c8:	01400034 	movhi	r5,0
 40301cc:	2940c304 	addi	r5,r5,780
 40301d0:	01000034 	movhi	r4,0
 40301d4:	2100c304 	addi	r4,r4,780
 40301d8:	4031a540 	call	4031a54 <alt_io_redirect>
 40301dc:	40315f00 	call	40315f0 <_do_ctors>
 40301e0:	010100f4 	movhi	r4,1027
 40301e4:	21059404 	addi	r4,r4,5712
 40301e8:	40322140 	call	4032214 <atexit>
 40301ec:	d0a01a17 	ldw	r2,-32664(gp)
 40301f0:	d0e01b17 	ldw	r3,-32660(gp)
 40301f4:	d1201c17 	ldw	r4,-32656(gp)
 40301f8:	200d883a 	mov	r6,r4
 40301fc:	180b883a 	mov	r5,r3
 4030200:	1009883a 	mov	r4,r2
 4030204:	4020fb80 	call	4020fb8 <main>
 4030208:	e0bfff15 	stw	r2,-4(fp)
 403020c:	01000044 	movi	r4,1
 4030210:	402fcbc0 	call	402fcbc <close>
 4030214:	e13fff17 	ldw	r4,-4(fp)
 4030218:	40322280 	call	4032228 <exit>

0403021c <__malloc_lock>:
 403021c:	defffe04 	addi	sp,sp,-8
 4030220:	df000115 	stw	fp,4(sp)
 4030224:	df000104 	addi	fp,sp,4
 4030228:	e13fff15 	stw	r4,-4(fp)
 403022c:	0001883a 	nop
 4030230:	e037883a 	mov	sp,fp
 4030234:	df000017 	ldw	fp,0(sp)
 4030238:	dec00104 	addi	sp,sp,4
 403023c:	f800283a 	ret

04030240 <__malloc_unlock>:
 4030240:	defffe04 	addi	sp,sp,-8
 4030244:	df000115 	stw	fp,4(sp)
 4030248:	df000104 	addi	fp,sp,4
 403024c:	e13fff15 	stw	r4,-4(fp)
 4030250:	0001883a 	nop
 4030254:	e037883a 	mov	sp,fp
 4030258:	df000017 	ldw	fp,0(sp)
 403025c:	dec00104 	addi	sp,sp,4
 4030260:	f800283a 	ret

04030264 <alt_get_errno>:
 4030264:	defffe04 	addi	sp,sp,-8
 4030268:	dfc00115 	stw	ra,4(sp)
 403026c:	df000015 	stw	fp,0(sp)
 4030270:	d839883a 	mov	fp,sp
 4030274:	d0a00c17 	ldw	r2,-32720(gp)
 4030278:	10000326 	beq	r2,zero,4030288 <alt_get_errno+0x24>
 403027c:	d0a00c17 	ldw	r2,-32720(gp)
 4030280:	103ee83a 	callr	r2
 4030284:	00000106 	br	403028c <alt_get_errno+0x28>
 4030288:	d0a01904 	addi	r2,gp,-32668
 403028c:	e037883a 	mov	sp,fp
 4030290:	dfc00117 	ldw	ra,4(sp)
 4030294:	df000017 	ldw	fp,0(sp)
 4030298:	dec00204 	addi	sp,sp,8
 403029c:	f800283a 	ret

040302a0 <read>:
 40302a0:	defff904 	addi	sp,sp,-28
 40302a4:	dfc00615 	stw	ra,24(sp)
 40302a8:	df000515 	stw	fp,20(sp)
 40302ac:	df000504 	addi	fp,sp,20
 40302b0:	e13ffd15 	stw	r4,-12(fp)
 40302b4:	e17ffe15 	stw	r5,-8(fp)
 40302b8:	e1bfff15 	stw	r6,-4(fp)
 40302bc:	e0bffd17 	ldw	r2,-12(fp)
 40302c0:	10000816 	blt	r2,zero,40302e4 <read+0x44>
 40302c4:	01400304 	movi	r5,12
 40302c8:	e13ffd17 	ldw	r4,-12(fp)
 40302cc:	402572c0 	call	402572c <__mulsi3>
 40302d0:	1007883a 	mov	r3,r2
 40302d4:	00800034 	movhi	r2,0
 40302d8:	1082fe04 	addi	r2,r2,3064
 40302dc:	1885883a 	add	r2,r3,r2
 40302e0:	00000106 	br	40302e8 <read+0x48>
 40302e4:	0005883a 	mov	r2,zero
 40302e8:	e0bffb15 	stw	r2,-20(fp)
 40302ec:	e0bffb17 	ldw	r2,-20(fp)
 40302f0:	10002226 	beq	r2,zero,403037c <read+0xdc>
 40302f4:	e0bffb17 	ldw	r2,-20(fp)
 40302f8:	10800217 	ldw	r2,8(r2)
 40302fc:	108000cc 	andi	r2,r2,3
 4030300:	10800060 	cmpeqi	r2,r2,1
 4030304:	1000181e 	bne	r2,zero,4030368 <read+0xc8>
 4030308:	e0bffb17 	ldw	r2,-20(fp)
 403030c:	10800017 	ldw	r2,0(r2)
 4030310:	10800517 	ldw	r2,20(r2)
 4030314:	10001426 	beq	r2,zero,4030368 <read+0xc8>
 4030318:	e0bffb17 	ldw	r2,-20(fp)
 403031c:	10800017 	ldw	r2,0(r2)
 4030320:	10800517 	ldw	r2,20(r2)
 4030324:	e0ffff17 	ldw	r3,-4(fp)
 4030328:	180d883a 	mov	r6,r3
 403032c:	e17ffe17 	ldw	r5,-8(fp)
 4030330:	e13ffb17 	ldw	r4,-20(fp)
 4030334:	103ee83a 	callr	r2
 4030338:	e0bffc15 	stw	r2,-16(fp)
 403033c:	e0bffc17 	ldw	r2,-16(fp)
 4030340:	1000070e 	bge	r2,zero,4030360 <read+0xc0>
 4030344:	40302640 	call	4030264 <alt_get_errno>
 4030348:	1007883a 	mov	r3,r2
 403034c:	e0bffc17 	ldw	r2,-16(fp)
 4030350:	0085c83a 	sub	r2,zero,r2
 4030354:	18800015 	stw	r2,0(r3)
 4030358:	00bfffc4 	movi	r2,-1
 403035c:	00000c06 	br	4030390 <read+0xf0>
 4030360:	e0bffc17 	ldw	r2,-16(fp)
 4030364:	00000a06 	br	4030390 <read+0xf0>
 4030368:	40302640 	call	4030264 <alt_get_errno>
 403036c:	1007883a 	mov	r3,r2
 4030370:	00800344 	movi	r2,13
 4030374:	18800015 	stw	r2,0(r3)
 4030378:	00000406 	br	403038c <read+0xec>
 403037c:	40302640 	call	4030264 <alt_get_errno>
 4030380:	1007883a 	mov	r3,r2
 4030384:	00801444 	movi	r2,81
 4030388:	18800015 	stw	r2,0(r3)
 403038c:	00bfffc4 	movi	r2,-1
 4030390:	e037883a 	mov	sp,fp
 4030394:	dfc00117 	ldw	ra,4(sp)
 4030398:	df000017 	ldw	fp,0(sp)
 403039c:	dec00204 	addi	sp,sp,8
 40303a0:	f800283a 	ret

040303a4 <alt_release_fd>:
 40303a4:	defffc04 	addi	sp,sp,-16
 40303a8:	dfc00315 	stw	ra,12(sp)
 40303ac:	df000215 	stw	fp,8(sp)
 40303b0:	dc000115 	stw	r16,4(sp)
 40303b4:	df000204 	addi	fp,sp,8
 40303b8:	e13ffe15 	stw	r4,-8(fp)
 40303bc:	e0bffe17 	ldw	r2,-8(fp)
 40303c0:	108000d0 	cmplti	r2,r2,3
 40303c4:	1000111e 	bne	r2,zero,403040c <alt_release_fd+0x68>
 40303c8:	04000034 	movhi	r16,0
 40303cc:	8402fe04 	addi	r16,r16,3064
 40303d0:	e0bffe17 	ldw	r2,-8(fp)
 40303d4:	01400304 	movi	r5,12
 40303d8:	1009883a 	mov	r4,r2
 40303dc:	402572c0 	call	402572c <__mulsi3>
 40303e0:	8085883a 	add	r2,r16,r2
 40303e4:	10800204 	addi	r2,r2,8
 40303e8:	10000015 	stw	zero,0(r2)
 40303ec:	04000034 	movhi	r16,0
 40303f0:	8402fe04 	addi	r16,r16,3064
 40303f4:	e0bffe17 	ldw	r2,-8(fp)
 40303f8:	01400304 	movi	r5,12
 40303fc:	1009883a 	mov	r4,r2
 4030400:	402572c0 	call	402572c <__mulsi3>
 4030404:	8085883a 	add	r2,r16,r2
 4030408:	10000015 	stw	zero,0(r2)
 403040c:	0001883a 	nop
 4030410:	e6ffff04 	addi	sp,fp,-4
 4030414:	dfc00217 	ldw	ra,8(sp)
 4030418:	df000117 	ldw	fp,4(sp)
 403041c:	dc000017 	ldw	r16,0(sp)
 4030420:	dec00304 	addi	sp,sp,12
 4030424:	f800283a 	ret

04030428 <sbrk>:
 4030428:	defff904 	addi	sp,sp,-28
 403042c:	df000615 	stw	fp,24(sp)
 4030430:	df000604 	addi	fp,sp,24
 4030434:	e13fff15 	stw	r4,-4(fp)
 4030438:	0005303a 	rdctl	r2,status
 403043c:	e0bffe15 	stw	r2,-8(fp)
 4030440:	e0fffe17 	ldw	r3,-8(fp)
 4030444:	00bfff84 	movi	r2,-2
 4030448:	1884703a 	and	r2,r3,r2
 403044c:	1001703a 	wrctl	status,r2
 4030450:	e0bffe17 	ldw	r2,-8(fp)
 4030454:	e0bffb15 	stw	r2,-20(fp)
 4030458:	d0a00d17 	ldw	r2,-32716(gp)
 403045c:	10c000c4 	addi	r3,r2,3
 4030460:	00bfff04 	movi	r2,-4
 4030464:	1884703a 	and	r2,r3,r2
 4030468:	d0a00d15 	stw	r2,-32716(gp)
 403046c:	d0e00d17 	ldw	r3,-32716(gp)
 4030470:	e0bfff17 	ldw	r2,-4(fp)
 4030474:	1887883a 	add	r3,r3,r2
 4030478:	00810034 	movhi	r2,1024
 403047c:	10800004 	addi	r2,r2,0
 4030480:	10c0062e 	bgeu	r2,r3,403049c <sbrk+0x74>
 4030484:	e0bffb17 	ldw	r2,-20(fp)
 4030488:	e0bffa15 	stw	r2,-24(fp)
 403048c:	e0bffa17 	ldw	r2,-24(fp)
 4030490:	1001703a 	wrctl	status,r2
 4030494:	00bfffc4 	movi	r2,-1
 4030498:	00000b06 	br	40304c8 <sbrk+0xa0>
 403049c:	d0a00d17 	ldw	r2,-32716(gp)
 40304a0:	e0bffd15 	stw	r2,-12(fp)
 40304a4:	d0e00d17 	ldw	r3,-32716(gp)
 40304a8:	e0bfff17 	ldw	r2,-4(fp)
 40304ac:	1885883a 	add	r2,r3,r2
 40304b0:	d0a00d15 	stw	r2,-32716(gp)
 40304b4:	e0bffb17 	ldw	r2,-20(fp)
 40304b8:	e0bffc15 	stw	r2,-16(fp)
 40304bc:	e0bffc17 	ldw	r2,-16(fp)
 40304c0:	1001703a 	wrctl	status,r2
 40304c4:	e0bffd17 	ldw	r2,-12(fp)
 40304c8:	e037883a 	mov	sp,fp
 40304cc:	df000017 	ldw	fp,0(sp)
 40304d0:	dec00104 	addi	sp,sp,4
 40304d4:	f800283a 	ret

040304d8 <usleep>:
 40304d8:	defffd04 	addi	sp,sp,-12
 40304dc:	dfc00215 	stw	ra,8(sp)
 40304e0:	df000115 	stw	fp,4(sp)
 40304e4:	df000104 	addi	fp,sp,4
 40304e8:	e13fff15 	stw	r4,-4(fp)
 40304ec:	e13fff17 	ldw	r4,-4(fp)
 40304f0:	40313980 	call	4031398 <alt_busy_sleep>
 40304f4:	e037883a 	mov	sp,fp
 40304f8:	dfc00117 	ldw	ra,4(sp)
 40304fc:	df000017 	ldw	fp,0(sp)
 4030500:	dec00204 	addi	sp,sp,8
 4030504:	f800283a 	ret

04030508 <alt_get_errno>:
 4030508:	defffe04 	addi	sp,sp,-8
 403050c:	dfc00115 	stw	ra,4(sp)
 4030510:	df000015 	stw	fp,0(sp)
 4030514:	d839883a 	mov	fp,sp
 4030518:	d0a00c17 	ldw	r2,-32720(gp)
 403051c:	10000326 	beq	r2,zero,403052c <alt_get_errno+0x24>
 4030520:	d0a00c17 	ldw	r2,-32720(gp)
 4030524:	103ee83a 	callr	r2
 4030528:	00000106 	br	4030530 <alt_get_errno+0x28>
 403052c:	d0a01904 	addi	r2,gp,-32668
 4030530:	e037883a 	mov	sp,fp
 4030534:	dfc00117 	ldw	ra,4(sp)
 4030538:	df000017 	ldw	fp,0(sp)
 403053c:	dec00204 	addi	sp,sp,8
 4030540:	f800283a 	ret

04030544 <write>:
 4030544:	defff904 	addi	sp,sp,-28
 4030548:	dfc00615 	stw	ra,24(sp)
 403054c:	df000515 	stw	fp,20(sp)
 4030550:	df000504 	addi	fp,sp,20
 4030554:	e13ffd15 	stw	r4,-12(fp)
 4030558:	e17ffe15 	stw	r5,-8(fp)
 403055c:	e1bfff15 	stw	r6,-4(fp)
 4030560:	e0bffd17 	ldw	r2,-12(fp)
 4030564:	10000816 	blt	r2,zero,4030588 <write+0x44>
 4030568:	01400304 	movi	r5,12
 403056c:	e13ffd17 	ldw	r4,-12(fp)
 4030570:	402572c0 	call	402572c <__mulsi3>
 4030574:	1007883a 	mov	r3,r2
 4030578:	00800034 	movhi	r2,0
 403057c:	1082fe04 	addi	r2,r2,3064
 4030580:	1885883a 	add	r2,r3,r2
 4030584:	00000106 	br	403058c <write+0x48>
 4030588:	0005883a 	mov	r2,zero
 403058c:	e0bffb15 	stw	r2,-20(fp)
 4030590:	e0bffb17 	ldw	r2,-20(fp)
 4030594:	10002126 	beq	r2,zero,403061c <write+0xd8>
 4030598:	e0bffb17 	ldw	r2,-20(fp)
 403059c:	10800217 	ldw	r2,8(r2)
 40305a0:	108000cc 	andi	r2,r2,3
 40305a4:	10001826 	beq	r2,zero,4030608 <write+0xc4>
 40305a8:	e0bffb17 	ldw	r2,-20(fp)
 40305ac:	10800017 	ldw	r2,0(r2)
 40305b0:	10800617 	ldw	r2,24(r2)
 40305b4:	10001426 	beq	r2,zero,4030608 <write+0xc4>
 40305b8:	e0bffb17 	ldw	r2,-20(fp)
 40305bc:	10800017 	ldw	r2,0(r2)
 40305c0:	10800617 	ldw	r2,24(r2)
 40305c4:	e0ffff17 	ldw	r3,-4(fp)
 40305c8:	180d883a 	mov	r6,r3
 40305cc:	e17ffe17 	ldw	r5,-8(fp)
 40305d0:	e13ffb17 	ldw	r4,-20(fp)
 40305d4:	103ee83a 	callr	r2
 40305d8:	e0bffc15 	stw	r2,-16(fp)
 40305dc:	e0bffc17 	ldw	r2,-16(fp)
 40305e0:	1000070e 	bge	r2,zero,4030600 <write+0xbc>
 40305e4:	40305080 	call	4030508 <alt_get_errno>
 40305e8:	1007883a 	mov	r3,r2
 40305ec:	e0bffc17 	ldw	r2,-16(fp)
 40305f0:	0085c83a 	sub	r2,zero,r2
 40305f4:	18800015 	stw	r2,0(r3)
 40305f8:	00bfffc4 	movi	r2,-1
 40305fc:	00000c06 	br	4030630 <write+0xec>
 4030600:	e0bffc17 	ldw	r2,-16(fp)
 4030604:	00000a06 	br	4030630 <write+0xec>
 4030608:	40305080 	call	4030508 <alt_get_errno>
 403060c:	1007883a 	mov	r3,r2
 4030610:	00800344 	movi	r2,13
 4030614:	18800015 	stw	r2,0(r3)
 4030618:	00000406 	br	403062c <write+0xe8>
 403061c:	40305080 	call	4030508 <alt_get_errno>
 4030620:	1007883a 	mov	r3,r2
 4030624:	00801444 	movi	r2,81
 4030628:	18800015 	stw	r2,0(r3)
 403062c:	00bfffc4 	movi	r2,-1
 4030630:	e037883a 	mov	sp,fp
 4030634:	dfc00117 	ldw	ra,4(sp)
 4030638:	df000017 	ldw	fp,0(sp)
 403063c:	dec00204 	addi	sp,sp,8
 4030640:	f800283a 	ret

04030644 <alt_dev_reg>:
 4030644:	defffd04 	addi	sp,sp,-12
 4030648:	dfc00215 	stw	ra,8(sp)
 403064c:	df000115 	stw	fp,4(sp)
 4030650:	df000104 	addi	fp,sp,4
 4030654:	e13fff15 	stw	r4,-4(fp)
 4030658:	d1600904 	addi	r5,gp,-32732
 403065c:	e13fff17 	ldw	r4,-4(fp)
 4030660:	403154c0 	call	403154c <alt_dev_llist_insert>
 4030664:	e037883a 	mov	sp,fp
 4030668:	dfc00117 	ldw	ra,4(sp)
 403066c:	df000017 	ldw	fp,0(sp)
 4030670:	dec00204 	addi	sp,sp,8
 4030674:	f800283a 	ret

04030678 <alt_irq_init>:
 4030678:	defffd04 	addi	sp,sp,-12
 403067c:	dfc00215 	stw	ra,8(sp)
 4030680:	df000115 	stw	fp,4(sp)
 4030684:	df000104 	addi	fp,sp,4
 4030688:	e13fff15 	stw	r4,-4(fp)
 403068c:	4031ef80 	call	4031ef8 <altera_nios2_gen2_irq_init>
 4030690:	00800044 	movi	r2,1
 4030694:	1001703a 	wrctl	status,r2
 4030698:	0001883a 	nop
 403069c:	e037883a 	mov	sp,fp
 40306a0:	dfc00117 	ldw	ra,4(sp)
 40306a4:	df000017 	ldw	fp,0(sp)
 40306a8:	dec00204 	addi	sp,sp,8
 40306ac:	f800283a 	ret

040306b0 <alt_sys_init>:
 40306b0:	defffe04 	addi	sp,sp,-8
 40306b4:	dfc00115 	stw	ra,4(sp)
 40306b8:	df000015 	stw	fp,0(sp)
 40306bc:	d839883a 	mov	fp,sp
 40306c0:	01c0fa04 	movi	r7,1000
 40306c4:	000d883a 	mov	r6,zero
 40306c8:	000b883a 	mov	r5,zero
 40306cc:	01010134 	movhi	r4,1028
 40306d0:	21040004 	addi	r4,r4,4096
 40306d4:	40311f00 	call	40311f0 <alt_avalon_timer_sc_init>
 40306d8:	01800044 	movi	r6,1
 40306dc:	000b883a 	mov	r5,zero
 40306e0:	01000034 	movhi	r4,0
 40306e4:	21036804 	addi	r4,r4,3488
 40306e8:	40308740 	call	4030874 <altera_avalon_jtag_uart_init>
 40306ec:	01000034 	movhi	r4,0
 40306f0:	21035e04 	addi	r4,r4,3448
 40306f4:	40306440 	call	4030644 <alt_dev_reg>
 40306f8:	0001883a 	nop
 40306fc:	e037883a 	mov	sp,fp
 4030700:	dfc00117 	ldw	ra,4(sp)
 4030704:	df000017 	ldw	fp,0(sp)
 4030708:	dec00204 	addi	sp,sp,8
 403070c:	f800283a 	ret

04030710 <altera_avalon_jtag_uart_read_fd>:
 4030710:	defffa04 	addi	sp,sp,-24
 4030714:	dfc00515 	stw	ra,20(sp)
 4030718:	df000415 	stw	fp,16(sp)
 403071c:	df000404 	addi	fp,sp,16
 4030720:	e13ffd15 	stw	r4,-12(fp)
 4030724:	e17ffe15 	stw	r5,-8(fp)
 4030728:	e1bfff15 	stw	r6,-4(fp)
 403072c:	e0bffd17 	ldw	r2,-12(fp)
 4030730:	10800017 	ldw	r2,0(r2)
 4030734:	e0bffc15 	stw	r2,-16(fp)
 4030738:	e0bffc17 	ldw	r2,-16(fp)
 403073c:	10c00a04 	addi	r3,r2,40
 4030740:	e0bffd17 	ldw	r2,-12(fp)
 4030744:	10800217 	ldw	r2,8(r2)
 4030748:	100f883a 	mov	r7,r2
 403074c:	e1bfff17 	ldw	r6,-4(fp)
 4030750:	e17ffe17 	ldw	r5,-8(fp)
 4030754:	1809883a 	mov	r4,r3
 4030758:	4030d380 	call	4030d38 <altera_avalon_jtag_uart_read>
 403075c:	e037883a 	mov	sp,fp
 4030760:	dfc00117 	ldw	ra,4(sp)
 4030764:	df000017 	ldw	fp,0(sp)
 4030768:	dec00204 	addi	sp,sp,8
 403076c:	f800283a 	ret

04030770 <altera_avalon_jtag_uart_write_fd>:
 4030770:	defffa04 	addi	sp,sp,-24
 4030774:	dfc00515 	stw	ra,20(sp)
 4030778:	df000415 	stw	fp,16(sp)
 403077c:	df000404 	addi	fp,sp,16
 4030780:	e13ffd15 	stw	r4,-12(fp)
 4030784:	e17ffe15 	stw	r5,-8(fp)
 4030788:	e1bfff15 	stw	r6,-4(fp)
 403078c:	e0bffd17 	ldw	r2,-12(fp)
 4030790:	10800017 	ldw	r2,0(r2)
 4030794:	e0bffc15 	stw	r2,-16(fp)
 4030798:	e0bffc17 	ldw	r2,-16(fp)
 403079c:	10c00a04 	addi	r3,r2,40
 40307a0:	e0bffd17 	ldw	r2,-12(fp)
 40307a4:	10800217 	ldw	r2,8(r2)
 40307a8:	100f883a 	mov	r7,r2
 40307ac:	e1bfff17 	ldw	r6,-4(fp)
 40307b0:	e17ffe17 	ldw	r5,-8(fp)
 40307b4:	1809883a 	mov	r4,r3
 40307b8:	4030f540 	call	4030f54 <altera_avalon_jtag_uart_write>
 40307bc:	e037883a 	mov	sp,fp
 40307c0:	dfc00117 	ldw	ra,4(sp)
 40307c4:	df000017 	ldw	fp,0(sp)
 40307c8:	dec00204 	addi	sp,sp,8
 40307cc:	f800283a 	ret

040307d0 <altera_avalon_jtag_uart_close_fd>:
 40307d0:	defffc04 	addi	sp,sp,-16
 40307d4:	dfc00315 	stw	ra,12(sp)
 40307d8:	df000215 	stw	fp,8(sp)
 40307dc:	df000204 	addi	fp,sp,8
 40307e0:	e13fff15 	stw	r4,-4(fp)
 40307e4:	e0bfff17 	ldw	r2,-4(fp)
 40307e8:	10800017 	ldw	r2,0(r2)
 40307ec:	e0bffe15 	stw	r2,-8(fp)
 40307f0:	e0bffe17 	ldw	r2,-8(fp)
 40307f4:	10c00a04 	addi	r3,r2,40
 40307f8:	e0bfff17 	ldw	r2,-4(fp)
 40307fc:	10800217 	ldw	r2,8(r2)
 4030800:	100b883a 	mov	r5,r2
 4030804:	1809883a 	mov	r4,r3
 4030808:	4030be00 	call	4030be0 <altera_avalon_jtag_uart_close>
 403080c:	e037883a 	mov	sp,fp
 4030810:	dfc00117 	ldw	ra,4(sp)
 4030814:	df000017 	ldw	fp,0(sp)
 4030818:	dec00204 	addi	sp,sp,8
 403081c:	f800283a 	ret

04030820 <altera_avalon_jtag_uart_ioctl_fd>:
 4030820:	defffa04 	addi	sp,sp,-24
 4030824:	dfc00515 	stw	ra,20(sp)
 4030828:	df000415 	stw	fp,16(sp)
 403082c:	df000404 	addi	fp,sp,16
 4030830:	e13ffd15 	stw	r4,-12(fp)
 4030834:	e17ffe15 	stw	r5,-8(fp)
 4030838:	e1bfff15 	stw	r6,-4(fp)
 403083c:	e0bffd17 	ldw	r2,-12(fp)
 4030840:	10800017 	ldw	r2,0(r2)
 4030844:	e0bffc15 	stw	r2,-16(fp)
 4030848:	e0bffc17 	ldw	r2,-16(fp)
 403084c:	10800a04 	addi	r2,r2,40
 4030850:	e1bfff17 	ldw	r6,-4(fp)
 4030854:	e17ffe17 	ldw	r5,-8(fp)
 4030858:	1009883a 	mov	r4,r2
 403085c:	4030c480 	call	4030c48 <altera_avalon_jtag_uart_ioctl>
 4030860:	e037883a 	mov	sp,fp
 4030864:	dfc00117 	ldw	ra,4(sp)
 4030868:	df000017 	ldw	fp,0(sp)
 403086c:	dec00204 	addi	sp,sp,8
 4030870:	f800283a 	ret

04030874 <altera_avalon_jtag_uart_init>:
 4030874:	defffa04 	addi	sp,sp,-24
 4030878:	dfc00515 	stw	ra,20(sp)
 403087c:	df000415 	stw	fp,16(sp)
 4030880:	df000404 	addi	fp,sp,16
 4030884:	e13ffd15 	stw	r4,-12(fp)
 4030888:	e17ffe15 	stw	r5,-8(fp)
 403088c:	e1bfff15 	stw	r6,-4(fp)
 4030890:	e0bffd17 	ldw	r2,-12(fp)
 4030894:	00c00044 	movi	r3,1
 4030898:	10c00815 	stw	r3,32(r2)
 403089c:	e0bffd17 	ldw	r2,-12(fp)
 40308a0:	10800017 	ldw	r2,0(r2)
 40308a4:	10800104 	addi	r2,r2,4
 40308a8:	1007883a 	mov	r3,r2
 40308ac:	e0bffd17 	ldw	r2,-12(fp)
 40308b0:	10800817 	ldw	r2,32(r2)
 40308b4:	18800035 	stwio	r2,0(r3)
 40308b8:	e0bffe17 	ldw	r2,-8(fp)
 40308bc:	e0ffff17 	ldw	r3,-4(fp)
 40308c0:	d8000015 	stw	zero,0(sp)
 40308c4:	e1fffd17 	ldw	r7,-12(fp)
 40308c8:	018100f4 	movhi	r6,1027
 40308cc:	31824d04 	addi	r6,r6,2356
 40308d0:	180b883a 	mov	r5,r3
 40308d4:	1009883a 	mov	r4,r2
 40308d8:	40316d00 	call	40316d0 <alt_ic_isr_register>
 40308dc:	e0bffd17 	ldw	r2,-12(fp)
 40308e0:	10000915 	stw	zero,36(r2)
 40308e4:	e0bffd17 	ldw	r2,-12(fp)
 40308e8:	10800204 	addi	r2,r2,8
 40308ec:	d0e01e17 	ldw	r3,-32648(gp)
 40308f0:	e1fffd17 	ldw	r7,-12(fp)
 40308f4:	018100f4 	movhi	r6,1027
 40308f8:	3182d004 	addi	r6,r6,2880
 40308fc:	180b883a 	mov	r5,r3
 4030900:	1009883a 	mov	r4,r2
 4030904:	403126c0 	call	403126c <alt_alarm_start>
 4030908:	1000040e 	bge	r2,zero,403091c <altera_avalon_jtag_uart_init+0xa8>
 403090c:	e0fffd17 	ldw	r3,-12(fp)
 4030910:	00a00034 	movhi	r2,32768
 4030914:	10bfffc4 	addi	r2,r2,-1
 4030918:	18800115 	stw	r2,4(r3)
 403091c:	0001883a 	nop
 4030920:	e037883a 	mov	sp,fp
 4030924:	dfc00117 	ldw	ra,4(sp)
 4030928:	df000017 	ldw	fp,0(sp)
 403092c:	dec00204 	addi	sp,sp,8
 4030930:	f800283a 	ret

04030934 <altera_avalon_jtag_uart_irq>:
 4030934:	defff804 	addi	sp,sp,-32
 4030938:	df000715 	stw	fp,28(sp)
 403093c:	df000704 	addi	fp,sp,28
 4030940:	e13fff15 	stw	r4,-4(fp)
 4030944:	e0bfff17 	ldw	r2,-4(fp)
 4030948:	e0bffb15 	stw	r2,-20(fp)
 403094c:	e0bffb17 	ldw	r2,-20(fp)
 4030950:	10800017 	ldw	r2,0(r2)
 4030954:	e0bffc15 	stw	r2,-16(fp)
 4030958:	e0bffc17 	ldw	r2,-16(fp)
 403095c:	10800104 	addi	r2,r2,4
 4030960:	10800037 	ldwio	r2,0(r2)
 4030964:	e0bffd15 	stw	r2,-12(fp)
 4030968:	e0bffd17 	ldw	r2,-12(fp)
 403096c:	1080c00c 	andi	r2,r2,768
 4030970:	10006d26 	beq	r2,zero,4030b28 <altera_avalon_jtag_uart_irq+0x1f4>
 4030974:	e0bffd17 	ldw	r2,-12(fp)
 4030978:	1080400c 	andi	r2,r2,256
 403097c:	10003526 	beq	r2,zero,4030a54 <altera_avalon_jtag_uart_irq+0x120>
 4030980:	00800074 	movhi	r2,1
 4030984:	e0bff915 	stw	r2,-28(fp)
 4030988:	e0bffb17 	ldw	r2,-20(fp)
 403098c:	10800a17 	ldw	r2,40(r2)
 4030990:	10800044 	addi	r2,r2,1
 4030994:	1081ffcc 	andi	r2,r2,2047
 4030998:	e0bffe15 	stw	r2,-8(fp)
 403099c:	e0bffb17 	ldw	r2,-20(fp)
 40309a0:	10c00b17 	ldw	r3,44(r2)
 40309a4:	e0bffe17 	ldw	r2,-8(fp)
 40309a8:	18801526 	beq	r3,r2,4030a00 <altera_avalon_jtag_uart_irq+0xcc>
 40309ac:	e0bffc17 	ldw	r2,-16(fp)
 40309b0:	10800037 	ldwio	r2,0(r2)
 40309b4:	e0bff915 	stw	r2,-28(fp)
 40309b8:	e0bff917 	ldw	r2,-28(fp)
 40309bc:	10a0000c 	andi	r2,r2,32768
 40309c0:	10001126 	beq	r2,zero,4030a08 <altera_avalon_jtag_uart_irq+0xd4>
 40309c4:	e0bffb17 	ldw	r2,-20(fp)
 40309c8:	10800a17 	ldw	r2,40(r2)
 40309cc:	e0fff917 	ldw	r3,-28(fp)
 40309d0:	1809883a 	mov	r4,r3
 40309d4:	e0fffb17 	ldw	r3,-20(fp)
 40309d8:	1885883a 	add	r2,r3,r2
 40309dc:	10800e04 	addi	r2,r2,56
 40309e0:	11000005 	stb	r4,0(r2)
 40309e4:	e0bffb17 	ldw	r2,-20(fp)
 40309e8:	10800a17 	ldw	r2,40(r2)
 40309ec:	10800044 	addi	r2,r2,1
 40309f0:	10c1ffcc 	andi	r3,r2,2047
 40309f4:	e0bffb17 	ldw	r2,-20(fp)
 40309f8:	10c00a15 	stw	r3,40(r2)
 40309fc:	003fe206 	br	4030988 <__flash_rwdata_start+0xffffe0b4>
 4030a00:	0001883a 	nop
 4030a04:	00000106 	br	4030a0c <altera_avalon_jtag_uart_irq+0xd8>
 4030a08:	0001883a 	nop
 4030a0c:	e0bff917 	ldw	r2,-28(fp)
 4030a10:	10bfffec 	andhi	r2,r2,65535
 4030a14:	10000f26 	beq	r2,zero,4030a54 <altera_avalon_jtag_uart_irq+0x120>
 4030a18:	e0bffb17 	ldw	r2,-20(fp)
 4030a1c:	10c00817 	ldw	r3,32(r2)
 4030a20:	00bfff84 	movi	r2,-2
 4030a24:	1886703a 	and	r3,r3,r2
 4030a28:	e0bffb17 	ldw	r2,-20(fp)
 4030a2c:	10c00815 	stw	r3,32(r2)
 4030a30:	e0bffc17 	ldw	r2,-16(fp)
 4030a34:	10800104 	addi	r2,r2,4
 4030a38:	1007883a 	mov	r3,r2
 4030a3c:	e0bffb17 	ldw	r2,-20(fp)
 4030a40:	10800817 	ldw	r2,32(r2)
 4030a44:	18800035 	stwio	r2,0(r3)
 4030a48:	e0bffc17 	ldw	r2,-16(fp)
 4030a4c:	10800104 	addi	r2,r2,4
 4030a50:	10800037 	ldwio	r2,0(r2)
 4030a54:	e0bffd17 	ldw	r2,-12(fp)
 4030a58:	1080800c 	andi	r2,r2,512
 4030a5c:	103fbe26 	beq	r2,zero,4030958 <__flash_rwdata_start+0xffffe084>
 4030a60:	e0bffd17 	ldw	r2,-12(fp)
 4030a64:	1004d43a 	srli	r2,r2,16
 4030a68:	e0bffa15 	stw	r2,-24(fp)
 4030a6c:	00001406 	br	4030ac0 <altera_avalon_jtag_uart_irq+0x18c>
 4030a70:	e0bffc17 	ldw	r2,-16(fp)
 4030a74:	e0fffb17 	ldw	r3,-20(fp)
 4030a78:	18c00d17 	ldw	r3,52(r3)
 4030a7c:	e13ffb17 	ldw	r4,-20(fp)
 4030a80:	20c7883a 	add	r3,r4,r3
 4030a84:	18c20e04 	addi	r3,r3,2104
 4030a88:	18c00003 	ldbu	r3,0(r3)
 4030a8c:	18c03fcc 	andi	r3,r3,255
 4030a90:	18c0201c 	xori	r3,r3,128
 4030a94:	18ffe004 	addi	r3,r3,-128
 4030a98:	10c00035 	stwio	r3,0(r2)
 4030a9c:	e0bffb17 	ldw	r2,-20(fp)
 4030aa0:	10800d17 	ldw	r2,52(r2)
 4030aa4:	10800044 	addi	r2,r2,1
 4030aa8:	10c1ffcc 	andi	r3,r2,2047
 4030aac:	e0bffb17 	ldw	r2,-20(fp)
 4030ab0:	10c00d15 	stw	r3,52(r2)
 4030ab4:	e0bffa17 	ldw	r2,-24(fp)
 4030ab8:	10bfffc4 	addi	r2,r2,-1
 4030abc:	e0bffa15 	stw	r2,-24(fp)
 4030ac0:	e0bffa17 	ldw	r2,-24(fp)
 4030ac4:	10000526 	beq	r2,zero,4030adc <altera_avalon_jtag_uart_irq+0x1a8>
 4030ac8:	e0bffb17 	ldw	r2,-20(fp)
 4030acc:	10c00d17 	ldw	r3,52(r2)
 4030ad0:	e0bffb17 	ldw	r2,-20(fp)
 4030ad4:	10800c17 	ldw	r2,48(r2)
 4030ad8:	18bfe51e 	bne	r3,r2,4030a70 <__flash_rwdata_start+0xffffe19c>
 4030adc:	e0bffa17 	ldw	r2,-24(fp)
 4030ae0:	103f9d26 	beq	r2,zero,4030958 <__flash_rwdata_start+0xffffe084>
 4030ae4:	e0bffb17 	ldw	r2,-20(fp)
 4030ae8:	10c00817 	ldw	r3,32(r2)
 4030aec:	00bfff44 	movi	r2,-3
 4030af0:	1886703a 	and	r3,r3,r2
 4030af4:	e0bffb17 	ldw	r2,-20(fp)
 4030af8:	10c00815 	stw	r3,32(r2)
 4030afc:	e0bffb17 	ldw	r2,-20(fp)
 4030b00:	10800017 	ldw	r2,0(r2)
 4030b04:	10800104 	addi	r2,r2,4
 4030b08:	1007883a 	mov	r3,r2
 4030b0c:	e0bffb17 	ldw	r2,-20(fp)
 4030b10:	10800817 	ldw	r2,32(r2)
 4030b14:	18800035 	stwio	r2,0(r3)
 4030b18:	e0bffc17 	ldw	r2,-16(fp)
 4030b1c:	10800104 	addi	r2,r2,4
 4030b20:	10800037 	ldwio	r2,0(r2)
 4030b24:	003f8c06 	br	4030958 <__flash_rwdata_start+0xffffe084>
 4030b28:	0001883a 	nop
 4030b2c:	0001883a 	nop
 4030b30:	e037883a 	mov	sp,fp
 4030b34:	df000017 	ldw	fp,0(sp)
 4030b38:	dec00104 	addi	sp,sp,4
 4030b3c:	f800283a 	ret

04030b40 <altera_avalon_jtag_uart_timeout>:
 4030b40:	defff804 	addi	sp,sp,-32
 4030b44:	df000715 	stw	fp,28(sp)
 4030b48:	df000704 	addi	fp,sp,28
 4030b4c:	e13ffb15 	stw	r4,-20(fp)
 4030b50:	e0bffb17 	ldw	r2,-20(fp)
 4030b54:	e0bff915 	stw	r2,-28(fp)
 4030b58:	e0bff917 	ldw	r2,-28(fp)
 4030b5c:	10800017 	ldw	r2,0(r2)
 4030b60:	10800104 	addi	r2,r2,4
 4030b64:	10800037 	ldwio	r2,0(r2)
 4030b68:	e0bffa15 	stw	r2,-24(fp)
 4030b6c:	e0bffa17 	ldw	r2,-24(fp)
 4030b70:	1081000c 	andi	r2,r2,1024
 4030b74:	10000b26 	beq	r2,zero,4030ba4 <altera_avalon_jtag_uart_timeout+0x64>
 4030b78:	e0bff917 	ldw	r2,-28(fp)
 4030b7c:	10800017 	ldw	r2,0(r2)
 4030b80:	10800104 	addi	r2,r2,4
 4030b84:	1007883a 	mov	r3,r2
 4030b88:	e0bff917 	ldw	r2,-28(fp)
 4030b8c:	10800817 	ldw	r2,32(r2)
 4030b90:	10810014 	ori	r2,r2,1024
 4030b94:	18800035 	stwio	r2,0(r3)
 4030b98:	e0bff917 	ldw	r2,-28(fp)
 4030b9c:	10000915 	stw	zero,36(r2)
 4030ba0:	00000a06 	br	4030bcc <altera_avalon_jtag_uart_timeout+0x8c>
 4030ba4:	e0bff917 	ldw	r2,-28(fp)
 4030ba8:	10c00917 	ldw	r3,36(r2)
 4030bac:	00a00034 	movhi	r2,32768
 4030bb0:	10bfff04 	addi	r2,r2,-4
 4030bb4:	10c00536 	bltu	r2,r3,4030bcc <altera_avalon_jtag_uart_timeout+0x8c>
 4030bb8:	e0bff917 	ldw	r2,-28(fp)
 4030bbc:	10800917 	ldw	r2,36(r2)
 4030bc0:	10c00044 	addi	r3,r2,1
 4030bc4:	e0bff917 	ldw	r2,-28(fp)
 4030bc8:	10c00915 	stw	r3,36(r2)
 4030bcc:	d0a01e17 	ldw	r2,-32648(gp)
 4030bd0:	e037883a 	mov	sp,fp
 4030bd4:	df000017 	ldw	fp,0(sp)
 4030bd8:	dec00104 	addi	sp,sp,4
 4030bdc:	f800283a 	ret

04030be0 <altera_avalon_jtag_uart_close>:
 4030be0:	defffd04 	addi	sp,sp,-12
 4030be4:	df000215 	stw	fp,8(sp)
 4030be8:	df000204 	addi	fp,sp,8
 4030bec:	e13ffe15 	stw	r4,-8(fp)
 4030bf0:	e17fff15 	stw	r5,-4(fp)
 4030bf4:	00000506 	br	4030c0c <altera_avalon_jtag_uart_close+0x2c>
 4030bf8:	e0bfff17 	ldw	r2,-4(fp)
 4030bfc:	1090000c 	andi	r2,r2,16384
 4030c00:	10000226 	beq	r2,zero,4030c0c <altera_avalon_jtag_uart_close+0x2c>
 4030c04:	00bffd44 	movi	r2,-11
 4030c08:	00000b06 	br	4030c38 <altera_avalon_jtag_uart_close+0x58>
 4030c0c:	e0bffe17 	ldw	r2,-8(fp)
 4030c10:	10c00d17 	ldw	r3,52(r2)
 4030c14:	e0bffe17 	ldw	r2,-8(fp)
 4030c18:	10800c17 	ldw	r2,48(r2)
 4030c1c:	18800526 	beq	r3,r2,4030c34 <altera_avalon_jtag_uart_close+0x54>
 4030c20:	e0bffe17 	ldw	r2,-8(fp)
 4030c24:	10c00917 	ldw	r3,36(r2)
 4030c28:	e0bffe17 	ldw	r2,-8(fp)
 4030c2c:	10800117 	ldw	r2,4(r2)
 4030c30:	18bff136 	bltu	r3,r2,4030bf8 <__flash_rwdata_start+0xffffe324>
 4030c34:	0005883a 	mov	r2,zero
 4030c38:	e037883a 	mov	sp,fp
 4030c3c:	df000017 	ldw	fp,0(sp)
 4030c40:	dec00104 	addi	sp,sp,4
 4030c44:	f800283a 	ret

04030c48 <altera_avalon_jtag_uart_ioctl>:
 4030c48:	defffa04 	addi	sp,sp,-24
 4030c4c:	df000515 	stw	fp,20(sp)
 4030c50:	df000504 	addi	fp,sp,20
 4030c54:	e13ffd15 	stw	r4,-12(fp)
 4030c58:	e17ffe15 	stw	r5,-8(fp)
 4030c5c:	e1bfff15 	stw	r6,-4(fp)
 4030c60:	00bff9c4 	movi	r2,-25
 4030c64:	e0bffb15 	stw	r2,-20(fp)
 4030c68:	e0bffe17 	ldw	r2,-8(fp)
 4030c6c:	10da8060 	cmpeqi	r3,r2,27137
 4030c70:	1800031e 	bne	r3,zero,4030c80 <altera_avalon_jtag_uart_ioctl+0x38>
 4030c74:	109a80a0 	cmpeqi	r2,r2,27138
 4030c78:	1000181e 	bne	r2,zero,4030cdc <altera_avalon_jtag_uart_ioctl+0x94>
 4030c7c:	00002906 	br	4030d24 <altera_avalon_jtag_uart_ioctl+0xdc>
 4030c80:	e0bffd17 	ldw	r2,-12(fp)
 4030c84:	10c00117 	ldw	r3,4(r2)
 4030c88:	00a00034 	movhi	r2,32768
 4030c8c:	10bfffc4 	addi	r2,r2,-1
 4030c90:	18802126 	beq	r3,r2,4030d18 <altera_avalon_jtag_uart_ioctl+0xd0>
 4030c94:	e0bfff17 	ldw	r2,-4(fp)
 4030c98:	10800017 	ldw	r2,0(r2)
 4030c9c:	e0bffc15 	stw	r2,-16(fp)
 4030ca0:	e0bffc17 	ldw	r2,-16(fp)
 4030ca4:	10800090 	cmplti	r2,r2,2
 4030ca8:	1000061e 	bne	r2,zero,4030cc4 <altera_avalon_jtag_uart_ioctl+0x7c>
 4030cac:	e0fffc17 	ldw	r3,-16(fp)
 4030cb0:	00a00034 	movhi	r2,32768
 4030cb4:	10bfffc4 	addi	r2,r2,-1
 4030cb8:	18800226 	beq	r3,r2,4030cc4 <altera_avalon_jtag_uart_ioctl+0x7c>
 4030cbc:	e0bffc17 	ldw	r2,-16(fp)
 4030cc0:	00000206 	br	4030ccc <altera_avalon_jtag_uart_ioctl+0x84>
 4030cc4:	00a00034 	movhi	r2,32768
 4030cc8:	10bfff84 	addi	r2,r2,-2
 4030ccc:	e0fffd17 	ldw	r3,-12(fp)
 4030cd0:	18800115 	stw	r2,4(r3)
 4030cd4:	e03ffb15 	stw	zero,-20(fp)
 4030cd8:	00000f06 	br	4030d18 <altera_avalon_jtag_uart_ioctl+0xd0>
 4030cdc:	e0bffd17 	ldw	r2,-12(fp)
 4030ce0:	10c00117 	ldw	r3,4(r2)
 4030ce4:	00a00034 	movhi	r2,32768
 4030ce8:	10bfffc4 	addi	r2,r2,-1
 4030cec:	18800c26 	beq	r3,r2,4030d20 <altera_avalon_jtag_uart_ioctl+0xd8>
 4030cf0:	e0bffd17 	ldw	r2,-12(fp)
 4030cf4:	10c00917 	ldw	r3,36(r2)
 4030cf8:	e0bffd17 	ldw	r2,-12(fp)
 4030cfc:	10800117 	ldw	r2,4(r2)
 4030d00:	1885803a 	cmpltu	r2,r3,r2
 4030d04:	10c03fcc 	andi	r3,r2,255
 4030d08:	e0bfff17 	ldw	r2,-4(fp)
 4030d0c:	10c00015 	stw	r3,0(r2)
 4030d10:	e03ffb15 	stw	zero,-20(fp)
 4030d14:	00000206 	br	4030d20 <altera_avalon_jtag_uart_ioctl+0xd8>
 4030d18:	0001883a 	nop
 4030d1c:	00000106 	br	4030d24 <altera_avalon_jtag_uart_ioctl+0xdc>
 4030d20:	0001883a 	nop
 4030d24:	e0bffb17 	ldw	r2,-20(fp)
 4030d28:	e037883a 	mov	sp,fp
 4030d2c:	df000017 	ldw	fp,0(sp)
 4030d30:	dec00104 	addi	sp,sp,4
 4030d34:	f800283a 	ret

04030d38 <altera_avalon_jtag_uart_read>:
 4030d38:	defff304 	addi	sp,sp,-52
 4030d3c:	dfc00c15 	stw	ra,48(sp)
 4030d40:	df000b15 	stw	fp,44(sp)
 4030d44:	df000b04 	addi	fp,sp,44
 4030d48:	e13ffc15 	stw	r4,-16(fp)
 4030d4c:	e17ffd15 	stw	r5,-12(fp)
 4030d50:	e1bffe15 	stw	r6,-8(fp)
 4030d54:	e1ffff15 	stw	r7,-4(fp)
 4030d58:	e0bffd17 	ldw	r2,-12(fp)
 4030d5c:	e0bff515 	stw	r2,-44(fp)
 4030d60:	00004706 	br	4030e80 <altera_avalon_jtag_uart_read+0x148>
 4030d64:	e0bffc17 	ldw	r2,-16(fp)
 4030d68:	10800a17 	ldw	r2,40(r2)
 4030d6c:	e0bff715 	stw	r2,-36(fp)
 4030d70:	e0bffc17 	ldw	r2,-16(fp)
 4030d74:	10800b17 	ldw	r2,44(r2)
 4030d78:	e0bff815 	stw	r2,-32(fp)
 4030d7c:	e0fff717 	ldw	r3,-36(fp)
 4030d80:	e0bff817 	ldw	r2,-32(fp)
 4030d84:	18800536 	bltu	r3,r2,4030d9c <altera_avalon_jtag_uart_read+0x64>
 4030d88:	e0fff717 	ldw	r3,-36(fp)
 4030d8c:	e0bff817 	ldw	r2,-32(fp)
 4030d90:	1885c83a 	sub	r2,r3,r2
 4030d94:	e0bff615 	stw	r2,-40(fp)
 4030d98:	00000406 	br	4030dac <altera_avalon_jtag_uart_read+0x74>
 4030d9c:	00c20004 	movi	r3,2048
 4030da0:	e0bff817 	ldw	r2,-32(fp)
 4030da4:	1885c83a 	sub	r2,r3,r2
 4030da8:	e0bff615 	stw	r2,-40(fp)
 4030dac:	e0bff617 	ldw	r2,-40(fp)
 4030db0:	10001e26 	beq	r2,zero,4030e2c <altera_avalon_jtag_uart_read+0xf4>
 4030db4:	e0fffe17 	ldw	r3,-8(fp)
 4030db8:	e0bff617 	ldw	r2,-40(fp)
 4030dbc:	1880022e 	bgeu	r3,r2,4030dc8 <altera_avalon_jtag_uart_read+0x90>
 4030dc0:	e0bffe17 	ldw	r2,-8(fp)
 4030dc4:	e0bff615 	stw	r2,-40(fp)
 4030dc8:	e0bffc17 	ldw	r2,-16(fp)
 4030dcc:	10c00e04 	addi	r3,r2,56
 4030dd0:	e0bff817 	ldw	r2,-32(fp)
 4030dd4:	1885883a 	add	r2,r3,r2
 4030dd8:	e1bff617 	ldw	r6,-40(fp)
 4030ddc:	100b883a 	mov	r5,r2
 4030de0:	e13ff517 	ldw	r4,-44(fp)
 4030de4:	402ad240 	call	402ad24 <memcpy>
 4030de8:	e0fff517 	ldw	r3,-44(fp)
 4030dec:	e0bff617 	ldw	r2,-40(fp)
 4030df0:	1885883a 	add	r2,r3,r2
 4030df4:	e0bff515 	stw	r2,-44(fp)
 4030df8:	e0fffe17 	ldw	r3,-8(fp)
 4030dfc:	e0bff617 	ldw	r2,-40(fp)
 4030e00:	1885c83a 	sub	r2,r3,r2
 4030e04:	e0bffe15 	stw	r2,-8(fp)
 4030e08:	e0fff817 	ldw	r3,-32(fp)
 4030e0c:	e0bff617 	ldw	r2,-40(fp)
 4030e10:	1885883a 	add	r2,r3,r2
 4030e14:	10c1ffcc 	andi	r3,r2,2047
 4030e18:	e0bffc17 	ldw	r2,-16(fp)
 4030e1c:	10c00b15 	stw	r3,44(r2)
 4030e20:	e0bffe17 	ldw	r2,-8(fp)
 4030e24:	00bfcf16 	blt	zero,r2,4030d64 <__flash_rwdata_start+0xffffe490>
 4030e28:	00000106 	br	4030e30 <altera_avalon_jtag_uart_read+0xf8>
 4030e2c:	0001883a 	nop
 4030e30:	e0fff517 	ldw	r3,-44(fp)
 4030e34:	e0bffd17 	ldw	r2,-12(fp)
 4030e38:	1880141e 	bne	r3,r2,4030e8c <altera_avalon_jtag_uart_read+0x154>
 4030e3c:	e0bfff17 	ldw	r2,-4(fp)
 4030e40:	1090000c 	andi	r2,r2,16384
 4030e44:	1000131e 	bne	r2,zero,4030e94 <altera_avalon_jtag_uart_read+0x15c>
 4030e48:	0001883a 	nop
 4030e4c:	e0bffc17 	ldw	r2,-16(fp)
 4030e50:	10c00a17 	ldw	r3,40(r2)
 4030e54:	e0bff717 	ldw	r2,-36(fp)
 4030e58:	1880051e 	bne	r3,r2,4030e70 <altera_avalon_jtag_uart_read+0x138>
 4030e5c:	e0bffc17 	ldw	r2,-16(fp)
 4030e60:	10c00917 	ldw	r3,36(r2)
 4030e64:	e0bffc17 	ldw	r2,-16(fp)
 4030e68:	10800117 	ldw	r2,4(r2)
 4030e6c:	18bff736 	bltu	r3,r2,4030e4c <__flash_rwdata_start+0xffffe578>
 4030e70:	e0bffc17 	ldw	r2,-16(fp)
 4030e74:	10c00a17 	ldw	r3,40(r2)
 4030e78:	e0bff717 	ldw	r2,-36(fp)
 4030e7c:	18800726 	beq	r3,r2,4030e9c <altera_avalon_jtag_uart_read+0x164>
 4030e80:	e0bffe17 	ldw	r2,-8(fp)
 4030e84:	00bfb716 	blt	zero,r2,4030d64 <__flash_rwdata_start+0xffffe490>
 4030e88:	00000506 	br	4030ea0 <altera_avalon_jtag_uart_read+0x168>
 4030e8c:	0001883a 	nop
 4030e90:	00000306 	br	4030ea0 <altera_avalon_jtag_uart_read+0x168>
 4030e94:	0001883a 	nop
 4030e98:	00000106 	br	4030ea0 <altera_avalon_jtag_uart_read+0x168>
 4030e9c:	0001883a 	nop
 4030ea0:	e0fff517 	ldw	r3,-44(fp)
 4030ea4:	e0bffd17 	ldw	r2,-12(fp)
 4030ea8:	18801826 	beq	r3,r2,4030f0c <altera_avalon_jtag_uart_read+0x1d4>
 4030eac:	0005303a 	rdctl	r2,status
 4030eb0:	e0bffb15 	stw	r2,-20(fp)
 4030eb4:	e0fffb17 	ldw	r3,-20(fp)
 4030eb8:	00bfff84 	movi	r2,-2
 4030ebc:	1884703a 	and	r2,r3,r2
 4030ec0:	1001703a 	wrctl	status,r2
 4030ec4:	e0bffb17 	ldw	r2,-20(fp)
 4030ec8:	e0bffa15 	stw	r2,-24(fp)
 4030ecc:	e0bffc17 	ldw	r2,-16(fp)
 4030ed0:	10800817 	ldw	r2,32(r2)
 4030ed4:	10c00054 	ori	r3,r2,1
 4030ed8:	e0bffc17 	ldw	r2,-16(fp)
 4030edc:	10c00815 	stw	r3,32(r2)
 4030ee0:	e0bffc17 	ldw	r2,-16(fp)
 4030ee4:	10800017 	ldw	r2,0(r2)
 4030ee8:	10800104 	addi	r2,r2,4
 4030eec:	1007883a 	mov	r3,r2
 4030ef0:	e0bffc17 	ldw	r2,-16(fp)
 4030ef4:	10800817 	ldw	r2,32(r2)
 4030ef8:	18800035 	stwio	r2,0(r3)
 4030efc:	e0bffa17 	ldw	r2,-24(fp)
 4030f00:	e0bff915 	stw	r2,-28(fp)
 4030f04:	e0bff917 	ldw	r2,-28(fp)
 4030f08:	1001703a 	wrctl	status,r2
 4030f0c:	e0fff517 	ldw	r3,-44(fp)
 4030f10:	e0bffd17 	ldw	r2,-12(fp)
 4030f14:	18800426 	beq	r3,r2,4030f28 <altera_avalon_jtag_uart_read+0x1f0>
 4030f18:	e0fff517 	ldw	r3,-44(fp)
 4030f1c:	e0bffd17 	ldw	r2,-12(fp)
 4030f20:	1885c83a 	sub	r2,r3,r2
 4030f24:	00000606 	br	4030f40 <altera_avalon_jtag_uart_read+0x208>
 4030f28:	e0bfff17 	ldw	r2,-4(fp)
 4030f2c:	1090000c 	andi	r2,r2,16384
 4030f30:	10000226 	beq	r2,zero,4030f3c <altera_avalon_jtag_uart_read+0x204>
 4030f34:	00bffd44 	movi	r2,-11
 4030f38:	00000106 	br	4030f40 <altera_avalon_jtag_uart_read+0x208>
 4030f3c:	00bffec4 	movi	r2,-5
 4030f40:	e037883a 	mov	sp,fp
 4030f44:	dfc00117 	ldw	ra,4(sp)
 4030f48:	df000017 	ldw	fp,0(sp)
 4030f4c:	dec00204 	addi	sp,sp,8
 4030f50:	f800283a 	ret

04030f54 <altera_avalon_jtag_uart_write>:
 4030f54:	defff304 	addi	sp,sp,-52
 4030f58:	dfc00c15 	stw	ra,48(sp)
 4030f5c:	df000b15 	stw	fp,44(sp)
 4030f60:	df000b04 	addi	fp,sp,44
 4030f64:	e13ffc15 	stw	r4,-16(fp)
 4030f68:	e17ffd15 	stw	r5,-12(fp)
 4030f6c:	e1bffe15 	stw	r6,-8(fp)
 4030f70:	e1ffff15 	stw	r7,-4(fp)
 4030f74:	e03ff515 	stw	zero,-44(fp)
 4030f78:	e0bffd17 	ldw	r2,-12(fp)
 4030f7c:	e0bff715 	stw	r2,-36(fp)
 4030f80:	00003706 	br	4031060 <altera_avalon_jtag_uart_write+0x10c>
 4030f84:	e0bffc17 	ldw	r2,-16(fp)
 4030f88:	10800c17 	ldw	r2,48(r2)
 4030f8c:	e0bff915 	stw	r2,-28(fp)
 4030f90:	e0bffc17 	ldw	r2,-16(fp)
 4030f94:	10800d17 	ldw	r2,52(r2)
 4030f98:	e0bff515 	stw	r2,-44(fp)
 4030f9c:	e0fff917 	ldw	r3,-28(fp)
 4030fa0:	e0bff517 	ldw	r2,-44(fp)
 4030fa4:	1880062e 	bgeu	r3,r2,4030fc0 <altera_avalon_jtag_uart_write+0x6c>
 4030fa8:	e0fff517 	ldw	r3,-44(fp)
 4030fac:	e0bff917 	ldw	r2,-28(fp)
 4030fb0:	1885c83a 	sub	r2,r3,r2
 4030fb4:	10bfffc4 	addi	r2,r2,-1
 4030fb8:	e0bff615 	stw	r2,-40(fp)
 4030fbc:	00000b06 	br	4030fec <altera_avalon_jtag_uart_write+0x98>
 4030fc0:	e0bff517 	ldw	r2,-44(fp)
 4030fc4:	10000526 	beq	r2,zero,4030fdc <altera_avalon_jtag_uart_write+0x88>
 4030fc8:	00c20004 	movi	r3,2048
 4030fcc:	e0bff917 	ldw	r2,-28(fp)
 4030fd0:	1885c83a 	sub	r2,r3,r2
 4030fd4:	e0bff615 	stw	r2,-40(fp)
 4030fd8:	00000406 	br	4030fec <altera_avalon_jtag_uart_write+0x98>
 4030fdc:	00c1ffc4 	movi	r3,2047
 4030fe0:	e0bff917 	ldw	r2,-28(fp)
 4030fe4:	1885c83a 	sub	r2,r3,r2
 4030fe8:	e0bff615 	stw	r2,-40(fp)
 4030fec:	e0bff617 	ldw	r2,-40(fp)
 4030ff0:	10001e26 	beq	r2,zero,403106c <altera_avalon_jtag_uart_write+0x118>
 4030ff4:	e0fffe17 	ldw	r3,-8(fp)
 4030ff8:	e0bff617 	ldw	r2,-40(fp)
 4030ffc:	1880022e 	bgeu	r3,r2,4031008 <altera_avalon_jtag_uart_write+0xb4>
 4031000:	e0bffe17 	ldw	r2,-8(fp)
 4031004:	e0bff615 	stw	r2,-40(fp)
 4031008:	e0bffc17 	ldw	r2,-16(fp)
 403100c:	10c20e04 	addi	r3,r2,2104
 4031010:	e0bff917 	ldw	r2,-28(fp)
 4031014:	1885883a 	add	r2,r3,r2
 4031018:	e1bff617 	ldw	r6,-40(fp)
 403101c:	e17ffd17 	ldw	r5,-12(fp)
 4031020:	1009883a 	mov	r4,r2
 4031024:	402ad240 	call	402ad24 <memcpy>
 4031028:	e0fffd17 	ldw	r3,-12(fp)
 403102c:	e0bff617 	ldw	r2,-40(fp)
 4031030:	1885883a 	add	r2,r3,r2
 4031034:	e0bffd15 	stw	r2,-12(fp)
 4031038:	e0fffe17 	ldw	r3,-8(fp)
 403103c:	e0bff617 	ldw	r2,-40(fp)
 4031040:	1885c83a 	sub	r2,r3,r2
 4031044:	e0bffe15 	stw	r2,-8(fp)
 4031048:	e0fff917 	ldw	r3,-28(fp)
 403104c:	e0bff617 	ldw	r2,-40(fp)
 4031050:	1885883a 	add	r2,r3,r2
 4031054:	10c1ffcc 	andi	r3,r2,2047
 4031058:	e0bffc17 	ldw	r2,-16(fp)
 403105c:	10c00c15 	stw	r3,48(r2)
 4031060:	e0bffe17 	ldw	r2,-8(fp)
 4031064:	00bfc716 	blt	zero,r2,4030f84 <__flash_rwdata_start+0xffffe6b0>
 4031068:	00000106 	br	4031070 <altera_avalon_jtag_uart_write+0x11c>
 403106c:	0001883a 	nop
 4031070:	0005303a 	rdctl	r2,status
 4031074:	e0bffb15 	stw	r2,-20(fp)
 4031078:	e0fffb17 	ldw	r3,-20(fp)
 403107c:	00bfff84 	movi	r2,-2
 4031080:	1884703a 	and	r2,r3,r2
 4031084:	1001703a 	wrctl	status,r2
 4031088:	e0bffb17 	ldw	r2,-20(fp)
 403108c:	e0bffa15 	stw	r2,-24(fp)
 4031090:	e0bffc17 	ldw	r2,-16(fp)
 4031094:	10800817 	ldw	r2,32(r2)
 4031098:	10c00094 	ori	r3,r2,2
 403109c:	e0bffc17 	ldw	r2,-16(fp)
 40310a0:	10c00815 	stw	r3,32(r2)
 40310a4:	e0bffc17 	ldw	r2,-16(fp)
 40310a8:	10800017 	ldw	r2,0(r2)
 40310ac:	10800104 	addi	r2,r2,4
 40310b0:	1007883a 	mov	r3,r2
 40310b4:	e0bffc17 	ldw	r2,-16(fp)
 40310b8:	10800817 	ldw	r2,32(r2)
 40310bc:	18800035 	stwio	r2,0(r3)
 40310c0:	e0bffa17 	ldw	r2,-24(fp)
 40310c4:	e0bff815 	stw	r2,-32(fp)
 40310c8:	e0bff817 	ldw	r2,-32(fp)
 40310cc:	1001703a 	wrctl	status,r2
 40310d0:	e0bffe17 	ldw	r2,-8(fp)
 40310d4:	0080100e 	bge	zero,r2,4031118 <altera_avalon_jtag_uart_write+0x1c4>
 40310d8:	e0bfff17 	ldw	r2,-4(fp)
 40310dc:	1090000c 	andi	r2,r2,16384
 40310e0:	1000101e 	bne	r2,zero,4031124 <altera_avalon_jtag_uart_write+0x1d0>
 40310e4:	0001883a 	nop
 40310e8:	e0bffc17 	ldw	r2,-16(fp)
 40310ec:	10c00d17 	ldw	r3,52(r2)
 40310f0:	e0bff517 	ldw	r2,-44(fp)
 40310f4:	1880051e 	bne	r3,r2,403110c <altera_avalon_jtag_uart_write+0x1b8>
 40310f8:	e0bffc17 	ldw	r2,-16(fp)
 40310fc:	10c00917 	ldw	r3,36(r2)
 4031100:	e0bffc17 	ldw	r2,-16(fp)
 4031104:	10800117 	ldw	r2,4(r2)
 4031108:	18bff736 	bltu	r3,r2,40310e8 <__flash_rwdata_start+0xffffe814>
 403110c:	e0bffc17 	ldw	r2,-16(fp)
 4031110:	10800917 	ldw	r2,36(r2)
 4031114:	1000051e 	bne	r2,zero,403112c <altera_avalon_jtag_uart_write+0x1d8>
 4031118:	e0bffe17 	ldw	r2,-8(fp)
 403111c:	00bfd016 	blt	zero,r2,4031060 <__flash_rwdata_start+0xffffe78c>
 4031120:	00000306 	br	4031130 <altera_avalon_jtag_uart_write+0x1dc>
 4031124:	0001883a 	nop
 4031128:	00000106 	br	4031130 <altera_avalon_jtag_uart_write+0x1dc>
 403112c:	0001883a 	nop
 4031130:	e0fffd17 	ldw	r3,-12(fp)
 4031134:	e0bff717 	ldw	r2,-36(fp)
 4031138:	18800426 	beq	r3,r2,403114c <altera_avalon_jtag_uart_write+0x1f8>
 403113c:	e0fffd17 	ldw	r3,-12(fp)
 4031140:	e0bff717 	ldw	r2,-36(fp)
 4031144:	1885c83a 	sub	r2,r3,r2
 4031148:	00000606 	br	4031164 <altera_avalon_jtag_uart_write+0x210>
 403114c:	e0bfff17 	ldw	r2,-4(fp)
 4031150:	1090000c 	andi	r2,r2,16384
 4031154:	10000226 	beq	r2,zero,4031160 <altera_avalon_jtag_uart_write+0x20c>
 4031158:	00bffd44 	movi	r2,-11
 403115c:	00000106 	br	4031164 <altera_avalon_jtag_uart_write+0x210>
 4031160:	00bffec4 	movi	r2,-5
 4031164:	e037883a 	mov	sp,fp
 4031168:	dfc00117 	ldw	ra,4(sp)
 403116c:	df000017 	ldw	fp,0(sp)
 4031170:	dec00204 	addi	sp,sp,8
 4031174:	f800283a 	ret

04031178 <alt_avalon_timer_sc_irq>:
 4031178:	defffa04 	addi	sp,sp,-24
 403117c:	dfc00515 	stw	ra,20(sp)
 4031180:	df000415 	stw	fp,16(sp)
 4031184:	df000404 	addi	fp,sp,16
 4031188:	e13fff15 	stw	r4,-4(fp)
 403118c:	0007883a 	mov	r3,zero
 4031190:	e0bfff17 	ldw	r2,-4(fp)
 4031194:	10c00035 	stwio	r3,0(r2)
 4031198:	e0bfff17 	ldw	r2,-4(fp)
 403119c:	10800104 	addi	r2,r2,4
 40311a0:	10800037 	ldwio	r2,0(r2)
 40311a4:	0005303a 	rdctl	r2,status
 40311a8:	e0bffd15 	stw	r2,-12(fp)
 40311ac:	e0fffd17 	ldw	r3,-12(fp)
 40311b0:	00bfff84 	movi	r2,-2
 40311b4:	1884703a 	and	r2,r3,r2
 40311b8:	1001703a 	wrctl	status,r2
 40311bc:	e0bffd17 	ldw	r2,-12(fp)
 40311c0:	e0bffc15 	stw	r2,-16(fp)
 40311c4:	4031df00 	call	4031df0 <alt_tick>
 40311c8:	e0bffc17 	ldw	r2,-16(fp)
 40311cc:	e0bffe15 	stw	r2,-8(fp)
 40311d0:	e0bffe17 	ldw	r2,-8(fp)
 40311d4:	1001703a 	wrctl	status,r2
 40311d8:	0001883a 	nop
 40311dc:	e037883a 	mov	sp,fp
 40311e0:	dfc00117 	ldw	ra,4(sp)
 40311e4:	df000017 	ldw	fp,0(sp)
 40311e8:	dec00204 	addi	sp,sp,8
 40311ec:	f800283a 	ret

040311f0 <alt_avalon_timer_sc_init>:
 40311f0:	defff804 	addi	sp,sp,-32
 40311f4:	dfc00715 	stw	ra,28(sp)
 40311f8:	df000615 	stw	fp,24(sp)
 40311fc:	df000604 	addi	fp,sp,24
 4031200:	e13ffc15 	stw	r4,-16(fp)
 4031204:	e17ffd15 	stw	r5,-12(fp)
 4031208:	e1bffe15 	stw	r6,-8(fp)
 403120c:	e1ffff15 	stw	r7,-4(fp)
 4031210:	e0bfff17 	ldw	r2,-4(fp)
 4031214:	e0bffb15 	stw	r2,-20(fp)
 4031218:	d0a01e17 	ldw	r2,-32648(gp)
 403121c:	1000021e 	bne	r2,zero,4031228 <alt_avalon_timer_sc_init+0x38>
 4031220:	e0bffb17 	ldw	r2,-20(fp)
 4031224:	d0a01e15 	stw	r2,-32648(gp)
 4031228:	e0bffc17 	ldw	r2,-16(fp)
 403122c:	10800104 	addi	r2,r2,4
 4031230:	00c001c4 	movi	r3,7
 4031234:	10c00035 	stwio	r3,0(r2)
 4031238:	d8000015 	stw	zero,0(sp)
 403123c:	e1fffc17 	ldw	r7,-16(fp)
 4031240:	018100f4 	movhi	r6,1027
 4031244:	31845e04 	addi	r6,r6,4472
 4031248:	e17ffe17 	ldw	r5,-8(fp)
 403124c:	e13ffd17 	ldw	r4,-12(fp)
 4031250:	40316d00 	call	40316d0 <alt_ic_isr_register>
 4031254:	0001883a 	nop
 4031258:	e037883a 	mov	sp,fp
 403125c:	dfc00117 	ldw	ra,4(sp)
 4031260:	df000017 	ldw	fp,0(sp)
 4031264:	dec00204 	addi	sp,sp,8
 4031268:	f800283a 	ret

0403126c <alt_alarm_start>:
 403126c:	defff504 	addi	sp,sp,-44
 4031270:	df000a15 	stw	fp,40(sp)
 4031274:	df000a04 	addi	fp,sp,40
 4031278:	e13ffc15 	stw	r4,-16(fp)
 403127c:	e17ffd15 	stw	r5,-12(fp)
 4031280:	e1bffe15 	stw	r6,-8(fp)
 4031284:	e1ffff15 	stw	r7,-4(fp)
 4031288:	e03ff615 	stw	zero,-40(fp)
 403128c:	d0a01e17 	ldw	r2,-32648(gp)
 4031290:	10003c26 	beq	r2,zero,4031384 <alt_alarm_start+0x118>
 4031294:	e0bffc17 	ldw	r2,-16(fp)
 4031298:	10003826 	beq	r2,zero,403137c <alt_alarm_start+0x110>
 403129c:	e0bffc17 	ldw	r2,-16(fp)
 40312a0:	e0fffe17 	ldw	r3,-8(fp)
 40312a4:	10c00315 	stw	r3,12(r2)
 40312a8:	e0bffc17 	ldw	r2,-16(fp)
 40312ac:	e0ffff17 	ldw	r3,-4(fp)
 40312b0:	10c00515 	stw	r3,20(r2)
 40312b4:	0005303a 	rdctl	r2,status
 40312b8:	e0bff915 	stw	r2,-28(fp)
 40312bc:	e0fff917 	ldw	r3,-28(fp)
 40312c0:	00bfff84 	movi	r2,-2
 40312c4:	1884703a 	and	r2,r3,r2
 40312c8:	1001703a 	wrctl	status,r2
 40312cc:	e0bff917 	ldw	r2,-28(fp)
 40312d0:	e0bff815 	stw	r2,-32(fp)
 40312d4:	d0a01f17 	ldw	r2,-32644(gp)
 40312d8:	e0bff615 	stw	r2,-40(fp)
 40312dc:	e0fffd17 	ldw	r3,-12(fp)
 40312e0:	e0bff617 	ldw	r2,-40(fp)
 40312e4:	1885883a 	add	r2,r3,r2
 40312e8:	10c00044 	addi	r3,r2,1
 40312ec:	e0bffc17 	ldw	r2,-16(fp)
 40312f0:	10c00215 	stw	r3,8(r2)
 40312f4:	e0bffc17 	ldw	r2,-16(fp)
 40312f8:	10c00217 	ldw	r3,8(r2)
 40312fc:	e0bff617 	ldw	r2,-40(fp)
 4031300:	1880042e 	bgeu	r3,r2,4031314 <alt_alarm_start+0xa8>
 4031304:	e0bffc17 	ldw	r2,-16(fp)
 4031308:	00c00044 	movi	r3,1
 403130c:	10c00405 	stb	r3,16(r2)
 4031310:	00000206 	br	403131c <alt_alarm_start+0xb0>
 4031314:	e0bffc17 	ldw	r2,-16(fp)
 4031318:	10000405 	stb	zero,16(r2)
 403131c:	e0bffc17 	ldw	r2,-16(fp)
 4031320:	d0e00f04 	addi	r3,gp,-32708
 4031324:	e0fffa15 	stw	r3,-24(fp)
 4031328:	e0bffb15 	stw	r2,-20(fp)
 403132c:	e0bffb17 	ldw	r2,-20(fp)
 4031330:	e0fffa17 	ldw	r3,-24(fp)
 4031334:	10c00115 	stw	r3,4(r2)
 4031338:	e0bffa17 	ldw	r2,-24(fp)
 403133c:	10c00017 	ldw	r3,0(r2)
 4031340:	e0bffb17 	ldw	r2,-20(fp)
 4031344:	10c00015 	stw	r3,0(r2)
 4031348:	e0bffa17 	ldw	r2,-24(fp)
 403134c:	10800017 	ldw	r2,0(r2)
 4031350:	e0fffb17 	ldw	r3,-20(fp)
 4031354:	10c00115 	stw	r3,4(r2)
 4031358:	e0bffa17 	ldw	r2,-24(fp)
 403135c:	e0fffb17 	ldw	r3,-20(fp)
 4031360:	10c00015 	stw	r3,0(r2)
 4031364:	e0bff817 	ldw	r2,-32(fp)
 4031368:	e0bff715 	stw	r2,-36(fp)
 403136c:	e0bff717 	ldw	r2,-36(fp)
 4031370:	1001703a 	wrctl	status,r2
 4031374:	0005883a 	mov	r2,zero
 4031378:	00000306 	br	4031388 <alt_alarm_start+0x11c>
 403137c:	00bffa84 	movi	r2,-22
 4031380:	00000106 	br	4031388 <alt_alarm_start+0x11c>
 4031384:	00bfde84 	movi	r2,-134
 4031388:	e037883a 	mov	sp,fp
 403138c:	df000017 	ldw	fp,0(sp)
 4031390:	dec00104 	addi	sp,sp,4
 4031394:	f800283a 	ret

04031398 <alt_busy_sleep>:
 4031398:	defffa04 	addi	sp,sp,-24
 403139c:	dfc00515 	stw	ra,20(sp)
 40313a0:	df000415 	stw	fp,16(sp)
 40313a4:	df000404 	addi	fp,sp,16
 40313a8:	e13fff15 	stw	r4,-4(fp)
 40313ac:	00800244 	movi	r2,9
 40313b0:	e0bffd15 	stw	r2,-12(fp)
 40313b4:	014003f4 	movhi	r5,15
 40313b8:	29509004 	addi	r5,r5,16960
 40313bc:	e13ffd17 	ldw	r4,-12(fp)
 40313c0:	402572c0 	call	402572c <__mulsi3>
 40313c4:	100b883a 	mov	r5,r2
 40313c8:	01017db4 	movhi	r4,1526
 40313cc:	21384004 	addi	r4,r4,-7936
 40313d0:	40256700 	call	4025670 <__udivsi3>
 40313d4:	100b883a 	mov	r5,r2
 40313d8:	01200034 	movhi	r4,32768
 40313dc:	213fffc4 	addi	r4,r4,-1
 40313e0:	40256700 	call	4025670 <__udivsi3>
 40313e4:	100b883a 	mov	r5,r2
 40313e8:	e13fff17 	ldw	r4,-4(fp)
 40313ec:	40256700 	call	4025670 <__udivsi3>
 40313f0:	e0bffe15 	stw	r2,-8(fp)
 40313f4:	e0bffe17 	ldw	r2,-8(fp)
 40313f8:	10002a26 	beq	r2,zero,40314a4 <alt_busy_sleep+0x10c>
 40313fc:	e03ffc15 	stw	zero,-16(fp)
 4031400:	00001706 	br	4031460 <alt_busy_sleep+0xc8>
 4031404:	00a00034 	movhi	r2,32768
 4031408:	10bfffc4 	addi	r2,r2,-1
 403140c:	10bfffc4 	addi	r2,r2,-1
 4031410:	103ffe1e 	bne	r2,zero,403140c <__flash_rwdata_start+0xffffeb38>
 4031414:	014003f4 	movhi	r5,15
 4031418:	29509004 	addi	r5,r5,16960
 403141c:	e13ffd17 	ldw	r4,-12(fp)
 4031420:	402572c0 	call	402572c <__mulsi3>
 4031424:	100b883a 	mov	r5,r2
 4031428:	01017db4 	movhi	r4,1526
 403142c:	21384004 	addi	r4,r4,-7936
 4031430:	40256700 	call	4025670 <__udivsi3>
 4031434:	100b883a 	mov	r5,r2
 4031438:	01200034 	movhi	r4,32768
 403143c:	213fffc4 	addi	r4,r4,-1
 4031440:	40256700 	call	4025670 <__udivsi3>
 4031444:	1007883a 	mov	r3,r2
 4031448:	e0bfff17 	ldw	r2,-4(fp)
 403144c:	10c5c83a 	sub	r2,r2,r3
 4031450:	e0bfff15 	stw	r2,-4(fp)
 4031454:	e0bffc17 	ldw	r2,-16(fp)
 4031458:	10800044 	addi	r2,r2,1
 403145c:	e0bffc15 	stw	r2,-16(fp)
 4031460:	e0fffc17 	ldw	r3,-16(fp)
 4031464:	e0bffe17 	ldw	r2,-8(fp)
 4031468:	18bfe616 	blt	r3,r2,4031404 <__flash_rwdata_start+0xffffeb30>
 403146c:	014003f4 	movhi	r5,15
 4031470:	29509004 	addi	r5,r5,16960
 4031474:	e13ffd17 	ldw	r4,-12(fp)
 4031478:	402572c0 	call	402572c <__mulsi3>
 403147c:	100b883a 	mov	r5,r2
 4031480:	01017db4 	movhi	r4,1526
 4031484:	21384004 	addi	r4,r4,-7936
 4031488:	40256700 	call	4025670 <__udivsi3>
 403148c:	e17fff17 	ldw	r5,-4(fp)
 4031490:	1009883a 	mov	r4,r2
 4031494:	402572c0 	call	402572c <__mulsi3>
 4031498:	10bfffc4 	addi	r2,r2,-1
 403149c:	103ffe1e 	bne	r2,zero,4031498 <__flash_rwdata_start+0xffffebc4>
 40314a0:	00000d06 	br	40314d8 <alt_busy_sleep+0x140>
 40314a4:	014003f4 	movhi	r5,15
 40314a8:	29509004 	addi	r5,r5,16960
 40314ac:	e13ffd17 	ldw	r4,-12(fp)
 40314b0:	402572c0 	call	402572c <__mulsi3>
 40314b4:	100b883a 	mov	r5,r2
 40314b8:	01017db4 	movhi	r4,1526
 40314bc:	21384004 	addi	r4,r4,-7936
 40314c0:	40256700 	call	4025670 <__udivsi3>
 40314c4:	e17fff17 	ldw	r5,-4(fp)
 40314c8:	1009883a 	mov	r4,r2
 40314cc:	402572c0 	call	402572c <__mulsi3>
 40314d0:	10bfffc4 	addi	r2,r2,-1
 40314d4:	00bffe16 	blt	zero,r2,40314d0 <__flash_rwdata_start+0xffffebfc>
 40314d8:	0005883a 	mov	r2,zero
 40314dc:	e037883a 	mov	sp,fp
 40314e0:	dfc00117 	ldw	ra,4(sp)
 40314e4:	df000017 	ldw	fp,0(sp)
 40314e8:	dec00204 	addi	sp,sp,8
 40314ec:	f800283a 	ret

040314f0 <alt_dcache_flush_all>:
 40314f0:	deffff04 	addi	sp,sp,-4
 40314f4:	df000015 	stw	fp,0(sp)
 40314f8:	d839883a 	mov	fp,sp
 40314fc:	0001883a 	nop
 4031500:	e037883a 	mov	sp,fp
 4031504:	df000017 	ldw	fp,0(sp)
 4031508:	dec00104 	addi	sp,sp,4
 403150c:	f800283a 	ret

04031510 <alt_get_errno>:
 4031510:	defffe04 	addi	sp,sp,-8
 4031514:	dfc00115 	stw	ra,4(sp)
 4031518:	df000015 	stw	fp,0(sp)
 403151c:	d839883a 	mov	fp,sp
 4031520:	d0a00c17 	ldw	r2,-32720(gp)
 4031524:	10000326 	beq	r2,zero,4031534 <alt_get_errno+0x24>
 4031528:	d0a00c17 	ldw	r2,-32720(gp)
 403152c:	103ee83a 	callr	r2
 4031530:	00000106 	br	4031538 <alt_get_errno+0x28>
 4031534:	d0a01904 	addi	r2,gp,-32668
 4031538:	e037883a 	mov	sp,fp
 403153c:	dfc00117 	ldw	ra,4(sp)
 4031540:	df000017 	ldw	fp,0(sp)
 4031544:	dec00204 	addi	sp,sp,8
 4031548:	f800283a 	ret

0403154c <alt_dev_llist_insert>:
 403154c:	defffa04 	addi	sp,sp,-24
 4031550:	dfc00515 	stw	ra,20(sp)
 4031554:	df000415 	stw	fp,16(sp)
 4031558:	df000404 	addi	fp,sp,16
 403155c:	e13ffe15 	stw	r4,-8(fp)
 4031560:	e17fff15 	stw	r5,-4(fp)
 4031564:	e0bffe17 	ldw	r2,-8(fp)
 4031568:	10000326 	beq	r2,zero,4031578 <alt_dev_llist_insert+0x2c>
 403156c:	e0bffe17 	ldw	r2,-8(fp)
 4031570:	10800217 	ldw	r2,8(r2)
 4031574:	1000061e 	bne	r2,zero,4031590 <alt_dev_llist_insert+0x44>
 4031578:	40315100 	call	4031510 <alt_get_errno>
 403157c:	1007883a 	mov	r3,r2
 4031580:	00800584 	movi	r2,22
 4031584:	18800015 	stw	r2,0(r3)
 4031588:	00bffa84 	movi	r2,-22
 403158c:	00001306 	br	40315dc <alt_dev_llist_insert+0x90>
 4031590:	e0bffe17 	ldw	r2,-8(fp)
 4031594:	e0ffff17 	ldw	r3,-4(fp)
 4031598:	e0fffc15 	stw	r3,-16(fp)
 403159c:	e0bffd15 	stw	r2,-12(fp)
 40315a0:	e0bffd17 	ldw	r2,-12(fp)
 40315a4:	e0fffc17 	ldw	r3,-16(fp)
 40315a8:	10c00115 	stw	r3,4(r2)
 40315ac:	e0bffc17 	ldw	r2,-16(fp)
 40315b0:	10c00017 	ldw	r3,0(r2)
 40315b4:	e0bffd17 	ldw	r2,-12(fp)
 40315b8:	10c00015 	stw	r3,0(r2)
 40315bc:	e0bffc17 	ldw	r2,-16(fp)
 40315c0:	10800017 	ldw	r2,0(r2)
 40315c4:	e0fffd17 	ldw	r3,-12(fp)
 40315c8:	10c00115 	stw	r3,4(r2)
 40315cc:	e0bffc17 	ldw	r2,-16(fp)
 40315d0:	e0fffd17 	ldw	r3,-12(fp)
 40315d4:	10c00015 	stw	r3,0(r2)
 40315d8:	0005883a 	mov	r2,zero
 40315dc:	e037883a 	mov	sp,fp
 40315e0:	dfc00117 	ldw	ra,4(sp)
 40315e4:	df000017 	ldw	fp,0(sp)
 40315e8:	dec00204 	addi	sp,sp,8
 40315ec:	f800283a 	ret

040315f0 <_do_ctors>:
 40315f0:	defffd04 	addi	sp,sp,-12
 40315f4:	dfc00215 	stw	ra,8(sp)
 40315f8:	df000115 	stw	fp,4(sp)
 40315fc:	df000104 	addi	fp,sp,4
 4031600:	008100f4 	movhi	r2,1027
 4031604:	10896904 	addi	r2,r2,9636
 4031608:	e0bfff15 	stw	r2,-4(fp)
 403160c:	00000606 	br	4031628 <_do_ctors+0x38>
 4031610:	e0bfff17 	ldw	r2,-4(fp)
 4031614:	10800017 	ldw	r2,0(r2)
 4031618:	103ee83a 	callr	r2
 403161c:	e0bfff17 	ldw	r2,-4(fp)
 4031620:	10bfff04 	addi	r2,r2,-4
 4031624:	e0bfff15 	stw	r2,-4(fp)
 4031628:	e0ffff17 	ldw	r3,-4(fp)
 403162c:	008100f4 	movhi	r2,1027
 4031630:	10896a04 	addi	r2,r2,9640
 4031634:	18bff62e 	bgeu	r3,r2,4031610 <__flash_rwdata_start+0xffffed3c>
 4031638:	0001883a 	nop
 403163c:	e037883a 	mov	sp,fp
 4031640:	dfc00117 	ldw	ra,4(sp)
 4031644:	df000017 	ldw	fp,0(sp)
 4031648:	dec00204 	addi	sp,sp,8
 403164c:	f800283a 	ret

04031650 <_do_dtors>:
 4031650:	defffd04 	addi	sp,sp,-12
 4031654:	dfc00215 	stw	ra,8(sp)
 4031658:	df000115 	stw	fp,4(sp)
 403165c:	df000104 	addi	fp,sp,4
 4031660:	008100f4 	movhi	r2,1027
 4031664:	10896904 	addi	r2,r2,9636
 4031668:	e0bfff15 	stw	r2,-4(fp)
 403166c:	00000606 	br	4031688 <_do_dtors+0x38>
 4031670:	e0bfff17 	ldw	r2,-4(fp)
 4031674:	10800017 	ldw	r2,0(r2)
 4031678:	103ee83a 	callr	r2
 403167c:	e0bfff17 	ldw	r2,-4(fp)
 4031680:	10bfff04 	addi	r2,r2,-4
 4031684:	e0bfff15 	stw	r2,-4(fp)
 4031688:	e0ffff17 	ldw	r3,-4(fp)
 403168c:	008100f4 	movhi	r2,1027
 4031690:	10896a04 	addi	r2,r2,9640
 4031694:	18bff62e 	bgeu	r3,r2,4031670 <__flash_rwdata_start+0xffffed9c>
 4031698:	0001883a 	nop
 403169c:	e037883a 	mov	sp,fp
 40316a0:	dfc00117 	ldw	ra,4(sp)
 40316a4:	df000017 	ldw	fp,0(sp)
 40316a8:	dec00204 	addi	sp,sp,8
 40316ac:	f800283a 	ret

040316b0 <alt_icache_flush_all>:
 40316b0:	deffff04 	addi	sp,sp,-4
 40316b4:	df000015 	stw	fp,0(sp)
 40316b8:	d839883a 	mov	fp,sp
 40316bc:	0001883a 	nop
 40316c0:	e037883a 	mov	sp,fp
 40316c4:	df000017 	ldw	fp,0(sp)
 40316c8:	dec00104 	addi	sp,sp,4
 40316cc:	f800283a 	ret

040316d0 <alt_ic_isr_register>:
 40316d0:	defff904 	addi	sp,sp,-28
 40316d4:	dfc00615 	stw	ra,24(sp)
 40316d8:	df000515 	stw	fp,20(sp)
 40316dc:	df000504 	addi	fp,sp,20
 40316e0:	e13ffc15 	stw	r4,-16(fp)
 40316e4:	e17ffd15 	stw	r5,-12(fp)
 40316e8:	e1bffe15 	stw	r6,-8(fp)
 40316ec:	e1ffff15 	stw	r7,-4(fp)
 40316f0:	e0800217 	ldw	r2,8(fp)
 40316f4:	d8800015 	stw	r2,0(sp)
 40316f8:	e1ffff17 	ldw	r7,-4(fp)
 40316fc:	e1bffe17 	ldw	r6,-8(fp)
 4031700:	e17ffd17 	ldw	r5,-12(fp)
 4031704:	e13ffc17 	ldw	r4,-16(fp)
 4031708:	40318800 	call	4031880 <alt_iic_isr_register>
 403170c:	e037883a 	mov	sp,fp
 4031710:	dfc00117 	ldw	ra,4(sp)
 4031714:	df000017 	ldw	fp,0(sp)
 4031718:	dec00204 	addi	sp,sp,8
 403171c:	f800283a 	ret

04031720 <alt_ic_irq_enable>:
 4031720:	defff904 	addi	sp,sp,-28
 4031724:	df000615 	stw	fp,24(sp)
 4031728:	df000604 	addi	fp,sp,24
 403172c:	e13ffe15 	stw	r4,-8(fp)
 4031730:	e17fff15 	stw	r5,-4(fp)
 4031734:	e0bfff17 	ldw	r2,-4(fp)
 4031738:	e0bffa15 	stw	r2,-24(fp)
 403173c:	0005303a 	rdctl	r2,status
 4031740:	e0bffb15 	stw	r2,-20(fp)
 4031744:	e0fffb17 	ldw	r3,-20(fp)
 4031748:	00bfff84 	movi	r2,-2
 403174c:	1884703a 	and	r2,r3,r2
 4031750:	1001703a 	wrctl	status,r2
 4031754:	e0bffb17 	ldw	r2,-20(fp)
 4031758:	e0bffc15 	stw	r2,-16(fp)
 403175c:	00c00044 	movi	r3,1
 4031760:	e0bffa17 	ldw	r2,-24(fp)
 4031764:	1884983a 	sll	r2,r3,r2
 4031768:	1007883a 	mov	r3,r2
 403176c:	d0a01d17 	ldw	r2,-32652(gp)
 4031770:	1884b03a 	or	r2,r3,r2
 4031774:	d0a01d15 	stw	r2,-32652(gp)
 4031778:	d0a01d17 	ldw	r2,-32652(gp)
 403177c:	100170fa 	wrctl	ienable,r2
 4031780:	e0bffc17 	ldw	r2,-16(fp)
 4031784:	e0bffd15 	stw	r2,-12(fp)
 4031788:	e0bffd17 	ldw	r2,-12(fp)
 403178c:	1001703a 	wrctl	status,r2
 4031790:	0005883a 	mov	r2,zero
 4031794:	0001883a 	nop
 4031798:	e037883a 	mov	sp,fp
 403179c:	df000017 	ldw	fp,0(sp)
 40317a0:	dec00104 	addi	sp,sp,4
 40317a4:	f800283a 	ret

040317a8 <alt_ic_irq_disable>:
 40317a8:	defff904 	addi	sp,sp,-28
 40317ac:	df000615 	stw	fp,24(sp)
 40317b0:	df000604 	addi	fp,sp,24
 40317b4:	e13ffe15 	stw	r4,-8(fp)
 40317b8:	e17fff15 	stw	r5,-4(fp)
 40317bc:	e0bfff17 	ldw	r2,-4(fp)
 40317c0:	e0bffa15 	stw	r2,-24(fp)
 40317c4:	0005303a 	rdctl	r2,status
 40317c8:	e0bffb15 	stw	r2,-20(fp)
 40317cc:	e0fffb17 	ldw	r3,-20(fp)
 40317d0:	00bfff84 	movi	r2,-2
 40317d4:	1884703a 	and	r2,r3,r2
 40317d8:	1001703a 	wrctl	status,r2
 40317dc:	e0bffb17 	ldw	r2,-20(fp)
 40317e0:	e0bffc15 	stw	r2,-16(fp)
 40317e4:	00c00044 	movi	r3,1
 40317e8:	e0bffa17 	ldw	r2,-24(fp)
 40317ec:	1884983a 	sll	r2,r3,r2
 40317f0:	0084303a 	nor	r2,zero,r2
 40317f4:	1007883a 	mov	r3,r2
 40317f8:	d0a01d17 	ldw	r2,-32652(gp)
 40317fc:	1884703a 	and	r2,r3,r2
 4031800:	d0a01d15 	stw	r2,-32652(gp)
 4031804:	d0a01d17 	ldw	r2,-32652(gp)
 4031808:	100170fa 	wrctl	ienable,r2
 403180c:	e0bffc17 	ldw	r2,-16(fp)
 4031810:	e0bffd15 	stw	r2,-12(fp)
 4031814:	e0bffd17 	ldw	r2,-12(fp)
 4031818:	1001703a 	wrctl	status,r2
 403181c:	0005883a 	mov	r2,zero
 4031820:	0001883a 	nop
 4031824:	e037883a 	mov	sp,fp
 4031828:	df000017 	ldw	fp,0(sp)
 403182c:	dec00104 	addi	sp,sp,4
 4031830:	f800283a 	ret

04031834 <alt_ic_irq_enabled>:
 4031834:	defffc04 	addi	sp,sp,-16
 4031838:	df000315 	stw	fp,12(sp)
 403183c:	df000304 	addi	fp,sp,12
 4031840:	e13ffe15 	stw	r4,-8(fp)
 4031844:	e17fff15 	stw	r5,-4(fp)
 4031848:	000530fa 	rdctl	r2,ienable
 403184c:	e0bffd15 	stw	r2,-12(fp)
 4031850:	00c00044 	movi	r3,1
 4031854:	e0bfff17 	ldw	r2,-4(fp)
 4031858:	1884983a 	sll	r2,r3,r2
 403185c:	1007883a 	mov	r3,r2
 4031860:	e0bffd17 	ldw	r2,-12(fp)
 4031864:	1884703a 	and	r2,r3,r2
 4031868:	1004c03a 	cmpne	r2,r2,zero
 403186c:	10803fcc 	andi	r2,r2,255
 4031870:	e037883a 	mov	sp,fp
 4031874:	df000017 	ldw	fp,0(sp)
 4031878:	dec00104 	addi	sp,sp,4
 403187c:	f800283a 	ret

04031880 <alt_iic_isr_register>:
 4031880:	defff504 	addi	sp,sp,-44
 4031884:	dfc00a15 	stw	ra,40(sp)
 4031888:	df000915 	stw	fp,36(sp)
 403188c:	df000904 	addi	fp,sp,36
 4031890:	e13ffc15 	stw	r4,-16(fp)
 4031894:	e17ffd15 	stw	r5,-12(fp)
 4031898:	e1bffe15 	stw	r6,-8(fp)
 403189c:	e1ffff15 	stw	r7,-4(fp)
 40318a0:	00bffa84 	movi	r2,-22
 40318a4:	e0bff715 	stw	r2,-36(fp)
 40318a8:	e0bffd17 	ldw	r2,-12(fp)
 40318ac:	e0bff815 	stw	r2,-32(fp)
 40318b0:	e0bff817 	ldw	r2,-32(fp)
 40318b4:	10800808 	cmpgei	r2,r2,32
 40318b8:	1000271e 	bne	r2,zero,4031958 <alt_iic_isr_register+0xd8>
 40318bc:	0005303a 	rdctl	r2,status
 40318c0:	e0bffb15 	stw	r2,-20(fp)
 40318c4:	e0fffb17 	ldw	r3,-20(fp)
 40318c8:	00bfff84 	movi	r2,-2
 40318cc:	1884703a 	and	r2,r3,r2
 40318d0:	1001703a 	wrctl	status,r2
 40318d4:	e0bffb17 	ldw	r2,-20(fp)
 40318d8:	e0bffa15 	stw	r2,-24(fp)
 40318dc:	00800034 	movhi	r2,0
 40318e0:	1087b004 	addi	r2,r2,7872
 40318e4:	e0fff817 	ldw	r3,-32(fp)
 40318e8:	180690fa 	slli	r3,r3,3
 40318ec:	10c5883a 	add	r2,r2,r3
 40318f0:	e0fffe17 	ldw	r3,-8(fp)
 40318f4:	10c00015 	stw	r3,0(r2)
 40318f8:	00800034 	movhi	r2,0
 40318fc:	1087b004 	addi	r2,r2,7872
 4031900:	e0fff817 	ldw	r3,-32(fp)
 4031904:	180690fa 	slli	r3,r3,3
 4031908:	10c5883a 	add	r2,r2,r3
 403190c:	10800104 	addi	r2,r2,4
 4031910:	e0ffff17 	ldw	r3,-4(fp)
 4031914:	10c00015 	stw	r3,0(r2)
 4031918:	e0bffe17 	ldw	r2,-8(fp)
 403191c:	10000526 	beq	r2,zero,4031934 <alt_iic_isr_register+0xb4>
 4031920:	e0bff817 	ldw	r2,-32(fp)
 4031924:	100b883a 	mov	r5,r2
 4031928:	e13ffc17 	ldw	r4,-16(fp)
 403192c:	40317200 	call	4031720 <alt_ic_irq_enable>
 4031930:	00000406 	br	4031944 <alt_iic_isr_register+0xc4>
 4031934:	e0bff817 	ldw	r2,-32(fp)
 4031938:	100b883a 	mov	r5,r2
 403193c:	e13ffc17 	ldw	r4,-16(fp)
 4031940:	40317a80 	call	40317a8 <alt_ic_irq_disable>
 4031944:	e0bff715 	stw	r2,-36(fp)
 4031948:	e0bffa17 	ldw	r2,-24(fp)
 403194c:	e0bff915 	stw	r2,-28(fp)
 4031950:	e0bff917 	ldw	r2,-28(fp)
 4031954:	1001703a 	wrctl	status,r2
 4031958:	e0bff717 	ldw	r2,-36(fp)
 403195c:	e037883a 	mov	sp,fp
 4031960:	dfc00117 	ldw	ra,4(sp)
 4031964:	df000017 	ldw	fp,0(sp)
 4031968:	dec00204 	addi	sp,sp,8
 403196c:	f800283a 	ret

04031970 <alt_open_fd>:
 4031970:	defff804 	addi	sp,sp,-32
 4031974:	dfc00715 	stw	ra,28(sp)
 4031978:	df000615 	stw	fp,24(sp)
 403197c:	dc000515 	stw	r16,20(sp)
 4031980:	df000604 	addi	fp,sp,24
 4031984:	e13ffb15 	stw	r4,-20(fp)
 4031988:	e17ffc15 	stw	r5,-16(fp)
 403198c:	e1bffd15 	stw	r6,-12(fp)
 4031990:	e1fffe15 	stw	r7,-8(fp)
 4031994:	e1bffe17 	ldw	r6,-8(fp)
 4031998:	e17ffd17 	ldw	r5,-12(fp)
 403199c:	e13ffc17 	ldw	r4,-16(fp)
 40319a0:	4031bf80 	call	4031bf8 <open>
 40319a4:	e0bffa15 	stw	r2,-24(fp)
 40319a8:	e0bffa17 	ldw	r2,-24(fp)
 40319ac:	10002216 	blt	r2,zero,4031a38 <alt_open_fd+0xc8>
 40319b0:	04000034 	movhi	r16,0
 40319b4:	8402fe04 	addi	r16,r16,3064
 40319b8:	e0bffa17 	ldw	r2,-24(fp)
 40319bc:	01400304 	movi	r5,12
 40319c0:	1009883a 	mov	r4,r2
 40319c4:	402572c0 	call	402572c <__mulsi3>
 40319c8:	8085883a 	add	r2,r16,r2
 40319cc:	10c00017 	ldw	r3,0(r2)
 40319d0:	e0bffb17 	ldw	r2,-20(fp)
 40319d4:	10c00015 	stw	r3,0(r2)
 40319d8:	04000034 	movhi	r16,0
 40319dc:	8402fe04 	addi	r16,r16,3064
 40319e0:	e0bffa17 	ldw	r2,-24(fp)
 40319e4:	01400304 	movi	r5,12
 40319e8:	1009883a 	mov	r4,r2
 40319ec:	402572c0 	call	402572c <__mulsi3>
 40319f0:	8085883a 	add	r2,r16,r2
 40319f4:	10800104 	addi	r2,r2,4
 40319f8:	10c00017 	ldw	r3,0(r2)
 40319fc:	e0bffb17 	ldw	r2,-20(fp)
 4031a00:	10c00115 	stw	r3,4(r2)
 4031a04:	04000034 	movhi	r16,0
 4031a08:	8402fe04 	addi	r16,r16,3064
 4031a0c:	e0bffa17 	ldw	r2,-24(fp)
 4031a10:	01400304 	movi	r5,12
 4031a14:	1009883a 	mov	r4,r2
 4031a18:	402572c0 	call	402572c <__mulsi3>
 4031a1c:	8085883a 	add	r2,r16,r2
 4031a20:	10800204 	addi	r2,r2,8
 4031a24:	10c00017 	ldw	r3,0(r2)
 4031a28:	e0bffb17 	ldw	r2,-20(fp)
 4031a2c:	10c00215 	stw	r3,8(r2)
 4031a30:	e13ffa17 	ldw	r4,-24(fp)
 4031a34:	40303a40 	call	40303a4 <alt_release_fd>
 4031a38:	0001883a 	nop
 4031a3c:	e6ffff04 	addi	sp,fp,-4
 4031a40:	dfc00217 	ldw	ra,8(sp)
 4031a44:	df000117 	ldw	fp,4(sp)
 4031a48:	dc000017 	ldw	r16,0(sp)
 4031a4c:	dec00304 	addi	sp,sp,12
 4031a50:	f800283a 	ret

04031a54 <alt_io_redirect>:
 4031a54:	defffb04 	addi	sp,sp,-20
 4031a58:	dfc00415 	stw	ra,16(sp)
 4031a5c:	df000315 	stw	fp,12(sp)
 4031a60:	df000304 	addi	fp,sp,12
 4031a64:	e13ffd15 	stw	r4,-12(fp)
 4031a68:	e17ffe15 	stw	r5,-8(fp)
 4031a6c:	e1bfff15 	stw	r6,-4(fp)
 4031a70:	01c07fc4 	movi	r7,511
 4031a74:	01800044 	movi	r6,1
 4031a78:	e17ffd17 	ldw	r5,-12(fp)
 4031a7c:	01000034 	movhi	r4,0
 4031a80:	21030104 	addi	r4,r4,3076
 4031a84:	40319700 	call	4031970 <alt_open_fd>
 4031a88:	01c07fc4 	movi	r7,511
 4031a8c:	000d883a 	mov	r6,zero
 4031a90:	e17ffe17 	ldw	r5,-8(fp)
 4031a94:	01000034 	movhi	r4,0
 4031a98:	2102fe04 	addi	r4,r4,3064
 4031a9c:	40319700 	call	4031970 <alt_open_fd>
 4031aa0:	01c07fc4 	movi	r7,511
 4031aa4:	01800044 	movi	r6,1
 4031aa8:	e17fff17 	ldw	r5,-4(fp)
 4031aac:	01000034 	movhi	r4,0
 4031ab0:	21030404 	addi	r4,r4,3088
 4031ab4:	40319700 	call	4031970 <alt_open_fd>
 4031ab8:	0001883a 	nop
 4031abc:	e037883a 	mov	sp,fp
 4031ac0:	dfc00117 	ldw	ra,4(sp)
 4031ac4:	df000017 	ldw	fp,0(sp)
 4031ac8:	dec00204 	addi	sp,sp,8
 4031acc:	f800283a 	ret

04031ad0 <alt_get_errno>:
 4031ad0:	defffe04 	addi	sp,sp,-8
 4031ad4:	dfc00115 	stw	ra,4(sp)
 4031ad8:	df000015 	stw	fp,0(sp)
 4031adc:	d839883a 	mov	fp,sp
 4031ae0:	d0a00c17 	ldw	r2,-32720(gp)
 4031ae4:	10000326 	beq	r2,zero,4031af4 <alt_get_errno+0x24>
 4031ae8:	d0a00c17 	ldw	r2,-32720(gp)
 4031aec:	103ee83a 	callr	r2
 4031af0:	00000106 	br	4031af8 <alt_get_errno+0x28>
 4031af4:	d0a01904 	addi	r2,gp,-32668
 4031af8:	e037883a 	mov	sp,fp
 4031afc:	dfc00117 	ldw	ra,4(sp)
 4031b00:	df000017 	ldw	fp,0(sp)
 4031b04:	dec00204 	addi	sp,sp,8
 4031b08:	f800283a 	ret

04031b0c <alt_file_locked>:
 4031b0c:	defffb04 	addi	sp,sp,-20
 4031b10:	dfc00415 	stw	ra,16(sp)
 4031b14:	df000315 	stw	fp,12(sp)
 4031b18:	dc000215 	stw	r16,8(sp)
 4031b1c:	df000304 	addi	fp,sp,12
 4031b20:	e13ffe15 	stw	r4,-8(fp)
 4031b24:	e0bffe17 	ldw	r2,-8(fp)
 4031b28:	10800217 	ldw	r2,8(r2)
 4031b2c:	10d00034 	orhi	r3,r2,16384
 4031b30:	e0bffe17 	ldw	r2,-8(fp)
 4031b34:	10c00215 	stw	r3,8(r2)
 4031b38:	e03ffd15 	stw	zero,-12(fp)
 4031b3c:	00002306 	br	4031bcc <alt_file_locked+0xc0>
 4031b40:	04000034 	movhi	r16,0
 4031b44:	8402fe04 	addi	r16,r16,3064
 4031b48:	e0bffd17 	ldw	r2,-12(fp)
 4031b4c:	01400304 	movi	r5,12
 4031b50:	1009883a 	mov	r4,r2
 4031b54:	402572c0 	call	402572c <__mulsi3>
 4031b58:	8085883a 	add	r2,r16,r2
 4031b5c:	10c00017 	ldw	r3,0(r2)
 4031b60:	e0bffe17 	ldw	r2,-8(fp)
 4031b64:	10800017 	ldw	r2,0(r2)
 4031b68:	1880151e 	bne	r3,r2,4031bc0 <alt_file_locked+0xb4>
 4031b6c:	04000034 	movhi	r16,0
 4031b70:	8402fe04 	addi	r16,r16,3064
 4031b74:	e0bffd17 	ldw	r2,-12(fp)
 4031b78:	01400304 	movi	r5,12
 4031b7c:	1009883a 	mov	r4,r2
 4031b80:	402572c0 	call	402572c <__mulsi3>
 4031b84:	8085883a 	add	r2,r16,r2
 4031b88:	10800204 	addi	r2,r2,8
 4031b8c:	10800017 	ldw	r2,0(r2)
 4031b90:	10000b0e 	bge	r2,zero,4031bc0 <alt_file_locked+0xb4>
 4031b94:	01400304 	movi	r5,12
 4031b98:	e13ffd17 	ldw	r4,-12(fp)
 4031b9c:	402572c0 	call	402572c <__mulsi3>
 4031ba0:	1007883a 	mov	r3,r2
 4031ba4:	00800034 	movhi	r2,0
 4031ba8:	1082fe04 	addi	r2,r2,3064
 4031bac:	1887883a 	add	r3,r3,r2
 4031bb0:	e0bffe17 	ldw	r2,-8(fp)
 4031bb4:	18800226 	beq	r3,r2,4031bc0 <alt_file_locked+0xb4>
 4031bb8:	00bffcc4 	movi	r2,-13
 4031bbc:	00000806 	br	4031be0 <alt_file_locked+0xd4>
 4031bc0:	e0bffd17 	ldw	r2,-12(fp)
 4031bc4:	10800044 	addi	r2,r2,1
 4031bc8:	e0bffd15 	stw	r2,-12(fp)
 4031bcc:	d0a00b17 	ldw	r2,-32724(gp)
 4031bd0:	1007883a 	mov	r3,r2
 4031bd4:	e0bffd17 	ldw	r2,-12(fp)
 4031bd8:	18bfd92e 	bgeu	r3,r2,4031b40 <__flash_rwdata_start+0xfffff26c>
 4031bdc:	0005883a 	mov	r2,zero
 4031be0:	e6ffff04 	addi	sp,fp,-4
 4031be4:	dfc00217 	ldw	ra,8(sp)
 4031be8:	df000117 	ldw	fp,4(sp)
 4031bec:	dc000017 	ldw	r16,0(sp)
 4031bf0:	dec00304 	addi	sp,sp,12
 4031bf4:	f800283a 	ret

04031bf8 <open>:
 4031bf8:	defff604 	addi	sp,sp,-40
 4031bfc:	dfc00915 	stw	ra,36(sp)
 4031c00:	df000815 	stw	fp,32(sp)
 4031c04:	df000804 	addi	fp,sp,32
 4031c08:	e13ffd15 	stw	r4,-12(fp)
 4031c0c:	e17ffe15 	stw	r5,-8(fp)
 4031c10:	e1bfff15 	stw	r6,-4(fp)
 4031c14:	00bfffc4 	movi	r2,-1
 4031c18:	e0bff915 	stw	r2,-28(fp)
 4031c1c:	00bffb44 	movi	r2,-19
 4031c20:	e0bffa15 	stw	r2,-24(fp)
 4031c24:	e03ffb15 	stw	zero,-20(fp)
 4031c28:	d1600904 	addi	r5,gp,-32732
 4031c2c:	e13ffd17 	ldw	r4,-12(fp)
 4031c30:	4031f1c0 	call	4031f1c <alt_find_dev>
 4031c34:	e0bff815 	stw	r2,-32(fp)
 4031c38:	e0bff817 	ldw	r2,-32(fp)
 4031c3c:	1000051e 	bne	r2,zero,4031c54 <open+0x5c>
 4031c40:	e13ffd17 	ldw	r4,-12(fp)
 4031c44:	4031fac0 	call	4031fac <alt_find_file>
 4031c48:	e0bff815 	stw	r2,-32(fp)
 4031c4c:	00800044 	movi	r2,1
 4031c50:	e0bffb15 	stw	r2,-20(fp)
 4031c54:	e0bff817 	ldw	r2,-32(fp)
 4031c58:	10002b26 	beq	r2,zero,4031d08 <open+0x110>
 4031c5c:	e13ff817 	ldw	r4,-32(fp)
 4031c60:	40320b40 	call	40320b4 <alt_get_fd>
 4031c64:	e0bff915 	stw	r2,-28(fp)
 4031c68:	e0bff917 	ldw	r2,-28(fp)
 4031c6c:	1000030e 	bge	r2,zero,4031c7c <open+0x84>
 4031c70:	e0bff917 	ldw	r2,-28(fp)
 4031c74:	e0bffa15 	stw	r2,-24(fp)
 4031c78:	00002506 	br	4031d10 <open+0x118>
 4031c7c:	01400304 	movi	r5,12
 4031c80:	e13ff917 	ldw	r4,-28(fp)
 4031c84:	402572c0 	call	402572c <__mulsi3>
 4031c88:	1007883a 	mov	r3,r2
 4031c8c:	00800034 	movhi	r2,0
 4031c90:	1082fe04 	addi	r2,r2,3064
 4031c94:	1885883a 	add	r2,r3,r2
 4031c98:	e0bffc15 	stw	r2,-16(fp)
 4031c9c:	e0fffe17 	ldw	r3,-8(fp)
 4031ca0:	00900034 	movhi	r2,16384
 4031ca4:	10bfffc4 	addi	r2,r2,-1
 4031ca8:	1886703a 	and	r3,r3,r2
 4031cac:	e0bffc17 	ldw	r2,-16(fp)
 4031cb0:	10c00215 	stw	r3,8(r2)
 4031cb4:	e0bffb17 	ldw	r2,-20(fp)
 4031cb8:	1000051e 	bne	r2,zero,4031cd0 <open+0xd8>
 4031cbc:	e13ffc17 	ldw	r4,-16(fp)
 4031cc0:	4031b0c0 	call	4031b0c <alt_file_locked>
 4031cc4:	e0bffa15 	stw	r2,-24(fp)
 4031cc8:	e0bffa17 	ldw	r2,-24(fp)
 4031ccc:	10001016 	blt	r2,zero,4031d10 <open+0x118>
 4031cd0:	e0bff817 	ldw	r2,-32(fp)
 4031cd4:	10800317 	ldw	r2,12(r2)
 4031cd8:	10000826 	beq	r2,zero,4031cfc <open+0x104>
 4031cdc:	e0bff817 	ldw	r2,-32(fp)
 4031ce0:	10800317 	ldw	r2,12(r2)
 4031ce4:	e1ffff17 	ldw	r7,-4(fp)
 4031ce8:	e1bffe17 	ldw	r6,-8(fp)
 4031cec:	e17ffd17 	ldw	r5,-12(fp)
 4031cf0:	e13ffc17 	ldw	r4,-16(fp)
 4031cf4:	103ee83a 	callr	r2
 4031cf8:	00000106 	br	4031d00 <open+0x108>
 4031cfc:	0005883a 	mov	r2,zero
 4031d00:	e0bffa15 	stw	r2,-24(fp)
 4031d04:	00000206 	br	4031d10 <open+0x118>
 4031d08:	00bffb44 	movi	r2,-19
 4031d0c:	e0bffa15 	stw	r2,-24(fp)
 4031d10:	e0bffa17 	ldw	r2,-24(fp)
 4031d14:	1000090e 	bge	r2,zero,4031d3c <open+0x144>
 4031d18:	e13ff917 	ldw	r4,-28(fp)
 4031d1c:	40303a40 	call	40303a4 <alt_release_fd>
 4031d20:	4031ad00 	call	4031ad0 <alt_get_errno>
 4031d24:	1007883a 	mov	r3,r2
 4031d28:	e0bffa17 	ldw	r2,-24(fp)
 4031d2c:	0085c83a 	sub	r2,zero,r2
 4031d30:	18800015 	stw	r2,0(r3)
 4031d34:	00bfffc4 	movi	r2,-1
 4031d38:	00000106 	br	4031d40 <open+0x148>
 4031d3c:	e0bff917 	ldw	r2,-28(fp)
 4031d40:	e037883a 	mov	sp,fp
 4031d44:	dfc00117 	ldw	ra,4(sp)
 4031d48:	df000017 	ldw	fp,0(sp)
 4031d4c:	dec00204 	addi	sp,sp,8
 4031d50:	f800283a 	ret

04031d54 <alt_alarm_stop>:
 4031d54:	defffa04 	addi	sp,sp,-24
 4031d58:	df000515 	stw	fp,20(sp)
 4031d5c:	df000504 	addi	fp,sp,20
 4031d60:	e13fff15 	stw	r4,-4(fp)
 4031d64:	0005303a 	rdctl	r2,status
 4031d68:	e0bffc15 	stw	r2,-16(fp)
 4031d6c:	e0fffc17 	ldw	r3,-16(fp)
 4031d70:	00bfff84 	movi	r2,-2
 4031d74:	1884703a 	and	r2,r3,r2
 4031d78:	1001703a 	wrctl	status,r2
 4031d7c:	e0bffc17 	ldw	r2,-16(fp)
 4031d80:	e0bffb15 	stw	r2,-20(fp)
 4031d84:	e0bfff17 	ldw	r2,-4(fp)
 4031d88:	e0bffd15 	stw	r2,-12(fp)
 4031d8c:	e0bffd17 	ldw	r2,-12(fp)
 4031d90:	10800017 	ldw	r2,0(r2)
 4031d94:	e0fffd17 	ldw	r3,-12(fp)
 4031d98:	18c00117 	ldw	r3,4(r3)
 4031d9c:	10c00115 	stw	r3,4(r2)
 4031da0:	e0bffd17 	ldw	r2,-12(fp)
 4031da4:	10800117 	ldw	r2,4(r2)
 4031da8:	e0fffd17 	ldw	r3,-12(fp)
 4031dac:	18c00017 	ldw	r3,0(r3)
 4031db0:	10c00015 	stw	r3,0(r2)
 4031db4:	e0bffd17 	ldw	r2,-12(fp)
 4031db8:	e0fffd17 	ldw	r3,-12(fp)
 4031dbc:	10c00115 	stw	r3,4(r2)
 4031dc0:	e0bffd17 	ldw	r2,-12(fp)
 4031dc4:	e0fffd17 	ldw	r3,-12(fp)
 4031dc8:	10c00015 	stw	r3,0(r2)
 4031dcc:	e0bffb17 	ldw	r2,-20(fp)
 4031dd0:	e0bffe15 	stw	r2,-8(fp)
 4031dd4:	e0bffe17 	ldw	r2,-8(fp)
 4031dd8:	1001703a 	wrctl	status,r2
 4031ddc:	0001883a 	nop
 4031de0:	e037883a 	mov	sp,fp
 4031de4:	df000017 	ldw	fp,0(sp)
 4031de8:	dec00104 	addi	sp,sp,4
 4031dec:	f800283a 	ret

04031df0 <alt_tick>:
 4031df0:	defffb04 	addi	sp,sp,-20
 4031df4:	dfc00415 	stw	ra,16(sp)
 4031df8:	df000315 	stw	fp,12(sp)
 4031dfc:	df000304 	addi	fp,sp,12
 4031e00:	d0a00f17 	ldw	r2,-32708(gp)
 4031e04:	e0bffd15 	stw	r2,-12(fp)
 4031e08:	d0a01f17 	ldw	r2,-32644(gp)
 4031e0c:	10800044 	addi	r2,r2,1
 4031e10:	d0a01f15 	stw	r2,-32644(gp)
 4031e14:	00002e06 	br	4031ed0 <alt_tick+0xe0>
 4031e18:	e0bffd17 	ldw	r2,-12(fp)
 4031e1c:	10800017 	ldw	r2,0(r2)
 4031e20:	e0bffe15 	stw	r2,-8(fp)
 4031e24:	e0bffd17 	ldw	r2,-12(fp)
 4031e28:	10800403 	ldbu	r2,16(r2)
 4031e2c:	10803fcc 	andi	r2,r2,255
 4031e30:	10000426 	beq	r2,zero,4031e44 <alt_tick+0x54>
 4031e34:	d0a01f17 	ldw	r2,-32644(gp)
 4031e38:	1000021e 	bne	r2,zero,4031e44 <alt_tick+0x54>
 4031e3c:	e0bffd17 	ldw	r2,-12(fp)
 4031e40:	10000405 	stb	zero,16(r2)
 4031e44:	e0bffd17 	ldw	r2,-12(fp)
 4031e48:	10800217 	ldw	r2,8(r2)
 4031e4c:	d0e01f17 	ldw	r3,-32644(gp)
 4031e50:	18801d36 	bltu	r3,r2,4031ec8 <alt_tick+0xd8>
 4031e54:	e0bffd17 	ldw	r2,-12(fp)
 4031e58:	10800403 	ldbu	r2,16(r2)
 4031e5c:	10803fcc 	andi	r2,r2,255
 4031e60:	1000191e 	bne	r2,zero,4031ec8 <alt_tick+0xd8>
 4031e64:	e0bffd17 	ldw	r2,-12(fp)
 4031e68:	10800317 	ldw	r2,12(r2)
 4031e6c:	e0fffd17 	ldw	r3,-12(fp)
 4031e70:	18c00517 	ldw	r3,20(r3)
 4031e74:	1809883a 	mov	r4,r3
 4031e78:	103ee83a 	callr	r2
 4031e7c:	e0bfff15 	stw	r2,-4(fp)
 4031e80:	e0bfff17 	ldw	r2,-4(fp)
 4031e84:	1000031e 	bne	r2,zero,4031e94 <alt_tick+0xa4>
 4031e88:	e13ffd17 	ldw	r4,-12(fp)
 4031e8c:	4031d540 	call	4031d54 <alt_alarm_stop>
 4031e90:	00000d06 	br	4031ec8 <alt_tick+0xd8>
 4031e94:	e0bffd17 	ldw	r2,-12(fp)
 4031e98:	10c00217 	ldw	r3,8(r2)
 4031e9c:	e0bfff17 	ldw	r2,-4(fp)
 4031ea0:	1887883a 	add	r3,r3,r2
 4031ea4:	e0bffd17 	ldw	r2,-12(fp)
 4031ea8:	10c00215 	stw	r3,8(r2)
 4031eac:	e0bffd17 	ldw	r2,-12(fp)
 4031eb0:	10c00217 	ldw	r3,8(r2)
 4031eb4:	d0a01f17 	ldw	r2,-32644(gp)
 4031eb8:	1880032e 	bgeu	r3,r2,4031ec8 <alt_tick+0xd8>
 4031ebc:	e0bffd17 	ldw	r2,-12(fp)
 4031ec0:	00c00044 	movi	r3,1
 4031ec4:	10c00405 	stb	r3,16(r2)
 4031ec8:	e0bffe17 	ldw	r2,-8(fp)
 4031ecc:	e0bffd15 	stw	r2,-12(fp)
 4031ed0:	e0fffd17 	ldw	r3,-12(fp)
 4031ed4:	d0a00f04 	addi	r2,gp,-32708
 4031ed8:	18bfcf1e 	bne	r3,r2,4031e18 <__flash_rwdata_start+0xfffff544>
 4031edc:	0001883a 	nop
 4031ee0:	0001883a 	nop
 4031ee4:	e037883a 	mov	sp,fp
 4031ee8:	dfc00117 	ldw	ra,4(sp)
 4031eec:	df000017 	ldw	fp,0(sp)
 4031ef0:	dec00204 	addi	sp,sp,8
 4031ef4:	f800283a 	ret

04031ef8 <altera_nios2_gen2_irq_init>:
 4031ef8:	deffff04 	addi	sp,sp,-4
 4031efc:	df000015 	stw	fp,0(sp)
 4031f00:	d839883a 	mov	fp,sp
 4031f04:	000170fa 	wrctl	ienable,zero
 4031f08:	0001883a 	nop
 4031f0c:	e037883a 	mov	sp,fp
 4031f10:	df000017 	ldw	fp,0(sp)
 4031f14:	dec00104 	addi	sp,sp,4
 4031f18:	f800283a 	ret

04031f1c <alt_find_dev>:
 4031f1c:	defffa04 	addi	sp,sp,-24
 4031f20:	dfc00515 	stw	ra,20(sp)
 4031f24:	df000415 	stw	fp,16(sp)
 4031f28:	df000404 	addi	fp,sp,16
 4031f2c:	e13ffe15 	stw	r4,-8(fp)
 4031f30:	e17fff15 	stw	r5,-4(fp)
 4031f34:	e0bfff17 	ldw	r2,-4(fp)
 4031f38:	10800017 	ldw	r2,0(r2)
 4031f3c:	e0bffc15 	stw	r2,-16(fp)
 4031f40:	e13ffe17 	ldw	r4,-8(fp)
 4031f44:	402c32c0 	call	402c32c <strlen>
 4031f48:	10800044 	addi	r2,r2,1
 4031f4c:	e0bffd15 	stw	r2,-12(fp)
 4031f50:	00000d06 	br	4031f88 <alt_find_dev+0x6c>
 4031f54:	e0bffc17 	ldw	r2,-16(fp)
 4031f58:	10800217 	ldw	r2,8(r2)
 4031f5c:	e0fffd17 	ldw	r3,-12(fp)
 4031f60:	180d883a 	mov	r6,r3
 4031f64:	e17ffe17 	ldw	r5,-8(fp)
 4031f68:	1009883a 	mov	r4,r2
 4031f6c:	40322600 	call	4032260 <memcmp>
 4031f70:	1000021e 	bne	r2,zero,4031f7c <alt_find_dev+0x60>
 4031f74:	e0bffc17 	ldw	r2,-16(fp)
 4031f78:	00000706 	br	4031f98 <alt_find_dev+0x7c>
 4031f7c:	e0bffc17 	ldw	r2,-16(fp)
 4031f80:	10800017 	ldw	r2,0(r2)
 4031f84:	e0bffc15 	stw	r2,-16(fp)
 4031f88:	e0fffc17 	ldw	r3,-16(fp)
 4031f8c:	e0bfff17 	ldw	r2,-4(fp)
 4031f90:	18bff01e 	bne	r3,r2,4031f54 <__flash_rwdata_start+0xfffff680>
 4031f94:	0005883a 	mov	r2,zero
 4031f98:	e037883a 	mov	sp,fp
 4031f9c:	dfc00117 	ldw	ra,4(sp)
 4031fa0:	df000017 	ldw	fp,0(sp)
 4031fa4:	dec00204 	addi	sp,sp,8
 4031fa8:	f800283a 	ret

04031fac <alt_find_file>:
 4031fac:	defffb04 	addi	sp,sp,-20
 4031fb0:	dfc00415 	stw	ra,16(sp)
 4031fb4:	df000315 	stw	fp,12(sp)
 4031fb8:	df000304 	addi	fp,sp,12
 4031fbc:	e13fff15 	stw	r4,-4(fp)
 4031fc0:	d0a00717 	ldw	r2,-32740(gp)
 4031fc4:	e0bffd15 	stw	r2,-12(fp)
 4031fc8:	00003106 	br	4032090 <alt_find_file+0xe4>
 4031fcc:	e0bffd17 	ldw	r2,-12(fp)
 4031fd0:	10800217 	ldw	r2,8(r2)
 4031fd4:	1009883a 	mov	r4,r2
 4031fd8:	402c32c0 	call	402c32c <strlen>
 4031fdc:	e0bffe15 	stw	r2,-8(fp)
 4031fe0:	e0bffd17 	ldw	r2,-12(fp)
 4031fe4:	10c00217 	ldw	r3,8(r2)
 4031fe8:	e0bffe17 	ldw	r2,-8(fp)
 4031fec:	10bfffc4 	addi	r2,r2,-1
 4031ff0:	1885883a 	add	r2,r3,r2
 4031ff4:	10800003 	ldbu	r2,0(r2)
 4031ff8:	10803fcc 	andi	r2,r2,255
 4031ffc:	1080201c 	xori	r2,r2,128
 4032000:	10bfe004 	addi	r2,r2,-128
 4032004:	10800bd8 	cmpnei	r2,r2,47
 4032008:	1000031e 	bne	r2,zero,4032018 <alt_find_file+0x6c>
 403200c:	e0bffe17 	ldw	r2,-8(fp)
 4032010:	10bfffc4 	addi	r2,r2,-1
 4032014:	e0bffe15 	stw	r2,-8(fp)
 4032018:	e0bffe17 	ldw	r2,-8(fp)
 403201c:	e0ffff17 	ldw	r3,-4(fp)
 4032020:	1885883a 	add	r2,r3,r2
 4032024:	10800003 	ldbu	r2,0(r2)
 4032028:	10803fcc 	andi	r2,r2,255
 403202c:	1080201c 	xori	r2,r2,128
 4032030:	10bfe004 	addi	r2,r2,-128
 4032034:	10800be0 	cmpeqi	r2,r2,47
 4032038:	1000081e 	bne	r2,zero,403205c <alt_find_file+0xb0>
 403203c:	e0bffe17 	ldw	r2,-8(fp)
 4032040:	e0ffff17 	ldw	r3,-4(fp)
 4032044:	1885883a 	add	r2,r3,r2
 4032048:	10800003 	ldbu	r2,0(r2)
 403204c:	10803fcc 	andi	r2,r2,255
 4032050:	1080201c 	xori	r2,r2,128
 4032054:	10bfe004 	addi	r2,r2,-128
 4032058:	10000a1e 	bne	r2,zero,4032084 <alt_find_file+0xd8>
 403205c:	e0bffd17 	ldw	r2,-12(fp)
 4032060:	10800217 	ldw	r2,8(r2)
 4032064:	e0fffe17 	ldw	r3,-8(fp)
 4032068:	180d883a 	mov	r6,r3
 403206c:	e17fff17 	ldw	r5,-4(fp)
 4032070:	1009883a 	mov	r4,r2
 4032074:	40322600 	call	4032260 <memcmp>
 4032078:	1000021e 	bne	r2,zero,4032084 <alt_find_file+0xd8>
 403207c:	e0bffd17 	ldw	r2,-12(fp)
 4032080:	00000706 	br	40320a0 <alt_find_file+0xf4>
 4032084:	e0bffd17 	ldw	r2,-12(fp)
 4032088:	10800017 	ldw	r2,0(r2)
 403208c:	e0bffd15 	stw	r2,-12(fp)
 4032090:	e0fffd17 	ldw	r3,-12(fp)
 4032094:	d0a00704 	addi	r2,gp,-32740
 4032098:	18bfcc1e 	bne	r3,r2,4031fcc <__flash_rwdata_start+0xfffff6f8>
 403209c:	0005883a 	mov	r2,zero
 40320a0:	e037883a 	mov	sp,fp
 40320a4:	dfc00117 	ldw	ra,4(sp)
 40320a8:	df000017 	ldw	fp,0(sp)
 40320ac:	dec00204 	addi	sp,sp,8
 40320b0:	f800283a 	ret

040320b4 <alt_get_fd>:
 40320b4:	defffa04 	addi	sp,sp,-24
 40320b8:	dfc00515 	stw	ra,20(sp)
 40320bc:	df000415 	stw	fp,16(sp)
 40320c0:	dc000315 	stw	r16,12(sp)
 40320c4:	df000404 	addi	fp,sp,16
 40320c8:	e13ffe15 	stw	r4,-8(fp)
 40320cc:	00bffa04 	movi	r2,-24
 40320d0:	e0bffd15 	stw	r2,-12(fp)
 40320d4:	e03ffc15 	stw	zero,-16(fp)
 40320d8:	00001d06 	br	4032150 <alt_get_fd+0x9c>
 40320dc:	04000034 	movhi	r16,0
 40320e0:	8402fe04 	addi	r16,r16,3064
 40320e4:	e0bffc17 	ldw	r2,-16(fp)
 40320e8:	01400304 	movi	r5,12
 40320ec:	1009883a 	mov	r4,r2
 40320f0:	402572c0 	call	402572c <__mulsi3>
 40320f4:	8085883a 	add	r2,r16,r2
 40320f8:	10800017 	ldw	r2,0(r2)
 40320fc:	1000111e 	bne	r2,zero,4032144 <alt_get_fd+0x90>
 4032100:	04000034 	movhi	r16,0
 4032104:	8402fe04 	addi	r16,r16,3064
 4032108:	e0bffc17 	ldw	r2,-16(fp)
 403210c:	01400304 	movi	r5,12
 4032110:	1009883a 	mov	r4,r2
 4032114:	402572c0 	call	402572c <__mulsi3>
 4032118:	8085883a 	add	r2,r16,r2
 403211c:	e0fffe17 	ldw	r3,-8(fp)
 4032120:	10c00015 	stw	r3,0(r2)
 4032124:	d0e00b17 	ldw	r3,-32724(gp)
 4032128:	e0bffc17 	ldw	r2,-16(fp)
 403212c:	1880020e 	bge	r3,r2,4032138 <alt_get_fd+0x84>
 4032130:	e0bffc17 	ldw	r2,-16(fp)
 4032134:	d0a00b15 	stw	r2,-32724(gp)
 4032138:	e0bffc17 	ldw	r2,-16(fp)
 403213c:	e0bffd15 	stw	r2,-12(fp)
 4032140:	00000606 	br	403215c <alt_get_fd+0xa8>
 4032144:	e0bffc17 	ldw	r2,-16(fp)
 4032148:	10800044 	addi	r2,r2,1
 403214c:	e0bffc15 	stw	r2,-16(fp)
 4032150:	e0bffc17 	ldw	r2,-16(fp)
 4032154:	10800810 	cmplti	r2,r2,32
 4032158:	103fe01e 	bne	r2,zero,40320dc <__flash_rwdata_start+0xfffff808>
 403215c:	e0bffd17 	ldw	r2,-12(fp)
 4032160:	e6ffff04 	addi	sp,fp,-4
 4032164:	dfc00217 	ldw	ra,8(sp)
 4032168:	df000117 	ldw	fp,4(sp)
 403216c:	dc000017 	ldw	r16,0(sp)
 4032170:	dec00304 	addi	sp,sp,12
 4032174:	f800283a 	ret

04032178 <alt_exception_cause_generated_bad_addr>:
 4032178:	defffe04 	addi	sp,sp,-8
 403217c:	df000115 	stw	fp,4(sp)
 4032180:	df000104 	addi	fp,sp,4
 4032184:	e13fff15 	stw	r4,-4(fp)
 4032188:	e0bfff17 	ldw	r2,-4(fp)
 403218c:	10bffe84 	addi	r2,r2,-6
 4032190:	10c00428 	cmpgeui	r3,r2,16
 4032194:	18001a1e 	bne	r3,zero,4032200 <alt_exception_cause_generated_bad_addr+0x88>
 4032198:	100690ba 	slli	r3,r2,2
 403219c:	008100f4 	movhi	r2,1027
 40321a0:	10886c04 	addi	r2,r2,8624
 40321a4:	1885883a 	add	r2,r3,r2
 40321a8:	10800017 	ldw	r2,0(r2)
 40321ac:	1000683a 	jmp	r2
 40321b0:	040321f0 	cmpltui	r16,zero,3207
 40321b4:	040321f0 	cmpltui	r16,zero,3207
 40321b8:	04032200 	call	403220 <_gp+0x3f9448>
 40321bc:	04032200 	call	403220 <_gp+0x3f9448>
 40321c0:	04032200 	call	403220 <_gp+0x3f9448>
 40321c4:	040321f0 	cmpltui	r16,zero,3207
 40321c8:	040321f8 	rdprs	r16,zero,3207
 40321cc:	04032200 	call	403220 <_gp+0x3f9448>
 40321d0:	040321f0 	cmpltui	r16,zero,3207
 40321d4:	040321f0 	cmpltui	r16,zero,3207
 40321d8:	04032200 	call	403220 <_gp+0x3f9448>
 40321dc:	040321f0 	cmpltui	r16,zero,3207
 40321e0:	040321f8 	rdprs	r16,zero,3207
 40321e4:	04032200 	call	403220 <_gp+0x3f9448>
 40321e8:	04032200 	call	403220 <_gp+0x3f9448>
 40321ec:	040321f0 	cmpltui	r16,zero,3207
 40321f0:	00800044 	movi	r2,1
 40321f4:	00000306 	br	4032204 <alt_exception_cause_generated_bad_addr+0x8c>
 40321f8:	0005883a 	mov	r2,zero
 40321fc:	00000106 	br	4032204 <alt_exception_cause_generated_bad_addr+0x8c>
 4032200:	0005883a 	mov	r2,zero
 4032204:	e037883a 	mov	sp,fp
 4032208:	df000017 	ldw	fp,0(sp)
 403220c:	dec00104 	addi	sp,sp,4
 4032210:	f800283a 	ret

04032214 <atexit>:
 4032214:	200b883a 	mov	r5,r4
 4032218:	000f883a 	mov	r7,zero
 403221c:	000d883a 	mov	r6,zero
 4032220:	0009883a 	mov	r4,zero
 4032224:	40322dc1 	jmpi	40322dc <__register_exitproc>

04032228 <exit>:
 4032228:	defffe04 	addi	sp,sp,-8
 403222c:	000b883a 	mov	r5,zero
 4032230:	dc000015 	stw	r16,0(sp)
 4032234:	dfc00115 	stw	ra,4(sp)
 4032238:	2021883a 	mov	r16,r4
 403223c:	40323f40 	call	40323f4 <__call_exitprocs>
 4032240:	00800034 	movhi	r2,0
 4032244:	10877704 	addi	r2,r2,7644
 4032248:	11000017 	ldw	r4,0(r2)
 403224c:	20800f17 	ldw	r2,60(r4)
 4032250:	10000126 	beq	r2,zero,4032258 <exit+0x30>
 4032254:	103ee83a 	callr	r2
 4032258:	8009883a 	mov	r4,r16
 403225c:	40325740 	call	4032574 <_exit>

04032260 <memcmp>:
 4032260:	01c000c4 	movi	r7,3
 4032264:	3980192e 	bgeu	r7,r6,40322cc <memcmp+0x6c>
 4032268:	2144b03a 	or	r2,r4,r5
 403226c:	11c4703a 	and	r2,r2,r7
 4032270:	10000f26 	beq	r2,zero,40322b0 <memcmp+0x50>
 4032274:	20800003 	ldbu	r2,0(r4)
 4032278:	28c00003 	ldbu	r3,0(r5)
 403227c:	10c0151e 	bne	r2,r3,40322d4 <memcmp+0x74>
 4032280:	31bfff84 	addi	r6,r6,-2
 4032284:	01ffffc4 	movi	r7,-1
 4032288:	00000406 	br	403229c <memcmp+0x3c>
 403228c:	20800003 	ldbu	r2,0(r4)
 4032290:	28c00003 	ldbu	r3,0(r5)
 4032294:	31bfffc4 	addi	r6,r6,-1
 4032298:	10c00e1e 	bne	r2,r3,40322d4 <memcmp+0x74>
 403229c:	21000044 	addi	r4,r4,1
 40322a0:	29400044 	addi	r5,r5,1
 40322a4:	31fff91e 	bne	r6,r7,403228c <__flash_rwdata_start+0xfffff9b8>
 40322a8:	0005883a 	mov	r2,zero
 40322ac:	f800283a 	ret
 40322b0:	20c00017 	ldw	r3,0(r4)
 40322b4:	28800017 	ldw	r2,0(r5)
 40322b8:	18bfee1e 	bne	r3,r2,4032274 <__flash_rwdata_start+0xfffff9a0>
 40322bc:	31bfff04 	addi	r6,r6,-4
 40322c0:	21000104 	addi	r4,r4,4
 40322c4:	29400104 	addi	r5,r5,4
 40322c8:	39bff936 	bltu	r7,r6,40322b0 <__flash_rwdata_start+0xfffff9dc>
 40322cc:	303fe91e 	bne	r6,zero,4032274 <__flash_rwdata_start+0xfffff9a0>
 40322d0:	003ff506 	br	40322a8 <__flash_rwdata_start+0xfffff9d4>
 40322d4:	10c5c83a 	sub	r2,r2,r3
 40322d8:	f800283a 	ret

040322dc <__register_exitproc>:
 40322dc:	defffa04 	addi	sp,sp,-24
 40322e0:	dc000315 	stw	r16,12(sp)
 40322e4:	04000034 	movhi	r16,0
 40322e8:	84077704 	addi	r16,r16,7644
 40322ec:	80c00017 	ldw	r3,0(r16)
 40322f0:	dc400415 	stw	r17,16(sp)
 40322f4:	dfc00515 	stw	ra,20(sp)
 40322f8:	18805217 	ldw	r2,328(r3)
 40322fc:	2023883a 	mov	r17,r4
 4032300:	10003726 	beq	r2,zero,40323e0 <__register_exitproc+0x104>
 4032304:	10c00117 	ldw	r3,4(r2)
 4032308:	010007c4 	movi	r4,31
 403230c:	20c00e16 	blt	r4,r3,4032348 <__register_exitproc+0x6c>
 4032310:	1a000044 	addi	r8,r3,1
 4032314:	8800221e 	bne	r17,zero,40323a0 <__register_exitproc+0xc4>
 4032318:	18c00084 	addi	r3,r3,2
 403231c:	18c7883a 	add	r3,r3,r3
 4032320:	18c7883a 	add	r3,r3,r3
 4032324:	12000115 	stw	r8,4(r2)
 4032328:	10c7883a 	add	r3,r2,r3
 403232c:	19400015 	stw	r5,0(r3)
 4032330:	0005883a 	mov	r2,zero
 4032334:	dfc00517 	ldw	ra,20(sp)
 4032338:	dc400417 	ldw	r17,16(sp)
 403233c:	dc000317 	ldw	r16,12(sp)
 4032340:	dec00604 	addi	sp,sp,24
 4032344:	f800283a 	ret
 4032348:	00800034 	movhi	r2,0
 403234c:	10800004 	addi	r2,r2,0
 4032350:	10002626 	beq	r2,zero,40323ec <__register_exitproc+0x110>
 4032354:	01006404 	movi	r4,400
 4032358:	d9400015 	stw	r5,0(sp)
 403235c:	d9800115 	stw	r6,4(sp)
 4032360:	d9c00215 	stw	r7,8(sp)
 4032364:	00000000 	call	0 <__alt_mem_SDRAM>
 4032368:	d9400017 	ldw	r5,0(sp)
 403236c:	d9800117 	ldw	r6,4(sp)
 4032370:	d9c00217 	ldw	r7,8(sp)
 4032374:	10001d26 	beq	r2,zero,40323ec <__register_exitproc+0x110>
 4032378:	81000017 	ldw	r4,0(r16)
 403237c:	10000115 	stw	zero,4(r2)
 4032380:	02000044 	movi	r8,1
 4032384:	22405217 	ldw	r9,328(r4)
 4032388:	0007883a 	mov	r3,zero
 403238c:	12400015 	stw	r9,0(r2)
 4032390:	20805215 	stw	r2,328(r4)
 4032394:	10006215 	stw	zero,392(r2)
 4032398:	10006315 	stw	zero,396(r2)
 403239c:	883fde26 	beq	r17,zero,4032318 <__flash_rwdata_start+0xfffffa44>
 40323a0:	18c9883a 	add	r4,r3,r3
 40323a4:	2109883a 	add	r4,r4,r4
 40323a8:	1109883a 	add	r4,r2,r4
 40323ac:	21802215 	stw	r6,136(r4)
 40323b0:	01800044 	movi	r6,1
 40323b4:	12406217 	ldw	r9,392(r2)
 40323b8:	30cc983a 	sll	r6,r6,r3
 40323bc:	4992b03a 	or	r9,r9,r6
 40323c0:	12406215 	stw	r9,392(r2)
 40323c4:	21c04215 	stw	r7,264(r4)
 40323c8:	01000084 	movi	r4,2
 40323cc:	893fd21e 	bne	r17,r4,4032318 <__flash_rwdata_start+0xfffffa44>
 40323d0:	11006317 	ldw	r4,396(r2)
 40323d4:	218cb03a 	or	r6,r4,r6
 40323d8:	11806315 	stw	r6,396(r2)
 40323dc:	003fce06 	br	4032318 <__flash_rwdata_start+0xfffffa44>
 40323e0:	18805304 	addi	r2,r3,332
 40323e4:	18805215 	stw	r2,328(r3)
 40323e8:	003fc606 	br	4032304 <__flash_rwdata_start+0xfffffa30>
 40323ec:	00bfffc4 	movi	r2,-1
 40323f0:	003fd006 	br	4032334 <__flash_rwdata_start+0xfffffa60>

040323f4 <__call_exitprocs>:
 40323f4:	defff504 	addi	sp,sp,-44
 40323f8:	df000915 	stw	fp,36(sp)
 40323fc:	dd400615 	stw	r21,24(sp)
 4032400:	dc800315 	stw	r18,12(sp)
 4032404:	dfc00a15 	stw	ra,40(sp)
 4032408:	ddc00815 	stw	r23,32(sp)
 403240c:	dd800715 	stw	r22,28(sp)
 4032410:	dd000515 	stw	r20,20(sp)
 4032414:	dcc00415 	stw	r19,16(sp)
 4032418:	dc400215 	stw	r17,8(sp)
 403241c:	dc000115 	stw	r16,4(sp)
 4032420:	d9000015 	stw	r4,0(sp)
 4032424:	2839883a 	mov	fp,r5
 4032428:	04800044 	movi	r18,1
 403242c:	057fffc4 	movi	r21,-1
 4032430:	00800034 	movhi	r2,0
 4032434:	10877704 	addi	r2,r2,7644
 4032438:	12000017 	ldw	r8,0(r2)
 403243c:	45005217 	ldw	r20,328(r8)
 4032440:	44c05204 	addi	r19,r8,328
 4032444:	a0001c26 	beq	r20,zero,40324b8 <__call_exitprocs+0xc4>
 4032448:	a0800117 	ldw	r2,4(r20)
 403244c:	15ffffc4 	addi	r23,r2,-1
 4032450:	b8000d16 	blt	r23,zero,4032488 <__call_exitprocs+0x94>
 4032454:	14000044 	addi	r16,r2,1
 4032458:	8421883a 	add	r16,r16,r16
 403245c:	8421883a 	add	r16,r16,r16
 4032460:	84402004 	addi	r17,r16,128
 4032464:	a463883a 	add	r17,r20,r17
 4032468:	a421883a 	add	r16,r20,r16
 403246c:	e0001e26 	beq	fp,zero,40324e8 <__call_exitprocs+0xf4>
 4032470:	80804017 	ldw	r2,256(r16)
 4032474:	e0801c26 	beq	fp,r2,40324e8 <__call_exitprocs+0xf4>
 4032478:	bdffffc4 	addi	r23,r23,-1
 403247c:	843fff04 	addi	r16,r16,-4
 4032480:	8c7fff04 	addi	r17,r17,-4
 4032484:	bd7ff91e 	bne	r23,r21,403246c <__flash_rwdata_start+0xfffffb98>
 4032488:	00800034 	movhi	r2,0
 403248c:	10800004 	addi	r2,r2,0
 4032490:	10000926 	beq	r2,zero,40324b8 <__call_exitprocs+0xc4>
 4032494:	a0800117 	ldw	r2,4(r20)
 4032498:	1000301e 	bne	r2,zero,403255c <__call_exitprocs+0x168>
 403249c:	a0800017 	ldw	r2,0(r20)
 40324a0:	10003226 	beq	r2,zero,403256c <__call_exitprocs+0x178>
 40324a4:	a009883a 	mov	r4,r20
 40324a8:	98800015 	stw	r2,0(r19)
 40324ac:	00000000 	call	0 <__alt_mem_SDRAM>
 40324b0:	9d000017 	ldw	r20,0(r19)
 40324b4:	a03fe41e 	bne	r20,zero,4032448 <__flash_rwdata_start+0xfffffb74>
 40324b8:	dfc00a17 	ldw	ra,40(sp)
 40324bc:	df000917 	ldw	fp,36(sp)
 40324c0:	ddc00817 	ldw	r23,32(sp)
 40324c4:	dd800717 	ldw	r22,28(sp)
 40324c8:	dd400617 	ldw	r21,24(sp)
 40324cc:	dd000517 	ldw	r20,20(sp)
 40324d0:	dcc00417 	ldw	r19,16(sp)
 40324d4:	dc800317 	ldw	r18,12(sp)
 40324d8:	dc400217 	ldw	r17,8(sp)
 40324dc:	dc000117 	ldw	r16,4(sp)
 40324e0:	dec00b04 	addi	sp,sp,44
 40324e4:	f800283a 	ret
 40324e8:	a0800117 	ldw	r2,4(r20)
 40324ec:	80c00017 	ldw	r3,0(r16)
 40324f0:	10bfffc4 	addi	r2,r2,-1
 40324f4:	15c01426 	beq	r2,r23,4032548 <__call_exitprocs+0x154>
 40324f8:	80000015 	stw	zero,0(r16)
 40324fc:	183fde26 	beq	r3,zero,4032478 <__flash_rwdata_start+0xfffffba4>
 4032500:	95c8983a 	sll	r4,r18,r23
 4032504:	a0806217 	ldw	r2,392(r20)
 4032508:	a5800117 	ldw	r22,4(r20)
 403250c:	2084703a 	and	r2,r4,r2
 4032510:	10000b26 	beq	r2,zero,4032540 <__call_exitprocs+0x14c>
 4032514:	a0806317 	ldw	r2,396(r20)
 4032518:	2088703a 	and	r4,r4,r2
 403251c:	20000c1e 	bne	r4,zero,4032550 <__call_exitprocs+0x15c>
 4032520:	89400017 	ldw	r5,0(r17)
 4032524:	d9000017 	ldw	r4,0(sp)
 4032528:	183ee83a 	callr	r3
 403252c:	a0800117 	ldw	r2,4(r20)
 4032530:	15bfbf1e 	bne	r2,r22,4032430 <__flash_rwdata_start+0xfffffb5c>
 4032534:	98800017 	ldw	r2,0(r19)
 4032538:	153fcf26 	beq	r2,r20,4032478 <__flash_rwdata_start+0xfffffba4>
 403253c:	003fbc06 	br	4032430 <__flash_rwdata_start+0xfffffb5c>
 4032540:	183ee83a 	callr	r3
 4032544:	003ff906 	br	403252c <__flash_rwdata_start+0xfffffc58>
 4032548:	a5c00115 	stw	r23,4(r20)
 403254c:	003feb06 	br	40324fc <__flash_rwdata_start+0xfffffc28>
 4032550:	89000017 	ldw	r4,0(r17)
 4032554:	183ee83a 	callr	r3
 4032558:	003ff406 	br	403252c <__flash_rwdata_start+0xfffffc58>
 403255c:	a0800017 	ldw	r2,0(r20)
 4032560:	a027883a 	mov	r19,r20
 4032564:	1029883a 	mov	r20,r2
 4032568:	003fb606 	br	4032444 <__flash_rwdata_start+0xfffffb70>
 403256c:	0005883a 	mov	r2,zero
 4032570:	003ffb06 	br	4032560 <__flash_rwdata_start+0xfffffc8c>

04032574 <_exit>:
 4032574:	defffd04 	addi	sp,sp,-12
 4032578:	df000215 	stw	fp,8(sp)
 403257c:	df000204 	addi	fp,sp,8
 4032580:	e13fff15 	stw	r4,-4(fp)
 4032584:	0001883a 	nop
 4032588:	e0bfff17 	ldw	r2,-4(fp)
 403258c:	e0bffe15 	stw	r2,-8(fp)
 4032590:	e0bffe17 	ldw	r2,-8(fp)
 4032594:	10000226 	beq	r2,zero,40325a0 <_exit+0x2c>
 4032598:	002af070 	cmpltui	zero,zero,43969
 403259c:	00000106 	br	40325a4 <_exit+0x30>
 40325a0:	002af0b0 	cmpltui	zero,zero,43970
 40325a4:	003fff06 	br	40325a4 <__flash_rwdata_start+0xfffffcd0>
