
prueba2.elf:     file format elf32-littlenios2
prueba2.elf
architecture: nios2:r1, flags 0x00000112:
EXEC_P, HAS_SYMS, D_PAGED
start address 0x04020230

Program Header:
    LOAD off    0x00001000 vaddr 0x04020000 paddr 0x04020000 align 2**12
         filesz 0x00000020 memsz 0x00000020 flags r-x
    LOAD off    0x00001020 vaddr 0x04020020 paddr 0x04020020 align 2**12
         filesz 0x00012588 memsz 0x00012588 flags r-x
    LOAD off    0x00014000 vaddr 0x00000000 paddr 0x040325a8 align 2**12
         filesz 0x00001e1c memsz 0x00001fc0 flags rw-

Sections:
Idx Name          Size      VMA       LMA       File off  Algn
  0 .entry        00000020  04020000  04020000  00001000  2**5
                  CONTENTS, ALLOC, LOAD, READONLY, CODE
  1 .exceptions   00000210  04020020  04020020  00001020  2**2
                  CONTENTS, ALLOC, LOAD, READONLY, CODE
  2 .text         00012378  04020230  04020230  00001230  2**2
                  CONTENTS, ALLOC, LOAD, READONLY, CODE
  3 .rodata       0000032c  00000000  040325a8  00014000  2**2
                  CONTENTS, ALLOC, LOAD, READONLY, DATA
  4 .rwdata       00001af0  0000032c  040328d4  0001432c  2**2
                  CONTENTS, ALLOC, LOAD, DATA, SMALL_DATA
  5 .bss          000001a4  00001e1c  040343c4  00015e1c  2**2
                  ALLOC, SMALL_DATA
  6 .SDRAM        00000000  00001fc0  00001fc0  00015e1c  2**0
                  CONTENTS
  7 .SRAM2        00000000  040343c4  040343c4  00015e1c  2**0
                  CONTENTS
  8 .comment      00000046  00000000  00000000  00015e1c  2**0
                  CONTENTS, READONLY
  9 .debug_aranges 00001068  00000000  00000000  00015e68  2**3
                  CONTENTS, READONLY, DEBUGGING
 10 .debug_info   0002517a  00000000  00000000  00016ed0  2**0
                  CONTENTS, READONLY, DEBUGGING
 11 .debug_abbrev 00009c59  00000000  00000000  0003c04a  2**0
                  CONTENTS, READONLY, DEBUGGING
 12 .debug_line   0000c644  00000000  00000000  00045ca3  2**0
                  CONTENTS, READONLY, DEBUGGING
 13 .debug_frame  00002494  00000000  00000000  000522e8  2**2
                  CONTENTS, READONLY, DEBUGGING
 14 .debug_str    00003fdd  00000000  00000000  0005477c  2**0
                  CONTENTS, READONLY, DEBUGGING
 15 .debug_loc    0001a885  00000000  00000000  00058759  2**0
                  CONTENTS, READONLY, DEBUGGING
 16 .debug_alt_sim_info 00000040  00000000  00000000  00072fe0  2**2
                  CONTENTS, READONLY, DEBUGGING
 17 .debug_ranges 00001d88  00000000  00000000  00073020  2**3
                  CONTENTS, READONLY, DEBUGGING
 18 .thread_model 00000003  00000000  00000000  0007825a  2**0
                  CONTENTS, READONLY
 19 .cpu          0000000b  00000000  00000000  0007825d  2**0
                  CONTENTS, READONLY
 20 .qsys         00000001  00000000  00000000  00078268  2**0
                  CONTENTS, READONLY
 21 .simulation_enabled 00000001  00000000  00000000  00078269  2**0
                  CONTENTS, READONLY
 22 .stderr_dev   00000009  00000000  00000000  0007826a  2**0
                  CONTENTS, READONLY
 23 .stdin_dev    00000009  00000000  00000000  00078273  2**0
                  CONTENTS, READONLY
 24 .stdout_dev   00000009  00000000  00000000  0007827c  2**0
                  CONTENTS, READONLY
 25 .sopc_system_name 00000007  00000000  00000000  00078285  2**0
                  CONTENTS, READONLY
 26 .quartus_project_dir 00000037  00000000  00000000  0007828c  2**0
                  CONTENTS, READONLY
 27 .jdi          0000745b  00000000  00000000  000782c3  2**0
                  CONTENTS, READONLY
 28 .sopcinfo     00080af4  00000000  00000000  0007f71e  2**0
                  CONTENTS, READONLY
SYMBOL TABLE:
04020000 l    d  .entry	00000000 .entry
04020020 l    d  .exceptions	00000000 .exceptions
04020230 l    d  .text	00000000 .text
00000000 l    d  .rodata	00000000 .rodata
0000032c l    d  .rwdata	00000000 .rwdata
00001e1c l    d  .bss	00000000 .bss
00001fc0 l    d  .SDRAM	00000000 .SDRAM
040343c4 l    d  .SRAM2	00000000 .SRAM2
00000000 l    d  .comment	00000000 .comment
00000000 l    d  .debug_aranges	00000000 .debug_aranges
00000000 l    d  .debug_info	00000000 .debug_info
00000000 l    d  .debug_abbrev	00000000 .debug_abbrev
00000000 l    d  .debug_line	00000000 .debug_line
00000000 l    d  .debug_frame	00000000 .debug_frame
00000000 l    d  .debug_str	00000000 .debug_str
00000000 l    d  .debug_loc	00000000 .debug_loc
00000000 l    d  .debug_alt_sim_info	00000000 .debug_alt_sim_info
00000000 l    d  .debug_ranges	00000000 .debug_ranges
00000000 l    df *ABS*	00000000 ../prueba2_bsp//obj/HAL/src/crt0.o
04020268 l       .text	00000000 alt_after_alt_main
00000000 l    df *ABS*	00000000 alt_irq_handler.c
00000000 l    df *ABS*	00000000 alt_instruction_exception_entry.c
00000000 l    df *ABS*	00000000 hello_world.c
00001e5c l     O .bss	00000014 output.3492
00001e70 l     O .bss	00000028 output.3512
00001e1c l     O .bss	00000004 output.3539
00001e20 l     O .bss	00000004 output1.3543
00000000 l    df *ABS*	00000000 w_exp.c
00000000 l    df *ABS*	00000000 e_exp.c
00000028 l     O .rodata	00000010 halF
00000018 l     O .rodata	00000010 ln2HI
00000008 l     O .rodata	00000010 ln2LO
00000000 l    df *ABS*	00000000 s_finite.c
00000000 l    df *ABS*	00000000 s_lib_ver.c
00000000 l    df *ABS*	00000000 s_matherr.c
00000000 l    df *ABS*	00000000 addsf3.c
00000000 l    df *ABS*	00000000 divsf3.c
00000000 l    df *ABS*	00000000 mulsf3.c
00000000 l    df *ABS*	00000000 subsf3.c
00000000 l    df *ABS*	00000000 floatunsisf.c
00000000 l    df *ABS*	00000000 adddf3.c
00000000 l    df *ABS*	00000000 divdf3.c
00000000 l    df *ABS*	00000000 gedf2.c
00000000 l    df *ABS*	00000000 ledf2.c
00000000 l    df *ABS*	00000000 muldf3.c
00000000 l    df *ABS*	00000000 subdf3.c
00000000 l    df *ABS*	00000000 fixdfsi.c
00000000 l    df *ABS*	00000000 floatsidf.c
00000000 l    df *ABS*	00000000 extendsfdf2.c
00000000 l    df *ABS*	00000000 truncdfsf2.c
00000000 l    df *ABS*	00000000 libgcc2.c
00000000 l    df *ABS*	00000000 lib2-divmod.c
00000000 l    df *ABS*	00000000 lib2-mul.c
00000000 l    df *ABS*	00000000 libgcc2.c
00000000 l    df *ABS*	00000000 errno.c
00000000 l    df *ABS*	00000000 impure.c
0000032c l     O .rwdata	00000424 impure_data
00000000 l    df *ABS*	00000000 printf.c
00000000 l    df *ABS*	00000000 vfprintf.c
0000017e l     O .rodata	00000010 zeroes.4404
04027ac8 l     F .text	000000bc __sbprintf
0000018e l     O .rodata	00000010 blanks.4403
00000000 l    df *ABS*	00000000 wsetup.c
00000000 l    df *ABS*	00000000 dtoa.c
04027cd8 l     F .text	00000228 quorem
00000000 l    df *ABS*	00000000 fflush.c
00000000 l    df *ABS*	00000000 findfp.c
04029830 l     F .text	00000008 __fp_unlock
04029844 l     F .text	0000019c __sinit.part.1
040299e0 l     F .text	00000008 __fp_lock
00000000 l    df *ABS*	00000000 mallocr.c
00000000 l    df *ABS*	00000000 fwalk.c
00000000 l    df *ABS*	00000000 locale.c
00000770 l     O .rwdata	00000020 lc_ctype_charset
00000750 l     O .rwdata	00000020 lc_message_charset
00000790 l     O .rwdata	00000038 lconv
00000000 l    df *ABS*	00000000 makebuf.c
00000000 l    df *ABS*	00000000 mallocr.c
00000000 l    df *ABS*	00000000 memchr.c
00000000 l    df *ABS*	00000000 memcpy.c
00000000 l    df *ABS*	00000000 memset.c
00000000 l    df *ABS*	00000000 mprec.c
000001bc l     O .rodata	0000000c p05.2768
00000000 l    df *ABS*	00000000 s_fpclassify.c
00000000 l    df *ABS*	00000000 sbrkr.c
00000000 l    df *ABS*	00000000 stdio.c
00000000 l    df *ABS*	00000000 strcmp.c
00000000 l    df *ABS*	00000000 strlen.c
00000000 l    df *ABS*	00000000 vfprintf.c
0402c3c4 l     F .text	000000fc __sprint_r.part.0
000002e0 l     O .rodata	00000010 zeroes.4349
0402da00 l     F .text	000000bc __sbprintf
000002f0 l     O .rodata	00000010 blanks.4348
00000000 l    df *ABS*	00000000 writer.c
00000000 l    df *ABS*	00000000 closer.c
00000000 l    df *ABS*	00000000 mallocr.c
00000000 l    df *ABS*	00000000 fclose.c
00000000 l    df *ABS*	00000000 fputwc.c
00000000 l    df *ABS*	00000000 fstatr.c
00000000 l    df *ABS*	00000000 fvwrite.c
00000000 l    df *ABS*	00000000 int_errno.c
00000000 l    df *ABS*	00000000 isattyr.c
00000000 l    df *ABS*	00000000 lseekr.c
00000000 l    df *ABS*	00000000 memmove.c
00000000 l    df *ABS*	00000000 readr.c
00000000 l    df *ABS*	00000000 mallocr.c
00000000 l    df *ABS*	00000000 wbuf.c
00000000 l    df *ABS*	00000000 wcrtomb.c
00000000 l    df *ABS*	00000000 wctomb_r.c
00000000 l    df *ABS*	00000000 libgcc2.c
00000000 l    df *ABS*	00000000 libgcc2.c
00000000 l    df *ABS*	00000000 eqdf2.c
00000000 l    df *ABS*	00000000 floatunsidf.c
00000000 l    df *ABS*	00000000 alt_close.c
0402fc80 l     F .text	0000003c alt_get_errno
00000000 l    df *ABS*	00000000 alt_dev.c
0402fd94 l     F .text	0000002c alt_dev_null_write
00000000 l    df *ABS*	00000000 alt_errno.c
00000000 l    df *ABS*	00000000 alt_fstat.c
0402fdc0 l     F .text	0000003c alt_get_errno
00000000 l    df *ABS*	00000000 alt_isatty.c
0402feb4 l     F .text	0000003c alt_get_errno
00000000 l    df *ABS*	00000000 alt_load.c
0402ff9c l     F .text	00000068 alt_load_section
00000000 l    df *ABS*	00000000 alt_lseek.c
04030088 l     F .text	0000003c alt_get_errno
00000000 l    df *ABS*	00000000 alt_main.c
00000000 l    df *ABS*	00000000 alt_malloc_lock.c
00000000 l    df *ABS*	00000000 alt_read.c
04030264 l     F .text	0000003c alt_get_errno
00000000 l    df *ABS*	00000000 alt_release_fd.c
00000000 l    df *ABS*	00000000 alt_sbrk.c
00001e0c l     O .rwdata	00000004 heap_end
00000000 l    df *ABS*	00000000 alt_usleep.c
00000000 l    df *ABS*	00000000 alt_write.c
04030508 l     F .text	0000003c alt_get_errno
00000000 l    df *ABS*	00000000 alt_sys_init.c
04030644 l     F .text	00000034 alt_dev_reg
00000d78 l     O .rwdata	00001060 JTAG_UART
00000000 l    df *ABS*	00000000 altera_avalon_jtag_uart_fd.c
00000000 l    df *ABS*	00000000 altera_avalon_jtag_uart_init.c
04030934 l     F .text	0000020c altera_avalon_jtag_uart_irq
04030b40 l     F .text	000000a0 altera_avalon_jtag_uart_timeout
00000000 l    df *ABS*	00000000 altera_avalon_jtag_uart_ioctl.c
00000000 l    df *ABS*	00000000 altera_avalon_jtag_uart_read.c
00000000 l    df *ABS*	00000000 altera_avalon_jtag_uart_write.c
00000000 l    df *ABS*	00000000 altera_avalon_timer_sc.c
04031178 l     F .text	00000078 alt_avalon_timer_sc_irq
00000000 l    df *ABS*	00000000 alt_alarm_start.c
00000000 l    df *ABS*	00000000 alt_busy_sleep.c
00000000 l    df *ABS*	00000000 alt_dcache_flush_all.c
00000000 l    df *ABS*	00000000 alt_dev_llist_insert.c
04031510 l     F .text	0000003c alt_get_errno
00000000 l    df *ABS*	00000000 alt_do_ctors.c
00000000 l    df *ABS*	00000000 alt_do_dtors.c
00000000 l    df *ABS*	00000000 alt_icache_flush_all.c
00000000 l    df *ABS*	00000000 alt_iic.c
00000000 l    df *ABS*	00000000 alt_iic_isr_register.c
00000000 l    df *ABS*	00000000 alt_io_redirect.c
04031970 l     F .text	000000e4 alt_open_fd
00000000 l    df *ABS*	00000000 alt_irq_vars.c
00000000 l    df *ABS*	00000000 alt_open.c
04031ad0 l     F .text	0000003c alt_get_errno
04031b0c l     F .text	000000ec alt_file_locked
00000000 l    df *ABS*	00000000 alt_tick.c
00000000 l    df *ABS*	00000000 altera_nios2_gen2_irq.c
00000000 l    df *ABS*	00000000 alt_find_dev.c
00000000 l    df *ABS*	00000000 alt_find_file.c
00000000 l    df *ABS*	00000000 alt_get_fd.c
00000000 l    df *ABS*	00000000 atexit.c
00000000 l    df *ABS*	00000000 exit.c
00000000 l    df *ABS*	00000000 memcmp.c
00000000 l    df *ABS*	00000000 __atexit.c
00000000 l    df *ABS*	00000000 __call_atexit.c
00000000 l    df *ABS*	00000000 alt_exit.c
00001e58 g     O .bss	00000004 alt_instruction_exception_handler
04020000 g       *ABS*	00000000 __alt_mem_SRAM2
0402bed4 g     F .text	00000074 _mprec_log10
0402bfc0 g     F .text	0000008c __any_on
0402e47c g     F .text	00000054 _isatty_r
000001c8 g     O .rodata	00000028 __mprec_tinytens
040301a0 g     F .text	0000007c alt_main
00001ec0 g     O .bss	00000100 alt_irq
0402e4d0 g     F .text	00000060 _lseek_r
040328d4 g       *ABS*	00000000 __flash_rwdata_start
0402fb50 g     F .text	00000088 .hidden __eqdf2
00001fc0 g       *ABS*	00000000 __alt_heap_start
04025794 g     F .text	0000003c printf
0402eda8 g     F .text	0000009c _wcrtomb_r
0402c1ec g     F .text	0000005c __sseek
04029b90 g     F .text	00000010 __sinit
0402ec50 g     F .text	00000140 __swbuf_r
0402a19c g     F .text	0000007c _setlocale_r
040299e8 g     F .text	00000078 __sfmoreglue
04030240 g     F .text	00000024 __malloc_unlock
04021d08 g     F .text	00000440 .hidden __divsf3
0402e530 g     F .text	0000015c memmove
04029b78 g     F .text	00000018 _cleanup
0402af94 g     F .text	000000a8 _Balloc
04023dc8 g     F .text	000000dc .hidden __gtdf2
04031ef8 g     F .text	00000024 altera_nios2_gen2_irq_init
04025754 g     F .text	00000010 __errno
040204ec g     F .text	000000ec tansig
04020000 g     F .entry	0000000c __reset
04020020 g       *ABS*	00000000 __flash_exceptions_start
040205d8 g     F .text	00000734 layer1
0402df58 g     F .text	0000005c _fstat_r
00001e3c g     O .bss	00000004 errno
0402c168 g     F .text	00000008 __seofread
00001e44 g     O .bss	00000004 alt_argv
00009dd8 g       *ABS*	00000000 _gp
040304d8 g     F .text	00000030 usleep
04022578 g     F .text	000004e4 .hidden __subsf3
00000bf8 g     O .rwdata	00000180 alt_fd_list
04031f1c g     F .text	00000090 alt_find_dev
0402ad24 g     F .text	00000148 memcpy
04029838 g     F .text	0000000c _cleanup_r
04025180 g     F .text	000000dc .hidden __floatsidf
04031a54 g     F .text	0000007c alt_io_redirect
04023ea4 g     F .text	000000f4 .hidden __ltdf2
040325a8 g       *ABS*	00000000 __DTOR_END__
04032178 g     F .text	0000009c alt_exception_cause_generated_bad_addr
0402c04c g     F .text	00000074 __fpclassifyd
0402be30 g     F .text	000000a4 __ratio
0402d9e4 g     F .text	0000001c __vfiprintf_internal
04030d38 g     F .text	0000021c altera_avalon_jtag_uart_read
04025764 g     F .text	00000030 _printf_r
04025670 g     F .text	00000064 .hidden __udivsi3
0402fef0 g     F .text	000000ac isatty
00000218 g     O .rodata	000000c8 __mprec_tens
0402a218 g     F .text	0000000c __locale_charset
00001e38 g     O .bss	00000004 __malloc_top_pad
00001de4 g     O .rwdata	00000004 __mb_cur_max
0402a248 g     F .text	0000000c _localeconv_r
0402dfb4 g     F .text	000004c8 __sfvwrite_r
0402b3c8 g     F .text	0000003c __i2b
0402c0c0 g     F .text	00000054 _sbrk_r
0402e68c g     F .text	00000060 _read_r
00001e04 g     O .rwdata	00000004 alt_max_fd
0402dc4c g     F .text	000000f0 _fclose_r
04029800 g     F .text	00000030 fflush
00001e34 g     O .bss	00000004 __malloc_max_sbrked_mem
0402525c g     F .text	00000110 .hidden __extendsfdf2
04022b4c g     F .text	000008ac .hidden __adddf3
0402bbd8 g     F .text	0000010c __b2d
0402f58c g     F .text	000005c4 .hidden __umoddi3
040300c4 g     F .text	000000dc lseek
00001dd8 g     O .rwdata	00000004 __fdlib_version
00001ddc g     O .rwdata	00000004 _global_impure_ptr
0402e6ec g     F .text	00000564 _realloc_r
00001fc0 g       *ABS*	00000000 __bss_end
04031880 g     F .text	000000f0 alt_iic_isr_register
04021334 g     F .text	000004e8 __ieee754_exp
04031df0 g     F .text	00000108 alt_tick
0402ef90 g     F .text	000005fc .hidden __udivdi3
0402deb4 g     F .text	00000024 _fputwc_r
000001f0 g     O .rodata	00000028 __mprec_bigtens
0402b1ac g     F .text	00000104 __s2b
0402fbd8 g     F .text	000000a8 .hidden __floatunsidf
0402b918 g     F .text	00000060 __mcmp
04029bb0 g     F .text	00000018 __fp_lock_all
04031834 g     F .text	0000004c alt_ic_irq_enabled
04031d54 g     F .text	0000009c alt_alarm_stop
00001e4c g     O .bss	00000004 alt_irq_active
040200fc g     F .exceptions	000000d4 alt_irq_handler
00000bd0 g     O .rwdata	00000028 alt_dev_null
040314f0 g     F .text	00000020 alt_dcache_flush_all
0402b2b0 g     F .text	00000068 __hi0bits
04025100 g     F .text	00000080 .hidden __fixdfsi
04020d0c g     F .text	000000c0 DotProduct1
00001e1c g       *ABS*	00000000 __ram_rwdata_end
00001dfc g     O .rwdata	00000008 alt_dev_list
04030544 g     F .text	00000100 write
0000032c g       *ABS*	00000000 __ram_rodata_end
0402fdfc g     F .text	000000b8 fstat
00000000 g       *ABS*	00000000 __alt_mem_SDRAM
04023ea4 g     F .text	000000f4 .hidden __ledf2
0402b690 g     F .text	00000140 __pow5mult
0402c4d8 g     F .text	0000150c ___vfiprintf_internal_r
00001e2c g     O .bss	00000004 __nlocale_changed
040256d4 g     F .text	00000058 .hidden __umodsi3
00001fc0 g       *ABS*	00000000 end
04030874 g     F .text	000000c0 altera_avalon_jtag_uart_init
040201d0 g     F .exceptions	00000060 alt_instruction_exception_entry
040325a8 g       *ABS*	00000000 __CTOR_LIST__
04000000 g       *ABS*	00000000 __alt_stack_pointer
040311f0 g     F .text	0000007c alt_avalon_timer_sc_init
04025514 g     F .text	00000064 .hidden __clzsi2
04030f54 g     F .text	00000224 altera_avalon_jtag_uart_write
04029ba0 g     F .text	00000004 __sfp_lock_acquire
0402ac40 g     F .text	000000e4 memchr
040257d0 g     F .text	000022dc ___vfprintf_internal_r
04029d04 g     F .text	00000310 _free_r
0402a224 g     F .text	00000010 __locale_mb_cur_max
040323f4 g     F .text	00000180 __call_exitprocs
00001e28 g     O .bss	00000004 __mlocale_changed
00001de8 g     O .rwdata	00000004 __malloc_sbrk_base
04020230 g     F .text	0000003c _start
00001e50 g     O .bss	00000004 _alt_tick_rate
0402b7d0 g     F .text	00000148 __lshift
00001e54 g     O .bss	00000004 _alt_nticks
040302a0 g     F .text	00000104 read
040306b0 g     F .text	00000060 alt_sys_init
040322dc g     F .text	00000118 __register_exitproc
0402b404 g     F .text	0000028c __multiply
04030be0 g     F .text	00000068 altera_avalon_jtag_uart_close
0402572c g     F .text	00000028 .hidden __mulsi3
0000032c g       *ABS*	00000000 __ram_rwdata_start
00000000 g       *ABS*	00000000 __ram_rodata_start
00001e98 g     O .bss	00000028 __malloc_current_mallinfo
0402bce4 g     F .text	0000014c __d2b
04030710 g     F .text	00000060 altera_avalon_jtag_uart_read_fd
040320b4 g     F .text	000000c4 alt_get_fd
04031398 g     F .text	00000158 alt_busy_sleep
0402db1c g     F .text	00000054 _close_r
04032260 g     F .text	0000007c memcmp
040307d0 g     F .text	00000050 altera_avalon_jtag_uart_close_fd
00001fc0 g       *ABS*	00000000 __alt_stack_base
04030820 g     F .text	00000054 altera_avalon_jtag_uart_ioctl_fd
04027b84 g     F .text	00000154 __swsetup_r
040233f8 g     F .text	000009d0 .hidden __divdf3
04029a60 g     F .text	00000118 __sfp
0402bf48 g     F .text	00000078 __copybits
000007c8 g     O .rwdata	00000408 __malloc_av_
04029bac g     F .text	00000004 __sinit_lock_release
04023f98 g     F .text	0000086c .hidden __muldf3
0402c114 g     F .text	00000054 __sread
04031fac g     F .text	00000108 alt_find_file
0403154c g     F .text	000000a4 alt_dev_llist_insert
0403021c g     F .text	00000024 __malloc_lock
04030428 g     F .text	000000b0 sbrk
040297a4 g     F .text	0000005c _fflush_r
0402db70 g     F .text	000000dc _calloc_r
00001e1c g       *ABS*	00000000 __bss_start
0402ae6c g     F .text	00000128 memset
04020fb8 g     F .text	000001ec main
00001e48 g     O .bss	00000004 alt_envp
00001e30 g     O .bss	00000004 __malloc_max_total_mem
04030770 g     F .text	00000060 altera_avalon_jtag_uart_write_fd
0402ed90 g     F .text	00000018 __swbuf
0402c248 g     F .text	00000008 __sclose
04021838 g     F .text	00000008 matherr
04000000 g       *ABS*	00000000 __alt_heap_limit
0402dd3c g     F .text	00000014 fclose
0402536c g     F .text	000001a8 .hidden __truncdfsf2
04027f00 g     F .text	00001688 _dtoa_r
0402a434 g     F .text	0000080c _malloc_r
0402ef04 g     F .text	00000030 __ascii_wctomb
00001e08 g     O .rwdata	00000004 alt_errno
0402a014 g     F .text	000000c4 _fwalk
040211a4 g     F .text	00000190 exp
04025578 g     F .text	00000084 .hidden __divsi3
04029be0 g     F .text	00000124 _malloc_trim_r
040325a8 g       *ABS*	00000000 __CTOR_END__
04022148 g     F .text	00000430 .hidden __mulsf3
0402181c g     F .text	0000001c finite
0402c250 g     F .text	000000dc strcmp
040325a8 g       *ABS*	00000000 __flash_rodata_start
0402042c g     F .text	000000c0 DotProduct
040325a8 g       *ABS*	00000000 __DTOR_LIST__
0402fb50 g     F .text	00000088 .hidden __nedf2
04030678 g     F .text	00000038 alt_irq_init
040303a4 g     F .text	00000084 alt_release_fd
00000038 g     O .rodata	00000100 .hidden __clz_tab
00001e24 g     O .bss	00000004 _PathLocale
04032214 g     F .text	00000014 atexit
0402dabc g     F .text	00000060 _write_r
0402a254 g     F .text	00000018 setlocale
00001de0 g     O .rwdata	00000004 _impure_ptr
00001e40 g     O .bss	00000004 alt_argc
04029588 g     F .text	0000021c __sflush_r
04031650 g     F .text	00000060 _do_dtors
0402a240 g     F .text	00000008 __locale_cjk_lang
04020020 g       .exceptions	00000000 alt_irq_entry
0402bb74 g     F .text	00000064 __ulp
04029bc8 g     F .text	00000018 __fp_unlock_all
00001df4 g     O .rwdata	00000008 alt_fs_list
04020020 g       *ABS*	00000000 __ram_exceptions_start
0402a26c g     F .text	0000000c localeconv
040316d0 g     F .text	00000050 alt_ic_isr_register
00001e1c g       *ABS*	00000000 _edata
04020ea4 g     F .text	00000114 layer2
00001fc0 g       *ABS*	00000000 _end
0402dd50 g     F .text	00000164 __fputwc
04020230 g       *ABS*	00000000 __ram_exceptions_end
04030c48 g     F .text	000000f0 altera_avalon_jtag_uart_ioctl
040317a8 g     F .text	0000008c alt_ic_irq_disable
0402c170 g     F .text	0000007c __swrite
00001dec g     O .rwdata	00000004 __malloc_trim_threshold
0402a234 g     F .text	0000000c __locale_msgcharset
04032228 g     F .text	00000038 exit
0402a0d8 g     F .text	000000c4 _fwalk_reent
04022a5c g     F .text	000000f0 .hidden __floatunsisf
0402b978 g     F .text	000001fc __mdiff
040255fc g     F .text	00000074 .hidden __modsi3
04000000 g       *ABS*	00000000 __alt_data_end
04020020 g     F .exceptions	00000000 alt_exception
04029ba4 g     F .text	00000004 __sfp_lock_release
04032574 g     F .text	00000034 _exit
0403126c g     F .text	0000012c alt_alarm_start
0402a278 g     F .text	000001bc __smakebuf_r
0402c32c g     F .text	00000098 strlen
04031bf8 g     F .text	0000015c open
04023dc8 g     F .text	000000dc .hidden __gedf2
00001df0 g     O .rwdata	00000004 __wctomb
0402c4c0 g     F .text	00000018 __sprint_r
040316b0 g     F .text	00000020 alt_icache_flush_all
0402026c g     F .text	000001c0 mapminmax
00001e10 g     O .rwdata	00000004 alt_priority_mask
04031720 g     F .text	00000088 alt_ic_irq_enable
04027aac g     F .text	0000001c __vfprintf_internal
0402ef34 g     F .text	0000005c _wctomb_r
04024804 g     F .text	000008fc .hidden __subdf3
0402b318 g     F .text	000000b0 __lo0bits
04020dcc g     F .text	000000d8 mapminreverse
00001e14 g     O .rwdata	00000008 alt_alarm_list
040315f0 g     F .text	00000060 _do_ctors
0402ee44 g     F .text	000000c0 wcrtomb
0402fcbc g     F .text	000000d8 close
04021840 g     F .text	000004c8 .hidden __addsf3
04030004 g     F .text	00000084 alt_load
0402ded8 g     F .text	00000080 fputwc
04029ba8 g     F .text	00000004 __sinit_lock_acquire
0402b064 g     F .text	00000148 __multadd
0402b03c g     F .text	00000028 _Bfree



Disassembly of section .entry:

04020000 <__reset>:
 4020000:	004100b4 	movhi	at,1026
 4020004:	08408c14 	ori	at,at,560
 4020008:	0800683a 	jmp	at
	...

Disassembly of section .exceptions:

04020020 <alt_exception>:
 4020020:	deffed04 	addi	sp,sp,-76
 4020024:	dfc00015 	stw	ra,0(sp)
 4020028:	d8400215 	stw	at,8(sp)
 402002c:	d8800315 	stw	r2,12(sp)
 4020030:	d8c00415 	stw	r3,16(sp)
 4020034:	d9000515 	stw	r4,20(sp)
 4020038:	d9400615 	stw	r5,24(sp)
 402003c:	d9800715 	stw	r6,28(sp)
 4020040:	d9c00815 	stw	r7,32(sp)
 4020044:	000b307a 	rdctl	r5,estatus
 4020048:	da000915 	stw	r8,36(sp)
 402004c:	da400a15 	stw	r9,40(sp)
 4020050:	da800b15 	stw	r10,44(sp)
 4020054:	dac00c15 	stw	r11,48(sp)
 4020058:	db000d15 	stw	r12,52(sp)
 402005c:	db400e15 	stw	r13,56(sp)
 4020060:	db800f15 	stw	r14,60(sp)
 4020064:	dbc01015 	stw	r15,64(sp)
 4020068:	d9401115 	stw	r5,68(sp)
 402006c:	ebffff04 	addi	r15,ea,-4
 4020070:	dbc01215 	stw	r15,72(sp)
 4020074:	0009313a 	rdctl	r4,ipending
 4020078:	2880004c 	andi	r2,r5,1
 402007c:	10000326 	beq	r2,zero,402008c <alt_exception+0x6c>
 4020080:	20000226 	beq	r4,zero,402008c <alt_exception+0x6c>
 4020084:	40200fc0 	call	40200fc <alt_irq_handler>
 4020088:	00000706 	br	40200a8 <alt_exception+0x88>
 402008c:	df401215 	stw	ea,72(sp)
 4020090:	e8bfff17 	ldw	r2,-4(ea)
 4020094:	e93fff04 	addi	r4,ea,-4
 4020098:	40201d00 	call	40201d0 <alt_instruction_exception_entry>
 402009c:	1000021e 	bne	r2,zero,40200a8 <alt_exception+0x88>
 40200a0:	ebffff04 	addi	r15,ea,-4
 40200a4:	dbc01215 	stw	r15,72(sp)
 40200a8:	d9401117 	ldw	r5,68(sp)
 40200ac:	df401217 	ldw	ea,72(sp)
 40200b0:	dfc00017 	ldw	ra,0(sp)
 40200b4:	2801707a 	wrctl	estatus,r5
 40200b8:	d8400217 	ldw	at,8(sp)
 40200bc:	d8800317 	ldw	r2,12(sp)
 40200c0:	d8c00417 	ldw	r3,16(sp)
 40200c4:	d9000517 	ldw	r4,20(sp)
 40200c8:	d9400617 	ldw	r5,24(sp)
 40200cc:	d9800717 	ldw	r6,28(sp)
 40200d0:	d9c00817 	ldw	r7,32(sp)
 40200d4:	da000917 	ldw	r8,36(sp)
 40200d8:	da400a17 	ldw	r9,40(sp)
 40200dc:	da800b17 	ldw	r10,44(sp)
 40200e0:	dac00c17 	ldw	r11,48(sp)
 40200e4:	db000d17 	ldw	r12,52(sp)
 40200e8:	db400e17 	ldw	r13,56(sp)
 40200ec:	db800f17 	ldw	r14,60(sp)
 40200f0:	dbc01017 	ldw	r15,64(sp)
 40200f4:	dec01304 	addi	sp,sp,76
 40200f8:	ef80083a 	eret

040200fc <alt_irq_handler>:
 40200fc:	defff904 	addi	sp,sp,-28
 4020100:	dfc00615 	stw	ra,24(sp)
 4020104:	df000515 	stw	fp,20(sp)
 4020108:	df000504 	addi	fp,sp,20
 402010c:	0001883a 	nop
 4020110:	0005313a 	rdctl	r2,ipending
 4020114:	e0bffe15 	stw	r2,-8(fp)
 4020118:	e0bffe17 	ldw	r2,-8(fp)
 402011c:	e0bffb15 	stw	r2,-20(fp)
 4020120:	e03ffd15 	stw	zero,-12(fp)
 4020124:	00800044 	movi	r2,1
 4020128:	e0bffc15 	stw	r2,-16(fp)
 402012c:	e0fffb17 	ldw	r3,-20(fp)
 4020130:	e0bffc17 	ldw	r2,-16(fp)
 4020134:	1884703a 	and	r2,r3,r2
 4020138:	10001426 	beq	r2,zero,402018c <alt_irq_handler+0x90>
 402013c:	00800034 	movhi	r2,0
 4020140:	1087b004 	addi	r2,r2,7872
 4020144:	e0fffd17 	ldw	r3,-12(fp)
 4020148:	180690fa 	slli	r3,r3,3
 402014c:	10c5883a 	add	r2,r2,r3
 4020150:	10c00017 	ldw	r3,0(r2)
 4020154:	00800034 	movhi	r2,0
 4020158:	1087b004 	addi	r2,r2,7872
 402015c:	e13ffd17 	ldw	r4,-12(fp)
 4020160:	200890fa 	slli	r4,r4,3
 4020164:	1105883a 	add	r2,r2,r4
 4020168:	10800104 	addi	r2,r2,4
 402016c:	10800017 	ldw	r2,0(r2)
 4020170:	1009883a 	mov	r4,r2
 4020174:	183ee83a 	callr	r3
 4020178:	0001883a 	nop
 402017c:	0005313a 	rdctl	r2,ipending
 4020180:	e0bfff15 	stw	r2,-4(fp)
 4020184:	e0bfff17 	ldw	r2,-4(fp)
 4020188:	00000706 	br	40201a8 <alt_irq_handler+0xac>
 402018c:	e0bffc17 	ldw	r2,-16(fp)
 4020190:	1085883a 	add	r2,r2,r2
 4020194:	e0bffc15 	stw	r2,-16(fp)
 4020198:	e0bffd17 	ldw	r2,-12(fp)
 402019c:	10800044 	addi	r2,r2,1
 40201a0:	e0bffd15 	stw	r2,-12(fp)
 40201a4:	003fe106 	br	402012c <__flash_rwdata_start+0xfffed858>
 40201a8:	e0bffb15 	stw	r2,-20(fp)
 40201ac:	e0bffb17 	ldw	r2,-20(fp)
 40201b0:	103fdb1e 	bne	r2,zero,4020120 <__flash_rwdata_start+0xfffed84c>
 40201b4:	0001883a 	nop
 40201b8:	0001883a 	nop
 40201bc:	e037883a 	mov	sp,fp
 40201c0:	dfc00117 	ldw	ra,4(sp)
 40201c4:	df000017 	ldw	fp,0(sp)
 40201c8:	dec00204 	addi	sp,sp,8
 40201cc:	f800283a 	ret

040201d0 <alt_instruction_exception_entry>:
 40201d0:	defffb04 	addi	sp,sp,-20
 40201d4:	dfc00415 	stw	ra,16(sp)
 40201d8:	df000315 	stw	fp,12(sp)
 40201dc:	df000304 	addi	fp,sp,12
 40201e0:	e13fff15 	stw	r4,-4(fp)
 40201e4:	00bfffc4 	movi	r2,-1
 40201e8:	e0bffd15 	stw	r2,-12(fp)
 40201ec:	e03ffe15 	stw	zero,-8(fp)
 40201f0:	d0a02017 	ldw	r2,-32640(gp)
 40201f4:	10000726 	beq	r2,zero,4020214 <alt_instruction_exception_entry+0x44>
 40201f8:	d0a02017 	ldw	r2,-32640(gp)
 40201fc:	e0fffd17 	ldw	r3,-12(fp)
 4020200:	e1bffe17 	ldw	r6,-8(fp)
 4020204:	e17fff17 	ldw	r5,-4(fp)
 4020208:	1809883a 	mov	r4,r3
 402020c:	103ee83a 	callr	r2
 4020210:	00000206 	br	402021c <alt_instruction_exception_entry+0x4c>
 4020214:	003da03a 	break	0
 4020218:	0005883a 	mov	r2,zero
 402021c:	e037883a 	mov	sp,fp
 4020220:	dfc00117 	ldw	ra,4(sp)
 4020224:	df000017 	ldw	fp,0(sp)
 4020228:	dec00204 	addi	sp,sp,8
 402022c:	f800283a 	ret

Disassembly of section .text:

04020230 <_start>:
 4020230:	06c10034 	movhi	sp,1024
 4020234:	dec00014 	ori	sp,sp,0
 4020238:	06800034 	movhi	gp,0
 402023c:	d6a77614 	ori	gp,gp,40408
 4020240:	00800034 	movhi	r2,0
 4020244:	10878714 	ori	r2,r2,7708
 4020248:	00c00034 	movhi	r3,0
 402024c:	18c7f014 	ori	r3,r3,8128
 4020250:	10c00326 	beq	r2,r3,4020260 <_start+0x30>
 4020254:	10000015 	stw	zero,0(r2)
 4020258:	10800104 	addi	r2,r2,4
 402025c:	10fffd36 	bltu	r2,r3,4020254 <__flash_rwdata_start+0xfffed980>
 4020260:	40300040 	call	4030004 <alt_load>
 4020264:	40301a00 	call	40301a0 <alt_main>

04020268 <alt_after_alt_main>:
 4020268:	003fff06 	br	4020268 <__flash_rwdata_start+0xfffed994>

0402026c <mapminmax>:

/*=======  niNN vector de entrada =========*/
//float niNN[]={0.1,79,19,24,44}; //'Tiempo','Luz','Humedad Aire','Temperatura','Humedad Suelo'
/*=======  funcion mapminmax =========*/
float *mapminmax(float input[])
{
 402026c:	deffef04 	addi	sp,sp,-68
 4020270:	dfc01015 	stw	ra,64(sp)
 4020274:	df000f15 	stw	fp,60(sp)
 4020278:	dc000e15 	stw	r16,56(sp)
 402027c:	df000f04 	addi	fp,sp,60
 4020280:	e13ffe15 	stw	r4,-8(fp)
    int i;
    float ymax=1,ymin=-1;
 4020284:	008fe034 	movhi	r2,16256
 4020288:	e0bff215 	stw	r2,-56(fp)
 402028c:	00afe034 	movhi	r2,49024
 4020290:	e0bff315 	stw	r2,-52(fp)
    float xmin[]={0.1,51,13,24,32};
 4020294:	008f7374 	movhi	r2,15821
 4020298:	10b33344 	addi	r2,r2,-13107
 402029c:	e0bff415 	stw	r2,-48(fp)
 40202a0:	00909334 	movhi	r2,16972
 40202a4:	e0bff515 	stw	r2,-44(fp)
 40202a8:	00905434 	movhi	r2,16720
 40202ac:	e0bff615 	stw	r2,-40(fp)
 40202b0:	00907034 	movhi	r2,16832
 40202b4:	e0bff715 	stw	r2,-36(fp)
 40202b8:	00908034 	movhi	r2,16896
 40202bc:	e0bff815 	stw	r2,-32(fp)
    float xmax[]={37.25,83,19,30,52};
 40202c0:	00908574 	movhi	r2,16917
 40202c4:	e0bff915 	stw	r2,-28(fp)
 40202c8:	0090a9b4 	movhi	r2,17062
 40202cc:	e0bffa15 	stw	r2,-24(fp)
 40202d0:	00906634 	movhi	r2,16792
 40202d4:	e0bffb15 	stw	r2,-20(fp)
 40202d8:	00907c34 	movhi	r2,16880
 40202dc:	e0bffc15 	stw	r2,-16(fp)
 40202e0:	00909434 	movhi	r2,16976
 40202e4:	e0bffd15 	stw	r2,-12(fp)
    static float output[5];				//<--------------segun el numero de entradas
    for(i=0;i<5;i++)					//<--------------segun el numero de entradas
 40202e8:	e03ff115 	stw	zero,-60(fp)
 40202ec:	00004406 	br	4020400 <mapminmax+0x194>
    {
        output[i]=((ymax-ymin)/(xmax[i]-xmin[i]))*(input[i]-xmin[i])+ymin;
 40202f0:	e17ff317 	ldw	r5,-52(fp)
 40202f4:	e13ff217 	ldw	r4,-56(fp)
 40202f8:	40225780 	call	4022578 <__subsf3>
 40202fc:	1007883a 	mov	r3,r2
 4020300:	1821883a 	mov	r16,r3
 4020304:	e0bff117 	ldw	r2,-60(fp)
 4020308:	1085883a 	add	r2,r2,r2
 402030c:	1085883a 	add	r2,r2,r2
 4020310:	e0fff104 	addi	r3,fp,-60
 4020314:	1885883a 	add	r2,r3,r2
 4020318:	10800804 	addi	r2,r2,32
 402031c:	10c00017 	ldw	r3,0(r2)
 4020320:	e0bff117 	ldw	r2,-60(fp)
 4020324:	1085883a 	add	r2,r2,r2
 4020328:	1085883a 	add	r2,r2,r2
 402032c:	e13ff104 	addi	r4,fp,-60
 4020330:	2085883a 	add	r2,r4,r2
 4020334:	10800304 	addi	r2,r2,12
 4020338:	11000017 	ldw	r4,0(r2)
 402033c:	200b883a 	mov	r5,r4
 4020340:	1809883a 	mov	r4,r3
 4020344:	40225780 	call	4022578 <__subsf3>
 4020348:	1007883a 	mov	r3,r2
 402034c:	1805883a 	mov	r2,r3
 4020350:	100b883a 	mov	r5,r2
 4020354:	8009883a 	mov	r4,r16
 4020358:	4021d080 	call	4021d08 <__divsf3>
 402035c:	1007883a 	mov	r3,r2
 4020360:	1821883a 	mov	r16,r3
 4020364:	e0bff117 	ldw	r2,-60(fp)
 4020368:	1085883a 	add	r2,r2,r2
 402036c:	1085883a 	add	r2,r2,r2
 4020370:	1007883a 	mov	r3,r2
 4020374:	e0bffe17 	ldw	r2,-8(fp)
 4020378:	10c5883a 	add	r2,r2,r3
 402037c:	10c00017 	ldw	r3,0(r2)
 4020380:	e0bff117 	ldw	r2,-60(fp)
 4020384:	1085883a 	add	r2,r2,r2
 4020388:	1085883a 	add	r2,r2,r2
 402038c:	e13ff104 	addi	r4,fp,-60
 4020390:	2085883a 	add	r2,r4,r2
 4020394:	10800304 	addi	r2,r2,12
 4020398:	11000017 	ldw	r4,0(r2)
 402039c:	200b883a 	mov	r5,r4
 40203a0:	1809883a 	mov	r4,r3
 40203a4:	40225780 	call	4022578 <__subsf3>
 40203a8:	1007883a 	mov	r3,r2
 40203ac:	1805883a 	mov	r2,r3
 40203b0:	100b883a 	mov	r5,r2
 40203b4:	8009883a 	mov	r4,r16
 40203b8:	40221480 	call	4022148 <__mulsf3>
 40203bc:	1007883a 	mov	r3,r2
 40203c0:	1805883a 	mov	r2,r3
 40203c4:	e17ff317 	ldw	r5,-52(fp)
 40203c8:	1009883a 	mov	r4,r2
 40203cc:	40218400 	call	4021840 <__addsf3>
 40203d0:	1007883a 	mov	r3,r2
 40203d4:	1809883a 	mov	r4,r3
 40203d8:	00800034 	movhi	r2,0
 40203dc:	10879704 	addi	r2,r2,7772
 40203e0:	e0fff117 	ldw	r3,-60(fp)
 40203e4:	18c7883a 	add	r3,r3,r3
 40203e8:	18c7883a 	add	r3,r3,r3
 40203ec:	10c5883a 	add	r2,r2,r3
 40203f0:	11000015 	stw	r4,0(r2)
    int i;
    float ymax=1,ymin=-1;
    float xmin[]={0.1,51,13,24,32};
    float xmax[]={37.25,83,19,30,52};
    static float output[5];				//<--------------segun el numero de entradas
    for(i=0;i<5;i++)					//<--------------segun el numero de entradas
 40203f4:	e0bff117 	ldw	r2,-60(fp)
 40203f8:	10800044 	addi	r2,r2,1
 40203fc:	e0bff115 	stw	r2,-60(fp)
 4020400:	e0bff117 	ldw	r2,-60(fp)
 4020404:	10800150 	cmplti	r2,r2,5
 4020408:	103fb91e 	bne	r2,zero,40202f0 <__flash_rwdata_start+0xfffeda1c>
    {
        output[i]=((ymax-ymin)/(xmax[i]-xmin[i]))*(input[i]-xmin[i])+ymin;
    }
    return output;
 402040c:	00800034 	movhi	r2,0
 4020410:	10879704 	addi	r2,r2,7772
}
 4020414:	e6ffff04 	addi	sp,fp,-4
 4020418:	dfc00217 	ldw	ra,8(sp)
 402041c:	df000117 	ldw	fp,4(sp)
 4020420:	dc000017 	ldw	r16,0(sp)
 4020424:	dec00304 	addi	sp,sp,12
 4020428:	f800283a 	ret

0402042c <DotProduct>:
/*=======  producto punto =========*/
float DotProduct(float input1[], float input2[])
{
 402042c:	defffa04 	addi	sp,sp,-24
 4020430:	dfc00515 	stw	ra,20(sp)
 4020434:	df000415 	stw	fp,16(sp)
 4020438:	df000404 	addi	fp,sp,16
 402043c:	e13ffe15 	stw	r4,-8(fp)
 4020440:	e17fff15 	stw	r5,-4(fp)
    int i=0;
 4020444:	e03ffc15 	stw	zero,-16(fp)
    float acumulador=0;
 4020448:	e03ffd15 	stw	zero,-12(fp)
    for (i=0;i!=5;i++)					//<--------------segun el numero de entradas
 402044c:	e03ffc15 	stw	zero,-16(fp)
 4020450:	00001b06 	br	40204c0 <DotProduct+0x94>
    {
        acumulador=input1[i]*input2[i]+acumulador;
 4020454:	e0bffc17 	ldw	r2,-16(fp)
 4020458:	1085883a 	add	r2,r2,r2
 402045c:	1085883a 	add	r2,r2,r2
 4020460:	1007883a 	mov	r3,r2
 4020464:	e0bffe17 	ldw	r2,-8(fp)
 4020468:	10c5883a 	add	r2,r2,r3
 402046c:	10c00017 	ldw	r3,0(r2)
 4020470:	e0bffc17 	ldw	r2,-16(fp)
 4020474:	1085883a 	add	r2,r2,r2
 4020478:	1085883a 	add	r2,r2,r2
 402047c:	1009883a 	mov	r4,r2
 4020480:	e0bfff17 	ldw	r2,-4(fp)
 4020484:	1105883a 	add	r2,r2,r4
 4020488:	11000017 	ldw	r4,0(r2)
 402048c:	200b883a 	mov	r5,r4
 4020490:	1809883a 	mov	r4,r3
 4020494:	40221480 	call	4022148 <__mulsf3>
 4020498:	1007883a 	mov	r3,r2
 402049c:	1805883a 	mov	r2,r3
 40204a0:	100b883a 	mov	r5,r2
 40204a4:	e13ffd17 	ldw	r4,-12(fp)
 40204a8:	40218400 	call	4021840 <__addsf3>
 40204ac:	1007883a 	mov	r3,r2
 40204b0:	e0fffd15 	stw	r3,-12(fp)
/*=======  producto punto =========*/
float DotProduct(float input1[], float input2[])
{
    int i=0;
    float acumulador=0;
    for (i=0;i!=5;i++)					//<--------------segun el numero de entradas
 40204b4:	e0bffc17 	ldw	r2,-16(fp)
 40204b8:	10800044 	addi	r2,r2,1
 40204bc:	e0bffc15 	stw	r2,-16(fp)
 40204c0:	e0bffc17 	ldw	r2,-16(fp)
 40204c4:	10800158 	cmpnei	r2,r2,5
 40204c8:	103fe21e 	bne	r2,zero,4020454 <__flash_rwdata_start+0xfffedb80>
    {
        acumulador=input1[i]*input2[i]+acumulador;
    }
    return acumulador;
 40204cc:	e0bffd17 	ldw	r2,-12(fp)
 40204d0:	1007883a 	mov	r3,r2
}
 40204d4:	1805883a 	mov	r2,r3
 40204d8:	e037883a 	mov	sp,fp
 40204dc:	dfc00117 	ldw	ra,4(sp)
 40204e0:	df000017 	ldw	fp,0(sp)
 40204e4:	dec00204 	addi	sp,sp,8
 40204e8:	f800283a 	ret

040204ec <tansig>:
/*=======  tangente sigmoidal =========*/
float tansig(float input1)
{
 40204ec:	defffc04 	addi	sp,sp,-16
 40204f0:	dfc00315 	stw	ra,12(sp)
 40204f4:	df000215 	stw	fp,8(sp)
 40204f8:	df000204 	addi	fp,sp,8
 40204fc:	e13fff15 	stw	r4,-4(fp)
    float tansigout=(2/(1+exp(-2*input1))-1);
 4020500:	01700034 	movhi	r5,49152
 4020504:	e13fff17 	ldw	r4,-4(fp)
 4020508:	40221480 	call	4022148 <__mulsf3>
 402050c:	1007883a 	mov	r3,r2
 4020510:	1805883a 	mov	r2,r3
 4020514:	1009883a 	mov	r4,r2
 4020518:	402525c0 	call	402525c <__extendsfdf2>
 402051c:	100b883a 	mov	r5,r2
 4020520:	180d883a 	mov	r6,r3
 4020524:	2809883a 	mov	r4,r5
 4020528:	300b883a 	mov	r5,r6
 402052c:	40211a40 	call	40211a4 <exp>
 4020530:	1011883a 	mov	r8,r2
 4020534:	1813883a 	mov	r9,r3
 4020538:	000d883a 	mov	r6,zero
 402053c:	01cffc34 	movhi	r7,16368
 4020540:	4009883a 	mov	r4,r8
 4020544:	480b883a 	mov	r5,r9
 4020548:	4022b4c0 	call	4022b4c <__adddf3>
 402054c:	1009883a 	mov	r4,r2
 4020550:	180b883a 	mov	r5,r3
 4020554:	2005883a 	mov	r2,r4
 4020558:	2807883a 	mov	r3,r5
 402055c:	100d883a 	mov	r6,r2
 4020560:	180f883a 	mov	r7,r3
 4020564:	0009883a 	mov	r4,zero
 4020568:	01500034 	movhi	r5,16384
 402056c:	40233f80 	call	40233f8 <__divdf3>
 4020570:	1009883a 	mov	r4,r2
 4020574:	180b883a 	mov	r5,r3
 4020578:	2005883a 	mov	r2,r4
 402057c:	2807883a 	mov	r3,r5
 4020580:	000d883a 	mov	r6,zero
 4020584:	01cffc34 	movhi	r7,16368
 4020588:	1009883a 	mov	r4,r2
 402058c:	180b883a 	mov	r5,r3
 4020590:	40248040 	call	4024804 <__subdf3>
 4020594:	1009883a 	mov	r4,r2
 4020598:	180b883a 	mov	r5,r3
 402059c:	2005883a 	mov	r2,r4
 40205a0:	2807883a 	mov	r3,r5
 40205a4:	1009883a 	mov	r4,r2
 40205a8:	180b883a 	mov	r5,r3
 40205ac:	402536c0 	call	402536c <__truncdfsf2>
 40205b0:	1007883a 	mov	r3,r2
 40205b4:	e0fffe15 	stw	r3,-8(fp)
    return tansigout;
 40205b8:	e0bffe17 	ldw	r2,-8(fp)
 40205bc:	1007883a 	mov	r3,r2
}
 40205c0:	1805883a 	mov	r2,r3
 40205c4:	e037883a 	mov	sp,fp
 40205c8:	dfc00117 	ldw	ra,4(sp)
 40205cc:	df000017 	ldw	fp,0(sp)
 40205d0:	dec00204 	addi	sp,sp,8
 40205d4:	f800283a 	ret

040205d8 <layer1>:
/*=======  hidden layer =========*/
float *layer1(float *input1)
{
 40205d8:	deffcb04 	addi	sp,sp,-212
 40205dc:	dfc03415 	stw	ra,208(sp)
 40205e0:	df003315 	stw	fp,204(sp)
 40205e4:	df003304 	addi	fp,sp,204
 40205e8:	e13fff15 	stw	r4,-4(fp)
    float static output[10];
    float w0[]={1.3429602595496334949,2.4640878938717167834,0.39495514316749774641,-0.90117191988743661213,0.35359643307197702322};
 40205ec:	008feb34 	movhi	r2,16300
 40205f0:	10b987c4 	addi	r2,r2,-6625
 40205f4:	e0bfcd15 	stw	r2,-204(fp)
 40205f8:	009007b4 	movhi	r2,16414
 40205fc:	10ace784 	addi	r2,r2,-19554
 4020600:	e0bfce15 	stw	r2,-200(fp)
 4020604:	008fb2b4 	movhi	r2,16074
 4020608:	108de3c4 	addi	r2,r2,14223
 402060c:	e0bfcf15 	stw	r2,-196(fp)
 4020610:	00afd9f4 	movhi	r2,48999
 4020614:	10accd04 	addi	r2,r2,-19660
 4020618:	e0bfd015 	stw	r2,-192(fp)
 402061c:	008fad74 	movhi	r2,16053
 4020620:	1082a5c4 	addi	r2,r2,2711
 4020624:	e0bfd115 	stw	r2,-188(fp)
    float w1[]={-0.14279906762815919308,0.0192623757156580519,1.3314326924030628341,-0.36561632290867240869,2.0084035978000920331};
 4020628:	00af84b4 	movhi	r2,48658
 402062c:	108e7ac4 	addi	r2,r2,14827
 4020630:	e0bfd215 	stw	r2,-184(fp)
 4020634:	008f27b4 	movhi	r2,15518
 4020638:	10b30844 	addi	r2,r2,-13279
 402063c:	e0bfd315 	stw	r2,-180(fp)
 4020640:	008feab4 	movhi	r2,16298
 4020644:	109b18c4 	addi	r2,r2,27747
 4020648:	e0bfd415 	stw	r2,-176(fp)
 402064c:	00afaef4 	movhi	r2,48827
 4020650:	108c8404 	addi	r2,r2,12816
 4020654:	e0bfd515 	stw	r2,-172(fp)
 4020658:	00900074 	movhi	r2,16385
 402065c:	10a26bc4 	addi	r2,r2,-30289
 4020660:	e0bfd615 	stw	r2,-168(fp)
    float w2[]={0.18357336175625121877,0.060428929650758966829,0.22068017973731751669,3.0804514569410166303,9.466910330002907159};
 4020664:	008f8f34 	movhi	r2,15932
 4020668:	10beaa04 	addi	r2,r2,-1368
 402066c:	e0bfd715 	stw	r2,-164(fp)
 4020670:	008f5e34 	movhi	r2,15736
 4020674:	10a114c4 	addi	r2,r2,-31661
 4020678:	e0bfd815 	stw	r2,-160(fp)
 402067c:	008f98b4 	movhi	r2,15970
 4020680:	10be7f04 	addi	r2,r2,-1540
 4020684:	e0bfd915 	stw	r2,-156(fp)
 4020688:	00901174 	movhi	r2,16453
 402068c:	10898784 	addi	r2,r2,9758
 4020690:	e0bfda15 	stw	r2,-152(fp)
 4020694:	009045f4 	movhi	r2,16663
 4020698:	109e1dc4 	addi	r2,r2,30839
 402069c:	e0bfdb15 	stw	r2,-148(fp)
    float w3[]={-0.015179223569523961346,0.28388684242725181761,-0.21895403123318288308,-0.69117690190900471503,-1.1698240004933713188};
 40206a0:	00af1e74 	movhi	r2,48249
 40206a4:	10ac91c4 	addi	r2,r2,-19897
 40206a8:	e0bfdc15 	stw	r2,-144(fp)
 40206ac:	008fa474 	movhi	r2,16017
 40206b0:	10966784 	addi	r2,r2,22942
 40206b4:	e0bfdd15 	stw	r2,-140(fp)
 40206b8:	00af9834 	movhi	r2,48736
 40206bc:	108d5f04 	addi	r2,r2,13692
 40206c0:	e0bfde15 	stw	r2,-136(fp)
 40206c4:	00afcc74 	movhi	r2,48945
 40206c8:	10bc3e04 	addi	r2,r2,-3848
 40206cc:	e0bfdf15 	stw	r2,-132(fp)
 40206d0:	00afe5b4 	movhi	r2,49046
 40206d4:	10af32c4 	addi	r2,r2,-17205
 40206d8:	e0bfe015 	stw	r2,-128(fp)
    float w4[]={0.0010264224613505262829,0.54440001105331703446,0.073648048501351981443,-0.63879691824025319757,0.92666886806160542189};
 40206dc:	008ea1f4 	movhi	r2,14983
 40206e0:	10a24184 	addi	r2,r2,-30458
 40206e4:	e0bfe115 	stw	r2,-124(fp)
 40206e8:	008fc2f4 	movhi	r2,16139
 40206ec:	10977344 	addi	r2,r2,24013
 40206f0:	e0bfe215 	stw	r2,-120(fp)
 40206f4:	008f65f4 	movhi	r2,15767
 40206f8:	10b53284 	addi	r2,r2,-11062
 40206fc:	e0bfe315 	stw	r2,-116(fp)
 4020700:	00afc934 	movhi	r2,48932
 4020704:	10a20c84 	addi	r2,r2,-30670
 4020708:	e0bfe415 	stw	r2,-112(fp)
 402070c:	008fdb74 	movhi	r2,16237
 4020710:	108e8b04 	addi	r2,r2,14892
 4020714:	e0bfe515 	stw	r2,-108(fp)
    float w5[]={-0.19528955493481076067,1.087167432537815337,-0.0099078673019529807375,-0.81601545827073229677,0.76974069223677410445};
 4020718:	00af9234 	movhi	r2,48712
 402071c:	10be7f04 	addi	r2,r2,-1540
 4020720:	e0bfe615 	stw	r2,-104(fp)
 4020724:	008fe2f4 	movhi	r2,16267
 4020728:	108a1344 	addi	r2,r2,10317
 402072c:	e0bfe715 	stw	r2,-100(fp)
 4020730:	00af08b4 	movhi	r2,48162
 4020734:	10952704 	addi	r2,r2,21660
 4020738:	e0bfe815 	stw	r2,-96(fp)
 402073c:	00afd474 	movhi	r2,48977
 4020740:	10b99904 	addi	r2,r2,-6556
 4020744:	e0bfe915 	stw	r2,-92(fp)
 4020748:	008fd174 	movhi	r2,16197
 402074c:	10836e84 	addi	r2,r2,3514
 4020750:	e0bfea15 	stw	r2,-88(fp)
    float w6[]={-0.46424358683263189373,1.5828121341636918196,-0.23770329343757606866,-0.59499557786972323559,0.34097346878666395797};
 4020754:	00afbbb4 	movhi	r2,48878
 4020758:	10ac5584 	addi	r2,r2,-20138
 402075c:	e0bfeb15 	stw	r2,-84(fp)
 4020760:	008ff2f4 	movhi	r2,16331
 4020764:	10a665c4 	addi	r2,r2,-26217
 4020768:	e0bfec15 	stw	r2,-80(fp)
 402076c:	00af9cf4 	movhi	r2,48755
 4020770:	109a1f84 	addi	r2,r2,26750
 4020774:	e0bfed15 	stw	r2,-76(fp)
 4020778:	00afc634 	movhi	r2,48920
 402077c:	10946844 	addi	r2,r2,20897
 4020780:	e0bfee15 	stw	r2,-72(fp)
 4020784:	008fabf4 	movhi	r2,16047
 4020788:	10a504c4 	addi	r2,r2,-27629
 402078c:	e0bfef15 	stw	r2,-68(fp)
    float w7[]={-0.25392183768338449923,1.8622536681654058288,0.36391691036848561325,-0.55107714806946928032,-1.2116971352295800024};
 4020790:	00afa0b4 	movhi	r2,48770
 4020794:	108082c4 	addi	r2,r2,523
 4020798:	e0bff015 	stw	r2,-64(fp)
 402079c:	008ffbb4 	movhi	r2,16366
 40207a0:	10979504 	addi	r2,r2,24148
 40207a4:	e0bff115 	stw	r2,-60(fp)
 40207a8:	008faeb4 	movhi	r2,16058
 40207ac:	1094d444 	addi	r2,r2,21329
 40207b0:	e0bff215 	stw	r2,-56(fp)
 40207b4:	00afc374 	movhi	r2,48909
 40207b8:	1084d904 	addi	r2,r2,4964
 40207bc:	e0bff315 	stw	r2,-52(fp)
 40207c0:	00afe6f4 	movhi	r2,49051
 40207c4:	10863904 	addi	r2,r2,6372
 40207c8:	e0bff415 	stw	r2,-48(fp)
	float w8[]={0.38480075839248978342,0.04249926003823468329,0.8606378419757417797,0.12528405874563552924,-1.4101827894193001978};
 40207cc:	008fb174 	movhi	r2,16069
 40207d0:	108126c4 	addi	r2,r2,1179
 40207d4:	e0bff515 	stw	r2,-44(fp)
 40207d8:	008f4bb4 	movhi	r2,15662
 40207dc:	1084ed04 	addi	r2,r2,5044
 40207e0:	e0bff615 	stw	r2,-40(fp)
 40207e4:	008fd734 	movhi	r2,16220
 40207e8:	1094b0c4 	addi	r2,r2,21187
 40207ec:	e0bff715 	stw	r2,-36(fp)
 40207f0:	008f8034 	movhi	r2,15872
 40207f4:	10929dc4 	addi	r2,r2,19063
 40207f8:	e0bff815 	stw	r2,-32(fp)
 40207fc:	00afed74 	movhi	r2,49077
 4020800:	10a037c4 	addi	r2,r2,-32545
 4020804:	e0bff915 	stw	r2,-28(fp)
	float w9[]={1.4815409326756612263,-0.52300813580124350111,-1.0147384325846877662,1.1236057819930480584,-1.4055470392359856735};
 4020808:	008fefb4 	movhi	r2,16318
 402080c:	10a8c884 	addi	r2,r2,-23774
 4020810:	e0bffa15 	stw	r2,-24(fp)
 4020814:	00afc1b4 	movhi	r2,48902
 4020818:	10b8f704 	addi	r2,r2,-7204
 402081c:	e0bffb15 	stw	r2,-20(fp)
 4020820:	00afe0b4 	movhi	r2,49026
 4020824:	10b8bcc4 	addi	r2,r2,-7437
 4020828:	e0bffc15 	stw	r2,-16(fp)
 402082c:	008fe434 	movhi	r2,16272
 4020830:	10b49404 	addi	r2,r2,-11696
 4020834:	e0bffd15 	stw	r2,-12(fp)
 4020838:	00afed34 	movhi	r2,49076
 402083c:	10ba3dc4 	addi	r2,r2,-5897
 4020840:	e0bffe15 	stw	r2,-8(fp)
	output[0]=tansig(DotProduct(input1,w0)+(-3.2902816603893763059));
 4020844:	e17fcd04 	addi	r5,fp,-204
 4020848:	e13fff17 	ldw	r4,-4(fp)
 402084c:	402042c0 	call	402042c <DotProduct>
 4020850:	1007883a 	mov	r3,r2
 4020854:	1809883a 	mov	r4,r3
 4020858:	402525c0 	call	402525c <__extendsfdf2>
 402085c:	1011883a 	mov	r8,r2
 4020860:	1813883a 	mov	r9,r3
 4020864:	018c3c34 	movhi	r6,12528
 4020868:	31807c84 	addi	r6,r6,498
 402086c:	01d002b4 	movhi	r7,16394
 4020870:	39d49fc4 	addi	r7,r7,21119
 4020874:	4009883a 	mov	r4,r8
 4020878:	480b883a 	mov	r5,r9
 402087c:	40248040 	call	4024804 <__subdf3>
 4020880:	1009883a 	mov	r4,r2
 4020884:	180b883a 	mov	r5,r3
 4020888:	2005883a 	mov	r2,r4
 402088c:	2807883a 	mov	r3,r5
 4020890:	1009883a 	mov	r4,r2
 4020894:	180b883a 	mov	r5,r3
 4020898:	402536c0 	call	402536c <__truncdfsf2>
 402089c:	1007883a 	mov	r3,r2
 40208a0:	1809883a 	mov	r4,r3
 40208a4:	40204ec0 	call	40204ec <tansig>
 40208a8:	1007883a 	mov	r3,r2
 40208ac:	00800034 	movhi	r2,0
 40208b0:	10879c04 	addi	r2,r2,7792
 40208b4:	10c00015 	stw	r3,0(r2)
    output[1]=tansig(DotProduct(input1,w1)+(-1.0774370403746600378));
 40208b8:	e0bfd204 	addi	r2,fp,-184
 40208bc:	100b883a 	mov	r5,r2
 40208c0:	e13fff17 	ldw	r4,-4(fp)
 40208c4:	402042c0 	call	402042c <DotProduct>
 40208c8:	1007883a 	mov	r3,r2
 40208cc:	1809883a 	mov	r4,r3
 40208d0:	402525c0 	call	402525c <__extendsfdf2>
 40208d4:	1011883a 	mov	r8,r2
 40208d8:	1813883a 	mov	r9,r3
 40208dc:	01a7cff4 	movhi	r6,40767
 40208e0:	31a1fe44 	addi	r6,r6,-30727
 40208e4:	01cffc74 	movhi	r7,16369
 40208e8:	39cf4b84 	addi	r7,r7,15662
 40208ec:	4009883a 	mov	r4,r8
 40208f0:	480b883a 	mov	r5,r9
 40208f4:	40248040 	call	4024804 <__subdf3>
 40208f8:	1009883a 	mov	r4,r2
 40208fc:	180b883a 	mov	r5,r3
 4020900:	2005883a 	mov	r2,r4
 4020904:	2807883a 	mov	r3,r5
 4020908:	1009883a 	mov	r4,r2
 402090c:	180b883a 	mov	r5,r3
 4020910:	402536c0 	call	402536c <__truncdfsf2>
 4020914:	1007883a 	mov	r3,r2
 4020918:	1809883a 	mov	r4,r3
 402091c:	40204ec0 	call	40204ec <tansig>
 4020920:	1007883a 	mov	r3,r2
 4020924:	00800034 	movhi	r2,0
 4020928:	10879c04 	addi	r2,r2,7792
 402092c:	10c00115 	stw	r3,4(r2)
    output[2]=tansig(DotProduct(input1,w2)+(9.2813908302064689337));
 4020930:	e0bfd704 	addi	r2,fp,-164
 4020934:	100b883a 	mov	r5,r2
 4020938:	e13fff17 	ldw	r4,-4(fp)
 402093c:	402042c0 	call	402042c <DotProduct>
 4020940:	1007883a 	mov	r3,r2
 4020944:	1809883a 	mov	r4,r3
 4020948:	402525c0 	call	402525c <__extendsfdf2>
 402094c:	1011883a 	mov	r8,r2
 4020950:	1813883a 	mov	r9,r3
 4020954:	019d5eb4 	movhi	r6,30074
 4020958:	3190c704 	addi	r6,r6,17180
 402095c:	01d008f4 	movhi	r7,16419
 4020960:	39e40484 	addi	r7,r7,-28654
 4020964:	4009883a 	mov	r4,r8
 4020968:	480b883a 	mov	r5,r9
 402096c:	4022b4c0 	call	4022b4c <__adddf3>
 4020970:	1009883a 	mov	r4,r2
 4020974:	180b883a 	mov	r5,r3
 4020978:	2005883a 	mov	r2,r4
 402097c:	2807883a 	mov	r3,r5
 4020980:	1009883a 	mov	r4,r2
 4020984:	180b883a 	mov	r5,r3
 4020988:	402536c0 	call	402536c <__truncdfsf2>
 402098c:	1007883a 	mov	r3,r2
 4020990:	1809883a 	mov	r4,r3
 4020994:	40204ec0 	call	40204ec <tansig>
 4020998:	1007883a 	mov	r3,r2
 402099c:	00800034 	movhi	r2,0
 40209a0:	10879c04 	addi	r2,r2,7792
 40209a4:	10c00215 	stw	r3,8(r2)
    output[3]=tansig(DotProduct(input1,w3)+(-2.1012760240229342301));
 40209a8:	e0bfdc04 	addi	r2,fp,-144
 40209ac:	100b883a 	mov	r5,r2
 40209b0:	e13fff17 	ldw	r4,-4(fp)
 40209b4:	402042c0 	call	402042c <DotProduct>
 40209b8:	1007883a 	mov	r3,r2
 40209bc:	1809883a 	mov	r4,r3
 40209c0:	402525c0 	call	402525c <__extendsfdf2>
 40209c4:	1011883a 	mov	r8,r2
 40209c8:	1813883a 	mov	r9,r3
 40209cc:	01b37634 	movhi	r6,52696
 40209d0:	31984684 	addi	r6,r6,24858
 40209d4:	01d00074 	movhi	r7,16385
 40209d8:	39f3da44 	addi	r7,r7,-12439
 40209dc:	4009883a 	mov	r4,r8
 40209e0:	480b883a 	mov	r5,r9
 40209e4:	40248040 	call	4024804 <__subdf3>
 40209e8:	1009883a 	mov	r4,r2
 40209ec:	180b883a 	mov	r5,r3
 40209f0:	2005883a 	mov	r2,r4
 40209f4:	2807883a 	mov	r3,r5
 40209f8:	1009883a 	mov	r4,r2
 40209fc:	180b883a 	mov	r5,r3
 4020a00:	402536c0 	call	402536c <__truncdfsf2>
 4020a04:	1007883a 	mov	r3,r2
 4020a08:	1809883a 	mov	r4,r3
 4020a0c:	40204ec0 	call	40204ec <tansig>
 4020a10:	1007883a 	mov	r3,r2
 4020a14:	00800034 	movhi	r2,0
 4020a18:	10879c04 	addi	r2,r2,7792
 4020a1c:	10c00315 	stw	r3,12(r2)
    output[4]=tansig(DotProduct(input1,w4)+(0.5031622285530945593));
 4020a20:	e0bfe104 	addi	r2,fp,-124
 4020a24:	100b883a 	mov	r5,r2
 4020a28:	e13fff17 	ldw	r4,-4(fp)
 4020a2c:	402042c0 	call	402042c <DotProduct>
 4020a30:	1007883a 	mov	r3,r2
 4020a34:	1809883a 	mov	r4,r3
 4020a38:	402525c0 	call	402525c <__extendsfdf2>
 4020a3c:	1011883a 	mov	r8,r2
 4020a40:	1813883a 	mov	r9,r3
 4020a44:	01ab21f4 	movhi	r6,44167
 4020a48:	31be8084 	addi	r6,r6,-1534
 4020a4c:	01cff834 	movhi	r7,16352
 4020a50:	39c679c4 	addi	r7,r7,6631
 4020a54:	4009883a 	mov	r4,r8
 4020a58:	480b883a 	mov	r5,r9
 4020a5c:	4022b4c0 	call	4022b4c <__adddf3>
 4020a60:	1009883a 	mov	r4,r2
 4020a64:	180b883a 	mov	r5,r3
 4020a68:	2005883a 	mov	r2,r4
 4020a6c:	2807883a 	mov	r3,r5
 4020a70:	1009883a 	mov	r4,r2
 4020a74:	180b883a 	mov	r5,r3
 4020a78:	402536c0 	call	402536c <__truncdfsf2>
 4020a7c:	1007883a 	mov	r3,r2
 4020a80:	1809883a 	mov	r4,r3
 4020a84:	40204ec0 	call	40204ec <tansig>
 4020a88:	1007883a 	mov	r3,r2
 4020a8c:	00800034 	movhi	r2,0
 4020a90:	10879c04 	addi	r2,r2,7792
 4020a94:	10c00415 	stw	r3,16(r2)
    output[5]=tansig(DotProduct(input1,w5)+(0.5577989336033097878));
 4020a98:	e0bfe604 	addi	r2,fp,-104
 4020a9c:	100b883a 	mov	r5,r2
 4020aa0:	e13fff17 	ldw	r4,-4(fp)
 4020aa4:	402042c0 	call	402042c <DotProduct>
 4020aa8:	1007883a 	mov	r3,r2
 4020aac:	1809883a 	mov	r4,r3
 4020ab0:	402525c0 	call	402525c <__extendsfdf2>
 4020ab4:	1011883a 	mov	r8,r2
 4020ab8:	1813883a 	mov	r9,r3
 4020abc:	01898cb4 	movhi	r6,9778
 4020ac0:	318f2304 	addi	r6,r6,15500
 4020ac4:	01cff8b4 	movhi	r7,16354
 4020ac8:	39f65f44 	addi	r7,r7,-9859
 4020acc:	4009883a 	mov	r4,r8
 4020ad0:	480b883a 	mov	r5,r9
 4020ad4:	4022b4c0 	call	4022b4c <__adddf3>
 4020ad8:	1009883a 	mov	r4,r2
 4020adc:	180b883a 	mov	r5,r3
 4020ae0:	2005883a 	mov	r2,r4
 4020ae4:	2807883a 	mov	r3,r5
 4020ae8:	1009883a 	mov	r4,r2
 4020aec:	180b883a 	mov	r5,r3
 4020af0:	402536c0 	call	402536c <__truncdfsf2>
 4020af4:	1007883a 	mov	r3,r2
 4020af8:	1809883a 	mov	r4,r3
 4020afc:	40204ec0 	call	40204ec <tansig>
 4020b00:	1007883a 	mov	r3,r2
 4020b04:	00800034 	movhi	r2,0
 4020b08:	10879c04 	addi	r2,r2,7792
 4020b0c:	10c00515 	stw	r3,20(r2)
    output[6]=tansig(DotProduct(input1,w6)+(0.30645761337057264573));
 4020b10:	e0bfeb04 	addi	r2,fp,-84
 4020b14:	100b883a 	mov	r5,r2
 4020b18:	e13fff17 	ldw	r4,-4(fp)
 4020b1c:	402042c0 	call	402042c <DotProduct>
 4020b20:	1007883a 	mov	r3,r2
 4020b24:	1809883a 	mov	r4,r3
 4020b28:	402525c0 	call	402525c <__extendsfdf2>
 4020b2c:	1011883a 	mov	r8,r2
 4020b30:	1813883a 	mov	r9,r3
 4020b34:	019930b4 	movhi	r6,25794
 4020b38:	3196d284 	addi	r6,r6,23370
 4020b3c:	01cff534 	movhi	r7,16340
 4020b40:	39e74004 	addi	r7,r7,-25344
 4020b44:	4009883a 	mov	r4,r8
 4020b48:	480b883a 	mov	r5,r9
 4020b4c:	4022b4c0 	call	4022b4c <__adddf3>
 4020b50:	1009883a 	mov	r4,r2
 4020b54:	180b883a 	mov	r5,r3
 4020b58:	2005883a 	mov	r2,r4
 4020b5c:	2807883a 	mov	r3,r5
 4020b60:	1009883a 	mov	r4,r2
 4020b64:	180b883a 	mov	r5,r3
 4020b68:	402536c0 	call	402536c <__truncdfsf2>
 4020b6c:	1007883a 	mov	r3,r2
 4020b70:	1809883a 	mov	r4,r3
 4020b74:	40204ec0 	call	40204ec <tansig>
 4020b78:	1007883a 	mov	r3,r2
 4020b7c:	00800034 	movhi	r2,0
 4020b80:	10879c04 	addi	r2,r2,7792
 4020b84:	10c00615 	stw	r3,24(r2)
    output[7]=tansig(DotProduct(input1,w7)+(1.0923240690661593089));
 4020b88:	e0bff004 	addi	r2,fp,-64
 4020b8c:	100b883a 	mov	r5,r2
 4020b90:	e13fff17 	ldw	r4,-4(fp)
 4020b94:	402042c0 	call	402042c <DotProduct>
 4020b98:	1007883a 	mov	r3,r2
 4020b9c:	1809883a 	mov	r4,r3
 4020ba0:	402525c0 	call	402525c <__extendsfdf2>
 4020ba4:	1011883a 	mov	r8,r2
 4020ba8:	1813883a 	mov	r9,r3
 4020bac:	01b36534 	movhi	r6,52628
 4020bb0:	319758c4 	addi	r6,r6,23907
 4020bb4:	01cffc74 	movhi	r7,16369
 4020bb8:	39de8a04 	addi	r7,r7,31272
 4020bbc:	4009883a 	mov	r4,r8
 4020bc0:	480b883a 	mov	r5,r9
 4020bc4:	4022b4c0 	call	4022b4c <__adddf3>
 4020bc8:	1009883a 	mov	r4,r2
 4020bcc:	180b883a 	mov	r5,r3
 4020bd0:	2005883a 	mov	r2,r4
 4020bd4:	2807883a 	mov	r3,r5
 4020bd8:	1009883a 	mov	r4,r2
 4020bdc:	180b883a 	mov	r5,r3
 4020be0:	402536c0 	call	402536c <__truncdfsf2>
 4020be4:	1007883a 	mov	r3,r2
 4020be8:	1809883a 	mov	r4,r3
 4020bec:	40204ec0 	call	40204ec <tansig>
 4020bf0:	1007883a 	mov	r3,r2
 4020bf4:	00800034 	movhi	r2,0
 4020bf8:	10879c04 	addi	r2,r2,7792
 4020bfc:	10c00715 	stw	r3,28(r2)
    output[8]=tansig(DotProduct(input1,w8)+(1.6808282304872848023));
 4020c00:	e0bff504 	addi	r2,fp,-44
 4020c04:	100b883a 	mov	r5,r2
 4020c08:	e13fff17 	ldw	r4,-4(fp)
 4020c0c:	402042c0 	call	402042c <DotProduct>
 4020c10:	1007883a 	mov	r3,r2
 4020c14:	1809883a 	mov	r4,r3
 4020c18:	402525c0 	call	402525c <__extendsfdf2>
 4020c1c:	1011883a 	mov	r8,r2
 4020c20:	1813883a 	mov	r9,r3
 4020c24:	018920b4 	movhi	r6,9346
 4020c28:	318bb684 	addi	r6,r6,11994
 4020c2c:	01cffef4 	movhi	r7,16379
 4020c30:	39f92b04 	addi	r7,r7,-6996
 4020c34:	4009883a 	mov	r4,r8
 4020c38:	480b883a 	mov	r5,r9
 4020c3c:	4022b4c0 	call	4022b4c <__adddf3>
 4020c40:	1009883a 	mov	r4,r2
 4020c44:	180b883a 	mov	r5,r3
 4020c48:	2005883a 	mov	r2,r4
 4020c4c:	2807883a 	mov	r3,r5
 4020c50:	1009883a 	mov	r4,r2
 4020c54:	180b883a 	mov	r5,r3
 4020c58:	402536c0 	call	402536c <__truncdfsf2>
 4020c5c:	1007883a 	mov	r3,r2
 4020c60:	1809883a 	mov	r4,r3
 4020c64:	40204ec0 	call	40204ec <tansig>
 4020c68:	1007883a 	mov	r3,r2
 4020c6c:	00800034 	movhi	r2,0
 4020c70:	10879c04 	addi	r2,r2,7792
 4020c74:	10c00815 	stw	r3,32(r2)
	output[9]=tansig(DotProduct(input1,w9)+(2.3813398545941724116));
 4020c78:	e0bffa04 	addi	r2,fp,-24
 4020c7c:	100b883a 	mov	r5,r2
 4020c80:	e13fff17 	ldw	r4,-4(fp)
 4020c84:	402042c0 	call	402042c <DotProduct>
 4020c88:	1007883a 	mov	r3,r2
 4020c8c:	1809883a 	mov	r4,r3
 4020c90:	402525c0 	call	402525c <__extendsfdf2>
 4020c94:	1011883a 	mov	r8,r2
 4020c98:	1813883a 	mov	r9,r3
 4020c9c:	01ba3874 	movhi	r6,59617
 4020ca0:	31896744 	addi	r6,r6,9629
 4020ca4:	01d000f4 	movhi	r7,16387
 4020ca8:	39c33ec4 	addi	r7,r7,3323
 4020cac:	4009883a 	mov	r4,r8
 4020cb0:	480b883a 	mov	r5,r9
 4020cb4:	4022b4c0 	call	4022b4c <__adddf3>
 4020cb8:	1009883a 	mov	r4,r2
 4020cbc:	180b883a 	mov	r5,r3
 4020cc0:	2005883a 	mov	r2,r4
 4020cc4:	2807883a 	mov	r3,r5
 4020cc8:	1009883a 	mov	r4,r2
 4020ccc:	180b883a 	mov	r5,r3
 4020cd0:	402536c0 	call	402536c <__truncdfsf2>
 4020cd4:	1007883a 	mov	r3,r2
 4020cd8:	1809883a 	mov	r4,r3
 4020cdc:	40204ec0 	call	40204ec <tansig>
 4020ce0:	1007883a 	mov	r3,r2
 4020ce4:	00800034 	movhi	r2,0
 4020ce8:	10879c04 	addi	r2,r2,7792
 4020cec:	10c00915 	stw	r3,36(r2)
    return output;
 4020cf0:	00800034 	movhi	r2,0
 4020cf4:	10879c04 	addi	r2,r2,7792
}
 4020cf8:	e037883a 	mov	sp,fp
 4020cfc:	dfc00117 	ldw	ra,4(sp)
 4020d00:	df000017 	ldw	fp,0(sp)
 4020d04:	dec00204 	addi	sp,sp,8
 4020d08:	f800283a 	ret

04020d0c <DotProduct1>:
/*=======  producto punto =========*/
float DotProduct1(float input1[], float input2[])
{
 4020d0c:	defffa04 	addi	sp,sp,-24
 4020d10:	dfc00515 	stw	ra,20(sp)
 4020d14:	df000415 	stw	fp,16(sp)
 4020d18:	df000404 	addi	fp,sp,16
 4020d1c:	e13ffe15 	stw	r4,-8(fp)
 4020d20:	e17fff15 	stw	r5,-4(fp)
    int i=0;
 4020d24:	e03ffc15 	stw	zero,-16(fp)
    float acumulador=0;
 4020d28:	e03ffd15 	stw	zero,-12(fp)
    for (i=0;i!=10;i++)									//<--------Segun el numero de neuronas en el hidden layer
 4020d2c:	e03ffc15 	stw	zero,-16(fp)
 4020d30:	00001b06 	br	4020da0 <DotProduct1+0x94>
    {
        acumulador=input1[i]*input2[i]+acumulador;
 4020d34:	e0bffc17 	ldw	r2,-16(fp)
 4020d38:	1085883a 	add	r2,r2,r2
 4020d3c:	1085883a 	add	r2,r2,r2
 4020d40:	1007883a 	mov	r3,r2
 4020d44:	e0bffe17 	ldw	r2,-8(fp)
 4020d48:	10c5883a 	add	r2,r2,r3
 4020d4c:	10c00017 	ldw	r3,0(r2)
 4020d50:	e0bffc17 	ldw	r2,-16(fp)
 4020d54:	1085883a 	add	r2,r2,r2
 4020d58:	1085883a 	add	r2,r2,r2
 4020d5c:	1009883a 	mov	r4,r2
 4020d60:	e0bfff17 	ldw	r2,-4(fp)
 4020d64:	1105883a 	add	r2,r2,r4
 4020d68:	11000017 	ldw	r4,0(r2)
 4020d6c:	200b883a 	mov	r5,r4
 4020d70:	1809883a 	mov	r4,r3
 4020d74:	40221480 	call	4022148 <__mulsf3>
 4020d78:	1007883a 	mov	r3,r2
 4020d7c:	1805883a 	mov	r2,r3
 4020d80:	100b883a 	mov	r5,r2
 4020d84:	e13ffd17 	ldw	r4,-12(fp)
 4020d88:	40218400 	call	4021840 <__addsf3>
 4020d8c:	1007883a 	mov	r3,r2
 4020d90:	e0fffd15 	stw	r3,-12(fp)
/*=======  producto punto =========*/
float DotProduct1(float input1[], float input2[])
{
    int i=0;
    float acumulador=0;
    for (i=0;i!=10;i++)									//<--------Segun el numero de neuronas en el hidden layer
 4020d94:	e0bffc17 	ldw	r2,-16(fp)
 4020d98:	10800044 	addi	r2,r2,1
 4020d9c:	e0bffc15 	stw	r2,-16(fp)
 4020da0:	e0bffc17 	ldw	r2,-16(fp)
 4020da4:	10800298 	cmpnei	r2,r2,10
 4020da8:	103fe21e 	bne	r2,zero,4020d34 <__flash_rwdata_start+0xfffee460>
    {
        acumulador=input1[i]*input2[i]+acumulador;
    }
    return acumulador;
 4020dac:	e0bffd17 	ldw	r2,-12(fp)
 4020db0:	1007883a 	mov	r3,r2
}
 4020db4:	1805883a 	mov	r2,r3
 4020db8:	e037883a 	mov	sp,fp
 4020dbc:	dfc00117 	ldw	ra,4(sp)
 4020dc0:	df000017 	ldw	fp,0(sp)
 4020dc4:	dec00204 	addi	sp,sp,8
 4020dc8:	f800283a 	ret

04020dcc <mapminreverse>:
/*=======  funcion mapminreverse =========*/
float mapminreverse(float input)
{
 4020dcc:	defff804 	addi	sp,sp,-32
 4020dd0:	dfc00715 	stw	ra,28(sp)
 4020dd4:	df000615 	stw	fp,24(sp)
 4020dd8:	dc000515 	stw	r16,20(sp)
 4020ddc:	df000604 	addi	fp,sp,24
 4020de0:	e13ffe15 	stw	r4,-8(fp)
    float ymax=1,ymin=-1;
 4020de4:	008fe034 	movhi	r2,16256
 4020de8:	e0bffa15 	stw	r2,-24(fp)
 4020dec:	00afe034 	movhi	r2,49024
 4020df0:	e0bffb15 	stw	r2,-20(fp)
    float xmin=32;										//<--------min salida
 4020df4:	00908034 	movhi	r2,16896
 4020df8:	e0bffc15 	stw	r2,-16(fp)
    float xmax=52;										//<--------max salida
 4020dfc:	00909434 	movhi	r2,16976
 4020e00:	e0bffd15 	stw	r2,-12(fp)
    static float output;
    output=((xmax-xmin)/(ymax-ymin))*(input-ymin)+xmin;
 4020e04:	e17ffc17 	ldw	r5,-16(fp)
 4020e08:	e13ffd17 	ldw	r4,-12(fp)
 4020e0c:	40225780 	call	4022578 <__subsf3>
 4020e10:	1007883a 	mov	r3,r2
 4020e14:	1821883a 	mov	r16,r3
 4020e18:	e17ffb17 	ldw	r5,-20(fp)
 4020e1c:	e13ffa17 	ldw	r4,-24(fp)
 4020e20:	40225780 	call	4022578 <__subsf3>
 4020e24:	1007883a 	mov	r3,r2
 4020e28:	1805883a 	mov	r2,r3
 4020e2c:	100b883a 	mov	r5,r2
 4020e30:	8009883a 	mov	r4,r16
 4020e34:	4021d080 	call	4021d08 <__divsf3>
 4020e38:	1007883a 	mov	r3,r2
 4020e3c:	1821883a 	mov	r16,r3
 4020e40:	e17ffb17 	ldw	r5,-20(fp)
 4020e44:	e13ffe17 	ldw	r4,-8(fp)
 4020e48:	40225780 	call	4022578 <__subsf3>
 4020e4c:	1007883a 	mov	r3,r2
 4020e50:	1805883a 	mov	r2,r3
 4020e54:	100b883a 	mov	r5,r2
 4020e58:	8009883a 	mov	r4,r16
 4020e5c:	40221480 	call	4022148 <__mulsf3>
 4020e60:	1007883a 	mov	r3,r2
 4020e64:	1805883a 	mov	r2,r3
 4020e68:	e17ffc17 	ldw	r5,-16(fp)
 4020e6c:	1009883a 	mov	r4,r2
 4020e70:	40218400 	call	4021840 <__addsf3>
 4020e74:	1007883a 	mov	r3,r2
 4020e78:	1805883a 	mov	r2,r3
 4020e7c:	d0a01115 	stw	r2,-32700(gp)
    return output;
 4020e80:	d0a01117 	ldw	r2,-32700(gp)
 4020e84:	1007883a 	mov	r3,r2
}
 4020e88:	1805883a 	mov	r2,r3
 4020e8c:	e6ffff04 	addi	sp,fp,-4
 4020e90:	dfc00217 	ldw	ra,8(sp)
 4020e94:	df000117 	ldw	fp,4(sp)
 4020e98:	dc000017 	ldw	r16,0(sp)
 4020e9c:	dec00304 	addi	sp,sp,12
 4020ea0:	f800283a 	ret

04020ea4 <layer2>:
/*=======  output layer =========*/
float layer2(float *input1)
{
 4020ea4:	defff304 	addi	sp,sp,-52
 4020ea8:	dfc00c15 	stw	ra,48(sp)
 4020eac:	df000b15 	stw	fp,44(sp)
 4020eb0:	df000b04 	addi	fp,sp,44
 4020eb4:	e13fff15 	stw	r4,-4(fp)
    float static output1;
    float w0[]={0.1770890458616809493,0.18442331894640406897,-4.131073713753200316,-2.482458842655363096,1.6736695009645763399,-1.5433245094111347484,0.67502930505177860532,-0.19344688191339304284,-0.17768324384102607283,0.25820352972869753394};
 4020eb8:	008f8d74 	movhi	r2,15925
 4020ebc:	1095b544 	addi	r2,r2,22229
 4020ec0:	e0bff515 	stw	r2,-44(fp)
 4020ec4:	008f8f74 	movhi	r2,15933
 4020ec8:	10b65dc4 	addi	r2,r2,-9865
 4020ecc:	e0bff615 	stw	r2,-40(fp)
 4020ed0:	00b02134 	movhi	r2,49284
 4020ed4:	108c7084 	addi	r2,r2,12738
 4020ed8:	e0bff715 	stw	r2,-36(fp)
 4020edc:	00b007f4 	movhi	r2,49183
 4020ee0:	10b826c4 	addi	r2,r2,-8037
 4020ee4:	e0bff815 	stw	r2,-32(fp)
 4020ee8:	008ff5b4 	movhi	r2,16342
 4020eec:	108eb344 	addi	r2,r2,15053
 4020ef0:	e0bff915 	stw	r2,-28(fp)
 4020ef4:	00aff1b4 	movhi	r2,49094
 4020ef8:	10a2ea04 	addi	r2,r2,-29784
 4020efc:	e0bffa15 	stw	r2,-24(fp)
 4020f00:	008fcb74 	movhi	r2,16173
 4020f04:	10b3ae04 	addi	r2,r2,-12616
 4020f08:	e0bffb15 	stw	r2,-20(fp)
 4020f0c:	00af91b4 	movhi	r2,48710
 4020f10:	1085bc04 	addi	r2,r2,5872
 4020f14:	e0bffc15 	stw	r2,-16(fp)
 4020f18:	00af8db4 	movhi	r2,48694
 4020f1c:	10bca644 	addi	r2,r2,-3431
 4020f20:	e0bffd15 	stw	r2,-12(fp)
 4020f24:	008fa134 	movhi	r2,16004
 4020f28:	108cd044 	addi	r2,r2,13121
 4020f2c:	e0bffe15 	stw	r2,-8(fp)
    output1=DotProduct1(input1,w0)+(1.9015988320641858955);
 4020f30:	e17ff504 	addi	r5,fp,-44
 4020f34:	e13fff17 	ldw	r4,-4(fp)
 4020f38:	4020d0c0 	call	4020d0c <DotProduct1>
 4020f3c:	1007883a 	mov	r3,r2
 4020f40:	1809883a 	mov	r4,r3
 4020f44:	402525c0 	call	402525c <__extendsfdf2>
 4020f48:	1011883a 	mov	r8,r2
 4020f4c:	1813883a 	mov	r9,r3
 4020f50:	01b96774 	movhi	r6,58781
 4020f54:	318f5584 	addi	r6,r6,15702
 4020f58:	01cfffb4 	movhi	r7,16382
 4020f5c:	39db3c84 	addi	r7,r7,27890
 4020f60:	4009883a 	mov	r4,r8
 4020f64:	480b883a 	mov	r5,r9
 4020f68:	4022b4c0 	call	4022b4c <__adddf3>
 4020f6c:	1009883a 	mov	r4,r2
 4020f70:	180b883a 	mov	r5,r3
 4020f74:	2005883a 	mov	r2,r4
 4020f78:	2807883a 	mov	r3,r5
 4020f7c:	1009883a 	mov	r4,r2
 4020f80:	180b883a 	mov	r5,r3
 4020f84:	402536c0 	call	402536c <__truncdfsf2>
 4020f88:	1007883a 	mov	r3,r2
 4020f8c:	d0e01215 	stw	r3,-32696(gp)
	return mapminreverse(output1);
 4020f90:	d0a01217 	ldw	r2,-32696(gp)
 4020f94:	1009883a 	mov	r4,r2
 4020f98:	4020dcc0 	call	4020dcc <mapminreverse>
 4020f9c:	1007883a 	mov	r3,r2
 4020fa0:	1805883a 	mov	r2,r3
}
 4020fa4:	e037883a 	mov	sp,fp
 4020fa8:	dfc00117 	ldw	ra,4(sp)
 4020fac:	df000017 	ldw	fp,0(sp)
 4020fb0:	dec00204 	addi	sp,sp,8
 4020fb4:	f800283a 	ret

04020fb8 <main>:
/*=======  main =========*/
int main()
{
 4020fb8:	deffe004 	addi	sp,sp,-128
 4020fbc:	dfc01f15 	stw	ra,124(sp)
 4020fc0:	df001e15 	stw	fp,120(sp)
 4020fc4:	df001e04 	addi	fp,sp,120
	volatile int * memoria = (int *) 0x00; // SDRAM address
 4020fc8:	e03fe315 	stw	zero,-116(fp)
	unsigned int ldr;
	unsigned int humedad_suelo;
	unsigned int humedad_aire;
	unsigned int temperatura;
	//Valores iniciales
	IOWR(memoria,0x000,25);
 4020fcc:	00c00644 	movi	r3,25
 4020fd0:	e0bfe317 	ldw	r2,-116(fp)
 4020fd4:	10c00035 	stwio	r3,0(r2)
	IOWR(memoria,0x001,76);
 4020fd8:	e0bfe317 	ldw	r2,-116(fp)
 4020fdc:	10800104 	addi	r2,r2,4
 4020fe0:	00c01304 	movi	r3,76
 4020fe4:	10c00035 	stwio	r3,0(r2)
	IOWR(memoria,0x002,45);
 4020fe8:	e0bfe317 	ldw	r2,-116(fp)
 4020fec:	10800204 	addi	r2,r2,8
 4020ff0:	00c00b44 	movi	r3,45
 4020ff4:	10c00035 	stwio	r3,0(r2)
	IOWR(memoria,0x003,44);
 4020ff8:	e0bfe317 	ldw	r2,-116(fp)
 4020ffc:	10800304 	addi	r2,r2,12
 4021000:	00c00b04 	movi	r3,44
 4021004:	10c00035 	stwio	r3,0(r2)

	while (1){
		//Lectura de datos
		ldr = IORD(memoria,0x000);
 4021008:	e0bfe317 	ldw	r2,-116(fp)
 402100c:	10800037 	ldwio	r2,0(r2)
 4021010:	e0bfe415 	stw	r2,-112(fp)
		humedad_suelo = IORD(memoria,0x001);
 4021014:	e0bfe317 	ldw	r2,-116(fp)
 4021018:	10800104 	addi	r2,r2,4
 402101c:	10800037 	ldwio	r2,0(r2)
 4021020:	e0bfe515 	stw	r2,-108(fp)
		humedad_aire = IORD(memoria,0x002);
 4021024:	e0bfe317 	ldw	r2,-116(fp)
 4021028:	10800204 	addi	r2,r2,8
 402102c:	10800037 	ldwio	r2,0(r2)
 4021030:	e0bfe615 	stw	r2,-104(fp)
		temperatura = IORD(memoria,0x003);
 4021034:	e0bfe317 	ldw	r2,-116(fp)
 4021038:	10800304 	addi	r2,r2,12
 402103c:	10800037 	ldwio	r2,0(r2)
 4021040:	e0bfe715 	stw	r2,-100(fp)
		//printf("El valor de la humedad_suelo es --> %d Porciento \n",humedad_suelo);
		//printf("El valor de la humedad_aire es --> %d Porciento \n",humedad_aire);
		//printf("El valor de la temperatura es --> %d  \n",temperatura);

		/*=======  niNN vector de entrada =========*/
		float niNN[]={0.1,ldr,humedad_aire,temperatura,humedad_suelo}; //'Tiempo','Luz','Humedad Aire','Temperatura','Humedad Suelo'
 4021044:	008f7374 	movhi	r2,15821
 4021048:	10b33344 	addi	r2,r2,-13107
 402104c:	e0bfeb15 	stw	r2,-84(fp)
 4021050:	e13fe417 	ldw	r4,-112(fp)
 4021054:	4022a5c0 	call	4022a5c <__floatunsisf>
 4021058:	1007883a 	mov	r3,r2
 402105c:	e0ffec15 	stw	r3,-80(fp)
 4021060:	e13fe617 	ldw	r4,-104(fp)
 4021064:	4022a5c0 	call	4022a5c <__floatunsisf>
 4021068:	1007883a 	mov	r3,r2
 402106c:	e0ffed15 	stw	r3,-76(fp)
 4021070:	e13fe717 	ldw	r4,-100(fp)
 4021074:	4022a5c0 	call	4022a5c <__floatunsisf>
 4021078:	1007883a 	mov	r3,r2
 402107c:	e0ffee15 	stw	r3,-72(fp)
 4021080:	e13fe517 	ldw	r4,-108(fp)
 4021084:	4022a5c0 	call	4022a5c <__floatunsisf>
 4021088:	1007883a 	mov	r3,r2
 402108c:	e0ffef15 	stw	r3,-68(fp)
		int n;
		float *GPP1=mapminmax(niNN);
 4021090:	e0bfeb04 	addi	r2,fp,-84
 4021094:	1009883a 	mov	r4,r2
 4021098:	402026c0 	call	402026c <mapminmax>
 402109c:	e0bfe815 	stw	r2,-96(fp)
		float input1[6];									//<--------------segun el numero de entradas
		float input2[10];									//<--------Segun el numero de neuronas en el hidden layer
		for(n=0;n<5;n++)									//<--------------segun el numero de entradas
 40210a0:	e03fe215 	stw	zero,-120(fp)
 40210a4:	00001106 	br	40210ec <main+0x134>
		{
			input1[n]=GPP1[n];
 40210a8:	e0bfe217 	ldw	r2,-120(fp)
 40210ac:	1085883a 	add	r2,r2,r2
 40210b0:	1085883a 	add	r2,r2,r2
 40210b4:	1007883a 	mov	r3,r2
 40210b8:	e0bfe817 	ldw	r2,-96(fp)
 40210bc:	10c5883a 	add	r2,r2,r3
 40210c0:	10c00017 	ldw	r3,0(r2)
 40210c4:	e0bfe217 	ldw	r2,-120(fp)
 40210c8:	1085883a 	add	r2,r2,r2
 40210cc:	1085883a 	add	r2,r2,r2
 40210d0:	e13fe204 	addi	r4,fp,-120
 40210d4:	2085883a 	add	r2,r4,r2
 40210d8:	10800e04 	addi	r2,r2,56
 40210dc:	10c00015 	stw	r3,0(r2)
		float niNN[]={0.1,ldr,humedad_aire,temperatura,humedad_suelo}; //'Tiempo','Luz','Humedad Aire','Temperatura','Humedad Suelo'
		int n;
		float *GPP1=mapminmax(niNN);
		float input1[6];									//<--------------segun el numero de entradas
		float input2[10];									//<--------Segun el numero de neuronas en el hidden layer
		for(n=0;n<5;n++)									//<--------------segun el numero de entradas
 40210e0:	e0bfe217 	ldw	r2,-120(fp)
 40210e4:	10800044 	addi	r2,r2,1
 40210e8:	e0bfe215 	stw	r2,-120(fp)
 40210ec:	e0bfe217 	ldw	r2,-120(fp)
 40210f0:	10800150 	cmplti	r2,r2,5
 40210f4:	103fec1e 	bne	r2,zero,40210a8 <__flash_rwdata_start+0xfffee7d4>
		{
			input1[n]=GPP1[n];
		}
		float *GPP2=layer1(input1);
 40210f8:	e0bff004 	addi	r2,fp,-64
 40210fc:	1009883a 	mov	r4,r2
 4021100:	40205d80 	call	40205d8 <layer1>
 4021104:	e0bfe915 	stw	r2,-92(fp)
		for(n=0;n<10;n++)									//<--------Segun el numero de neuronas en el hidden layer
 4021108:	e03fe215 	stw	zero,-120(fp)
 402110c:	00001106 	br	4021154 <main+0x19c>
		{
			input2[n]=GPP2[n];
 4021110:	e0bfe217 	ldw	r2,-120(fp)
 4021114:	1085883a 	add	r2,r2,r2
 4021118:	1085883a 	add	r2,r2,r2
 402111c:	1007883a 	mov	r3,r2
 4021120:	e0bfe917 	ldw	r2,-92(fp)
 4021124:	10c5883a 	add	r2,r2,r3
 4021128:	10c00017 	ldw	r3,0(r2)
 402112c:	e0bfe217 	ldw	r2,-120(fp)
 4021130:	1085883a 	add	r2,r2,r2
 4021134:	1085883a 	add	r2,r2,r2
 4021138:	e13fe204 	addi	r4,fp,-120
 402113c:	2085883a 	add	r2,r4,r2
 4021140:	10801404 	addi	r2,r2,80
 4021144:	10c00015 	stw	r3,0(r2)
		for(n=0;n<5;n++)									//<--------------segun el numero de entradas
		{
			input1[n]=GPP1[n];
		}
		float *GPP2=layer1(input1);
		for(n=0;n<10;n++)									//<--------Segun el numero de neuronas en el hidden layer
 4021148:	e0bfe217 	ldw	r2,-120(fp)
 402114c:	10800044 	addi	r2,r2,1
 4021150:	e0bfe215 	stw	r2,-120(fp)
 4021154:	e0bfe217 	ldw	r2,-120(fp)
 4021158:	10800290 	cmplti	r2,r2,10
 402115c:	103fec1e 	bne	r2,zero,4021110 <__flash_rwdata_start+0xfffee83c>
		{
			input2[n]=GPP2[n];
		}
		float output=layer2(input2);
 4021160:	e0bff604 	addi	r2,fp,-40
 4021164:	1009883a 	mov	r4,r2
 4021168:	4020ea40 	call	4020ea4 <layer2>
 402116c:	e0bfea15 	stw	r2,-88(fp)
		printf("%f\n",output);
 4021170:	e13fea17 	ldw	r4,-88(fp)
 4021174:	402525c0 	call	402525c <__extendsfdf2>
 4021178:	100d883a 	mov	r6,r2
 402117c:	180f883a 	mov	r7,r3
 4021180:	300b883a 	mov	r5,r6
 4021184:	380d883a 	mov	r6,r7
 4021188:	01000034 	movhi	r4,0
 402118c:	21000004 	addi	r4,r4,0
 4021190:	40257940 	call	4025794 <printf>
		usleep(1000000);
 4021194:	010003f4 	movhi	r4,15
 4021198:	21109004 	addi	r4,r4,16960
 402119c:	40304d80 	call	40304d8 <usleep>
	}
 40211a0:	003f9906 	br	4021008 <__flash_rwdata_start+0xfffee734>

040211a4 <exp>:
 40211a4:	defff104 	addi	sp,sp,-60
 40211a8:	dd000d15 	stw	r20,52(sp)
 40211ac:	05000034 	movhi	r20,0
 40211b0:	dcc00c15 	stw	r19,48(sp)
 40211b4:	dc800b15 	stw	r18,44(sp)
 40211b8:	dc400a15 	stw	r17,40(sp)
 40211bc:	dc000915 	stw	r16,36(sp)
 40211c0:	dfc00e15 	stw	ra,56(sp)
 40211c4:	a5077604 	addi	r20,r20,7640
 40211c8:	2027883a 	mov	r19,r4
 40211cc:	2825883a 	mov	r18,r5
 40211d0:	40213340 	call	4021334 <__ieee754_exp>
 40211d4:	1821883a 	mov	r16,r3
 40211d8:	a0c00017 	ldw	r3,0(r20)
 40211dc:	1023883a 	mov	r17,r2
 40211e0:	00bfffc4 	movi	r2,-1
 40211e4:	18802e26 	beq	r3,r2,40212a0 <exp+0xfc>
 40211e8:	9809883a 	mov	r4,r19
 40211ec:	900b883a 	mov	r5,r18
 40211f0:	402181c0 	call	402181c <finite>
 40211f4:	10002a26 	beq	r2,zero,40212a0 <exp+0xfc>
 40211f8:	01bfbeb4 	movhi	r6,65274
 40211fc:	01d021b4 	movhi	r7,16518
 4021200:	318e7bc4 	addi	r6,r6,14831
 4021204:	39cb9084 	addi	r7,r7,11842
 4021208:	9809883a 	mov	r4,r19
 402120c:	900b883a 	mov	r5,r18
 4021210:	4023dc80 	call	4023dc8 <__gedf2>
 4021214:	00802c16 	blt	zero,r2,40212c8 <exp+0x124>
 4021218:	01b54b74 	movhi	r6,54573
 402121c:	01f021f4 	movhi	r7,49287
 4021220:	318c1444 	addi	r6,r6,12369
 4021224:	39d24404 	addi	r7,r7,18704
 4021228:	9809883a 	mov	r4,r19
 402122c:	900b883a 	mov	r5,r18
 4021230:	4023ea40 	call	4023ea4 <__ledf2>
 4021234:	10001a0e 	bge	r2,zero,40212a0 <exp+0xfc>
 4021238:	00800104 	movi	r2,4
 402123c:	d8800015 	stw	r2,0(sp)
 4021240:	a0c00017 	ldw	r3,0(r20)
 4021244:	00800034 	movhi	r2,0
 4021248:	10800104 	addi	r2,r2,4
 402124c:	d8800115 	stw	r2,4(sp)
 4021250:	d8000815 	stw	zero,32(sp)
 4021254:	dcc00415 	stw	r19,16(sp)
 4021258:	dc800515 	stw	r18,20(sp)
 402125c:	dcc00215 	stw	r19,8(sp)
 4021260:	dc800315 	stw	r18,12(sp)
 4021264:	d8000615 	stw	zero,24(sp)
 4021268:	d8000715 	stw	zero,28(sp)
 402126c:	00800084 	movi	r2,2
 4021270:	18802c26 	beq	r3,r2,4021324 <exp+0x180>
 4021274:	d809883a 	mov	r4,sp
 4021278:	40218380 	call	4021838 <matherr>
 402127c:	10002926 	beq	r2,zero,4021324 <exp+0x180>
 4021280:	d8800817 	ldw	r2,32(sp)
 4021284:	10000326 	beq	r2,zero,4021294 <exp+0xf0>
 4021288:	40257540 	call	4025754 <__errno>
 402128c:	d8c00817 	ldw	r3,32(sp)
 4021290:	10c00015 	stw	r3,0(r2)
 4021294:	d8800617 	ldw	r2,24(sp)
 4021298:	d8c00717 	ldw	r3,28(sp)
 402129c:	00000206 	br	40212a8 <exp+0x104>
 40212a0:	8805883a 	mov	r2,r17
 40212a4:	8007883a 	mov	r3,r16
 40212a8:	dfc00e17 	ldw	ra,56(sp)
 40212ac:	dd000d17 	ldw	r20,52(sp)
 40212b0:	dcc00c17 	ldw	r19,48(sp)
 40212b4:	dc800b17 	ldw	r18,44(sp)
 40212b8:	dc400a17 	ldw	r17,40(sp)
 40212bc:	dc000917 	ldw	r16,36(sp)
 40212c0:	dec00f04 	addi	sp,sp,60
 40212c4:	f800283a 	ret
 40212c8:	00c000c4 	movi	r3,3
 40212cc:	d8c00015 	stw	r3,0(sp)
 40212d0:	a0800017 	ldw	r2,0(r20)
 40212d4:	00c00034 	movhi	r3,0
 40212d8:	18c00104 	addi	r3,r3,4
 40212dc:	d8c00115 	stw	r3,4(sp)
 40212e0:	d8000815 	stw	zero,32(sp)
 40212e4:	dcc00415 	stw	r19,16(sp)
 40212e8:	dc800515 	stw	r18,20(sp)
 40212ec:	dcc00215 	stw	r19,8(sp)
 40212f0:	dc800315 	stw	r18,12(sp)
 40212f4:	1000061e 	bne	r2,zero,4021310 <exp+0x16c>
 40212f8:	00b80034 	movhi	r2,57344
 40212fc:	d8800615 	stw	r2,24(sp)
 4021300:	0091fc34 	movhi	r2,18416
 4021304:	10bfffc4 	addi	r2,r2,-1
 4021308:	d8800715 	stw	r2,28(sp)
 402130c:	003fd906 	br	4021274 <__flash_rwdata_start+0xfffee9a0>
 4021310:	00dffc34 	movhi	r3,32752
 4021314:	d8c00715 	stw	r3,28(sp)
 4021318:	d8000615 	stw	zero,24(sp)
 402131c:	00c00084 	movi	r3,2
 4021320:	10ffd41e 	bne	r2,r3,4021274 <__flash_rwdata_start+0xfffee9a0>
 4021324:	40257540 	call	4025754 <__errno>
 4021328:	00c00884 	movi	r3,34
 402132c:	10c00015 	stw	r3,0(r2)
 4021330:	003fd306 	br	4021280 <__flash_rwdata_start+0xfffee9ac>

04021334 <__ieee754_exp>:
 4021334:	00e00034 	movhi	r3,32768
 4021338:	defff604 	addi	sp,sp,-40
 402133c:	18ffffc4 	addi	r3,r3,-1
 4021340:	009021b4 	movhi	r2,16518
 4021344:	ddc00715 	stw	r23,28(sp)
 4021348:	dc400115 	stw	r17,4(sp)
 402134c:	dc000015 	stw	r16,0(sp)
 4021350:	dfc00915 	stw	ra,36(sp)
 4021354:	df000815 	stw	fp,32(sp)
 4021358:	dd800615 	stw	r22,24(sp)
 402135c:	dd400515 	stw	r21,20(sp)
 4021360:	dd000415 	stw	r20,16(sp)
 4021364:	dcc00315 	stw	r19,12(sp)
 4021368:	dc800215 	stw	r18,8(sp)
 402136c:	28c6703a 	and	r3,r5,r3
 4021370:	108b9044 	addi	r2,r2,11841
 4021374:	2821883a 	mov	r16,r5
 4021378:	2023883a 	mov	r17,r4
 402137c:	282ed7fa 	srli	r23,r5,31
 4021380:	10c00c2e 	bgeu	r2,r3,40213b4 <__ieee754_exp+0x80>
 4021384:	009ffc34 	movhi	r2,32752
 4021388:	10bfffc4 	addi	r2,r2,-1
 402138c:	10c08b2e 	bgeu	r2,r3,40215bc <__ieee754_exp+0x288>
 4021390:	00800434 	movhi	r2,16
 4021394:	10bfffc4 	addi	r2,r2,-1
 4021398:	2884703a 	and	r2,r5,r2
 402139c:	1104b03a 	or	r2,r2,r4
 40213a0:	1000fb1e 	bne	r2,zero,4021790 <__ieee754_exp+0x45c>
 40213a4:	b8011a1e 	bne	r23,zero,4021810 <__ieee754_exp+0x4dc>
 40213a8:	2005883a 	mov	r2,r4
 40213ac:	2807883a 	mov	r3,r5
 40213b0:	00007606 	br	402158c <__ieee754_exp+0x258>
 40213b4:	008ff5b4 	movhi	r2,16342
 40213b8:	108b9084 	addi	r2,r2,11842
 40213bc:	10c0c336 	bltu	r2,r3,40216cc <__ieee754_exp+0x398>
 40213c0:	008f8c34 	movhi	r2,15920
 40213c4:	10bfffc4 	addi	r2,r2,-1
 40213c8:	10c0d52e 	bgeu	r2,r3,4021720 <__ieee754_exp+0x3ec>
 40213cc:	0025883a 	mov	r18,zero
 40213d0:	880d883a 	mov	r6,r17
 40213d4:	800f883a 	mov	r7,r16
 40213d8:	8809883a 	mov	r4,r17
 40213dc:	800b883a 	mov	r5,r16
 40213e0:	4023f980 	call	4023f98 <__muldf3>
 40213e4:	019caff4 	movhi	r6,29375
 40213e8:	01cf99b4 	movhi	r7,15974
 40213ec:	31a93404 	addi	r6,r6,-23344
 40213f0:	39cdda44 	addi	r7,r7,14185
 40213f4:	1009883a 	mov	r4,r2
 40213f8:	180b883a 	mov	r5,r3
 40213fc:	1039883a 	mov	fp,r2
 4021400:	182f883a 	mov	r23,r3
 4021404:	4023f980 	call	4023f98 <__muldf3>
 4021408:	01b174b4 	movhi	r6,50642
 402140c:	01cfaf34 	movhi	r7,16060
 4021410:	319afc44 	addi	r6,r6,27633
 4021414:	39ef5044 	addi	r7,r7,-17087
 4021418:	1009883a 	mov	r4,r2
 402141c:	180b883a 	mov	r5,r3
 4021420:	40248040 	call	4024804 <__subdf3>
 4021424:	e00d883a 	mov	r6,fp
 4021428:	b80f883a 	mov	r7,r23
 402142c:	1009883a 	mov	r4,r2
 4021430:	180b883a 	mov	r5,r3
 4021434:	4023f980 	call	4023f98 <__muldf3>
 4021438:	01abc9b4 	movhi	r6,44838
 402143c:	01cfc474 	movhi	r7,16145
 4021440:	31b78b04 	addi	r6,r6,-8660
 4021444:	39d59a84 	addi	r7,r7,22122
 4021448:	1009883a 	mov	r4,r2
 402144c:	180b883a 	mov	r5,r3
 4021450:	4022b4c0 	call	4022b4c <__adddf3>
 4021454:	e00d883a 	mov	r6,fp
 4021458:	b80f883a 	mov	r7,r23
 402145c:	1009883a 	mov	r4,r2
 4021460:	180b883a 	mov	r5,r3
 4021464:	4023f980 	call	4023f98 <__muldf3>
 4021468:	0185aff4 	movhi	r6,5823
 402146c:	01cfd9f4 	movhi	r7,16231
 4021470:	31af64c4 	addi	r6,r6,-17005
 4021474:	39f05b04 	addi	r7,r7,-16020
 4021478:	1009883a 	mov	r4,r2
 402147c:	180b883a 	mov	r5,r3
 4021480:	40248040 	call	4024804 <__subdf3>
 4021484:	e00d883a 	mov	r6,fp
 4021488:	b80f883a 	mov	r7,r23
 402148c:	1009883a 	mov	r4,r2
 4021490:	180b883a 	mov	r5,r3
 4021494:	4023f980 	call	4023f98 <__muldf3>
 4021498:	01955574 	movhi	r6,21845
 402149c:	01cff174 	movhi	r7,16325
 40214a0:	31954f84 	addi	r6,r6,21822
 40214a4:	39d55544 	addi	r7,r7,21845
 40214a8:	1009883a 	mov	r4,r2
 40214ac:	180b883a 	mov	r5,r3
 40214b0:	4022b4c0 	call	4022b4c <__adddf3>
 40214b4:	e00d883a 	mov	r6,fp
 40214b8:	b80f883a 	mov	r7,r23
 40214bc:	1009883a 	mov	r4,r2
 40214c0:	180b883a 	mov	r5,r3
 40214c4:	4023f980 	call	4023f98 <__muldf3>
 40214c8:	100d883a 	mov	r6,r2
 40214cc:	180f883a 	mov	r7,r3
 40214d0:	8809883a 	mov	r4,r17
 40214d4:	800b883a 	mov	r5,r16
 40214d8:	40248040 	call	4024804 <__subdf3>
 40214dc:	1039883a 	mov	fp,r2
 40214e0:	182f883a 	mov	r23,r3
 40214e4:	9000ae26 	beq	r18,zero,40217a0 <__ieee754_exp+0x46c>
 40214e8:	8809883a 	mov	r4,r17
 40214ec:	800b883a 	mov	r5,r16
 40214f0:	100d883a 	mov	r6,r2
 40214f4:	180f883a 	mov	r7,r3
 40214f8:	4023f980 	call	4023f98 <__muldf3>
 40214fc:	e00d883a 	mov	r6,fp
 4021500:	b80f883a 	mov	r7,r23
 4021504:	0009883a 	mov	r4,zero
 4021508:	01500034 	movhi	r5,16384
 402150c:	1023883a 	mov	r17,r2
 4021510:	1821883a 	mov	r16,r3
 4021514:	40248040 	call	4024804 <__subdf3>
 4021518:	100d883a 	mov	r6,r2
 402151c:	180f883a 	mov	r7,r3
 4021520:	8809883a 	mov	r4,r17
 4021524:	800b883a 	mov	r5,r16
 4021528:	40233f80 	call	40233f8 <__divdf3>
 402152c:	100d883a 	mov	r6,r2
 4021530:	180f883a 	mov	r7,r3
 4021534:	b009883a 	mov	r4,r22
 4021538:	a80b883a 	mov	r5,r21
 402153c:	40248040 	call	4024804 <__subdf3>
 4021540:	a00d883a 	mov	r6,r20
 4021544:	980f883a 	mov	r7,r19
 4021548:	1009883a 	mov	r4,r2
 402154c:	180b883a 	mov	r5,r3
 4021550:	40248040 	call	4024804 <__subdf3>
 4021554:	0009883a 	mov	r4,zero
 4021558:	100d883a 	mov	r6,r2
 402155c:	180f883a 	mov	r7,r3
 4021560:	014ffc34 	movhi	r5,16368
 4021564:	40248040 	call	4024804 <__subdf3>
 4021568:	013f00c4 	movi	r4,-1021
 402156c:	91007d0e 	bge	r18,r4,4021764 <__ieee754_exp+0x430>
 4021570:	9140fa04 	addi	r5,r18,1000
 4021574:	280a953a 	slli	r5,r5,20
 4021578:	000d883a 	mov	r6,zero
 402157c:	01c05c34 	movhi	r7,368
 4021580:	1009883a 	mov	r4,r2
 4021584:	28cb883a 	add	r5,r5,r3
 4021588:	4023f980 	call	4023f98 <__muldf3>
 402158c:	dfc00917 	ldw	ra,36(sp)
 4021590:	df000817 	ldw	fp,32(sp)
 4021594:	ddc00717 	ldw	r23,28(sp)
 4021598:	dd800617 	ldw	r22,24(sp)
 402159c:	dd400517 	ldw	r21,20(sp)
 40215a0:	dd000417 	ldw	r20,16(sp)
 40215a4:	dcc00317 	ldw	r19,12(sp)
 40215a8:	dc800217 	ldw	r18,8(sp)
 40215ac:	dc400117 	ldw	r17,4(sp)
 40215b0:	dc000017 	ldw	r16,0(sp)
 40215b4:	dec00a04 	addi	sp,sp,40
 40215b8:	f800283a 	ret
 40215bc:	01bfbeb4 	movhi	r6,65274
 40215c0:	01d021b4 	movhi	r7,16518
 40215c4:	318e7bc4 	addi	r6,r6,14831
 40215c8:	39cb9084 	addi	r7,r7,11842
 40215cc:	4023dc80 	call	4023dc8 <__gedf2>
 40215d0:	00806716 	blt	zero,r2,4021770 <__ieee754_exp+0x43c>
 40215d4:	01b54b74 	movhi	r6,54573
 40215d8:	01f021f4 	movhi	r7,49287
 40215dc:	318c1444 	addi	r6,r6,12369
 40215e0:	39d24404 	addi	r7,r7,18704
 40215e4:	8809883a 	mov	r4,r17
 40215e8:	800b883a 	mov	r5,r16
 40215ec:	4023ea40 	call	4023ea4 <__ledf2>
 40215f0:	10008716 	blt	r2,zero,4021810 <__ieee754_exp+0x4dc>
 40215f4:	b82490fa 	slli	r18,r23,3
 40215f8:	01994b34 	movhi	r6,25900
 40215fc:	01cffdf4 	movhi	r7,16375
 4021600:	05c00034 	movhi	r23,0
 4021604:	31a0bf84 	addi	r6,r6,-32002
 4021608:	39c551c4 	addi	r7,r7,5447
 402160c:	8809883a 	mov	r4,r17
 4021610:	800b883a 	mov	r5,r16
 4021614:	bdc00a04 	addi	r23,r23,40
 4021618:	4023f980 	call	4023f98 <__muldf3>
 402161c:	bca5883a 	add	r18,r23,r18
 4021620:	91800017 	ldw	r6,0(r18)
 4021624:	91c00117 	ldw	r7,4(r18)
 4021628:	1009883a 	mov	r4,r2
 402162c:	180b883a 	mov	r5,r3
 4021630:	4022b4c0 	call	4022b4c <__adddf3>
 4021634:	180b883a 	mov	r5,r3
 4021638:	1009883a 	mov	r4,r2
 402163c:	40251000 	call	4025100 <__fixdfsi>
 4021640:	1009883a 	mov	r4,r2
 4021644:	1025883a 	mov	r18,r2
 4021648:	40251800 	call	4025180 <__floatsidf>
 402164c:	01cff9b4 	movhi	r7,16358
 4021650:	39cb9084 	addi	r7,r7,11842
 4021654:	01bfb834 	movhi	r6,65248
 4021658:	1009883a 	mov	r4,r2
 402165c:	180b883a 	mov	r5,r3
 4021660:	102d883a 	mov	r22,r2
 4021664:	182b883a 	mov	r21,r3
 4021668:	4023f980 	call	4023f98 <__muldf3>
 402166c:	100d883a 	mov	r6,r2
 4021670:	180f883a 	mov	r7,r3
 4021674:	8809883a 	mov	r4,r17
 4021678:	800b883a 	mov	r5,r16
 402167c:	40248040 	call	4024804 <__subdf3>
 4021680:	018d5e74 	movhi	r6,13689
 4021684:	01cf7ab4 	movhi	r7,15850
 4021688:	b009883a 	mov	r4,r22
 402168c:	a80b883a 	mov	r5,r21
 4021690:	318f1d84 	addi	r6,r6,15478
 4021694:	39ce7bc4 	addi	r7,r7,14831
 4021698:	1029883a 	mov	r20,r2
 402169c:	1827883a 	mov	r19,r3
 40216a0:	4023f980 	call	4023f98 <__muldf3>
 40216a4:	102d883a 	mov	r22,r2
 40216a8:	182b883a 	mov	r21,r3
 40216ac:	b00d883a 	mov	r6,r22
 40216b0:	a80f883a 	mov	r7,r21
 40216b4:	a009883a 	mov	r4,r20
 40216b8:	980b883a 	mov	r5,r19
 40216bc:	40248040 	call	4024804 <__subdf3>
 40216c0:	1023883a 	mov	r17,r2
 40216c4:	1821883a 	mov	r16,r3
 40216c8:	003f4106 	br	40213d0 <__flash_rwdata_start+0xfffeeafc>
 40216cc:	008ffc74 	movhi	r2,16369
 40216d0:	10a8ac44 	addi	r2,r2,-23887
 40216d4:	10ffc736 	bltu	r2,r3,40215f4 <__flash_rwdata_start+0xfffeed20>
 40216d8:	b82290fa 	slli	r17,r23,3
 40216dc:	00800034 	movhi	r2,0
 40216e0:	10800604 	addi	r2,r2,24
 40216e4:	1445883a 	add	r2,r2,r17
 40216e8:	11800017 	ldw	r6,0(r2)
 40216ec:	11c00117 	ldw	r7,4(r2)
 40216f0:	04800044 	movi	r18,1
 40216f4:	95e5c83a 	sub	r18,r18,r23
 40216f8:	40248040 	call	4024804 <__subdf3>
 40216fc:	1029883a 	mov	r20,r2
 4021700:	00800034 	movhi	r2,0
 4021704:	10800204 	addi	r2,r2,8
 4021708:	1463883a 	add	r17,r2,r17
 402170c:	1827883a 	mov	r19,r3
 4021710:	8d800017 	ldw	r22,0(r17)
 4021714:	8d400117 	ldw	r21,4(r17)
 4021718:	95e5c83a 	sub	r18,r18,r23
 402171c:	003fe306 	br	40216ac <__flash_rwdata_start+0xfffeedd8>
 4021720:	01a20034 	movhi	r6,34816
 4021724:	01df8e34 	movhi	r7,32312
 4021728:	319d6704 	addi	r6,r6,30108
 402172c:	39f90f04 	addi	r7,r7,-7108
 4021730:	4022b4c0 	call	4022b4c <__adddf3>
 4021734:	000d883a 	mov	r6,zero
 4021738:	01cffc34 	movhi	r7,16368
 402173c:	1009883a 	mov	r4,r2
 4021740:	180b883a 	mov	r5,r3
 4021744:	4023dc80 	call	4023dc8 <__gedf2>
 4021748:	00bf200e 	bge	zero,r2,40213cc <__flash_rwdata_start+0xfffeeaf8>
 402174c:	000d883a 	mov	r6,zero
 4021750:	01cffc34 	movhi	r7,16368
 4021754:	8809883a 	mov	r4,r17
 4021758:	800b883a 	mov	r5,r16
 402175c:	4022b4c0 	call	4022b4c <__adddf3>
 4021760:	003f8a06 	br	402158c <__flash_rwdata_start+0xfffeecb8>
 4021764:	9020953a 	slli	r16,r18,20
 4021768:	80c7883a 	add	r3,r16,r3
 402176c:	003f8706 	br	402158c <__flash_rwdata_start+0xfffeecb8>
 4021770:	01a20034 	movhi	r6,34816
 4021774:	01df8e34 	movhi	r7,32312
 4021778:	319d6704 	addi	r6,r6,30108
 402177c:	39f90f04 	addi	r7,r7,-7108
 4021780:	3009883a 	mov	r4,r6
 4021784:	380b883a 	mov	r5,r7
 4021788:	4023f980 	call	4023f98 <__muldf3>
 402178c:	003f7f06 	br	402158c <__flash_rwdata_start+0xfffeecb8>
 4021790:	200d883a 	mov	r6,r4
 4021794:	280f883a 	mov	r7,r5
 4021798:	4022b4c0 	call	4022b4c <__adddf3>
 402179c:	003f7b06 	br	402158c <__flash_rwdata_start+0xfffeecb8>
 40217a0:	8809883a 	mov	r4,r17
 40217a4:	800b883a 	mov	r5,r16
 40217a8:	100d883a 	mov	r6,r2
 40217ac:	180f883a 	mov	r7,r3
 40217b0:	4023f980 	call	4023f98 <__muldf3>
 40217b4:	e009883a 	mov	r4,fp
 40217b8:	b80b883a 	mov	r5,r23
 40217bc:	000d883a 	mov	r6,zero
 40217c0:	01d00034 	movhi	r7,16384
 40217c4:	1027883a 	mov	r19,r2
 40217c8:	1825883a 	mov	r18,r3
 40217cc:	40248040 	call	4024804 <__subdf3>
 40217d0:	9809883a 	mov	r4,r19
 40217d4:	900b883a 	mov	r5,r18
 40217d8:	100d883a 	mov	r6,r2
 40217dc:	180f883a 	mov	r7,r3
 40217e0:	40233f80 	call	40233f8 <__divdf3>
 40217e4:	880d883a 	mov	r6,r17
 40217e8:	800f883a 	mov	r7,r16
 40217ec:	1009883a 	mov	r4,r2
 40217f0:	180b883a 	mov	r5,r3
 40217f4:	40248040 	call	4024804 <__subdf3>
 40217f8:	100d883a 	mov	r6,r2
 40217fc:	180f883a 	mov	r7,r3
 4021800:	0009883a 	mov	r4,zero
 4021804:	014ffc34 	movhi	r5,16368
 4021808:	40248040 	call	4024804 <__subdf3>
 402180c:	003f5f06 	br	402158c <__flash_rwdata_start+0xfffeecb8>
 4021810:	0005883a 	mov	r2,zero
 4021814:	0007883a 	mov	r3,zero
 4021818:	003f5c06 	br	402158c <__flash_rwdata_start+0xfffeecb8>

0402181c <finite>:
 402181c:	00a00034 	movhi	r2,32768
 4021820:	10bfffc4 	addi	r2,r2,-1
 4021824:	288a703a 	and	r5,r5,r2
 4021828:	00e00434 	movhi	r3,32784
 402182c:	28c5883a 	add	r2,r5,r3
 4021830:	1004d7fa 	srli	r2,r2,31
 4021834:	f800283a 	ret

04021838 <matherr>:
 4021838:	0005883a 	mov	r2,zero
 402183c:	f800283a 	ret

04021840 <__addsf3>:
 4021840:	defffc04 	addi	sp,sp,-16
 4021844:	2004d7fa 	srli	r2,r4,31
 4021848:	280cd5fa 	srli	r6,r5,23
 402184c:	dc000015 	stw	r16,0(sp)
 4021850:	00c02034 	movhi	r3,128
 4021854:	2020d5fa 	srli	r16,r4,23
 4021858:	280ed7fa 	srli	r7,r5,31
 402185c:	18ffffc4 	addi	r3,r3,-1
 4021860:	dc400115 	stw	r17,4(sp)
 4021864:	1908703a 	and	r4,r3,r4
 4021868:	194a703a 	and	r5,r3,r5
 402186c:	dfc00315 	stw	ra,12(sp)
 4021870:	dc800215 	stw	r18,8(sp)
 4021874:	14403fcc 	andi	r17,r2,255
 4021878:	84003fcc 	andi	r16,r16,255
 402187c:	200890fa 	slli	r4,r4,3
 4021880:	31803fcc 	andi	r6,r6,255
 4021884:	280a90fa 	slli	r5,r5,3
 4021888:	89c05026 	beq	r17,r7,40219cc <__addsf3+0x18c>
 402188c:	8185c83a 	sub	r2,r16,r6
 4021890:	00807a0e 	bge	zero,r2,4021a7c <__addsf3+0x23c>
 4021894:	30001e1e 	bne	r6,zero,4021910 <__addsf3+0xd0>
 4021898:	28006d1e 	bne	r5,zero,4021a50 <__addsf3+0x210>
 402189c:	208001cc 	andi	r2,r4,7
 40218a0:	10000426 	beq	r2,zero,40218b4 <__addsf3+0x74>
 40218a4:	208003cc 	andi	r2,r4,15
 40218a8:	00c00104 	movi	r3,4
 40218ac:	10c00126 	beq	r2,r3,40218b4 <__addsf3+0x74>
 40218b0:	20c9883a 	add	r4,r4,r3
 40218b4:	2081002c 	andhi	r2,r4,1024
 40218b8:	10003926 	beq	r2,zero,40219a0 <__addsf3+0x160>
 40218bc:	84000044 	addi	r16,r16,1
 40218c0:	00803fc4 	movi	r2,255
 40218c4:	80807826 	beq	r16,r2,4021aa8 <__addsf3+0x268>
 40218c8:	200891ba 	slli	r4,r4,6
 40218cc:	8805883a 	mov	r2,r17
 40218d0:	2008d27a 	srli	r4,r4,9
 40218d4:	84003fcc 	andi	r16,r16,255
 40218d8:	800695fa 	slli	r3,r16,23
 40218dc:	10803fcc 	andi	r2,r2,255
 40218e0:	04002034 	movhi	r16,128
 40218e4:	843fffc4 	addi	r16,r16,-1
 40218e8:	100497fa 	slli	r2,r2,31
 40218ec:	2408703a 	and	r4,r4,r16
 40218f0:	20e0b03a 	or	r16,r4,r3
 40218f4:	8084b03a 	or	r2,r16,r2
 40218f8:	dfc00317 	ldw	ra,12(sp)
 40218fc:	dc800217 	ldw	r18,8(sp)
 4021900:	dc400117 	ldw	r17,4(sp)
 4021904:	dc000017 	ldw	r16,0(sp)
 4021908:	dec00404 	addi	sp,sp,16
 402190c:	f800283a 	ret
 4021910:	00c03fc4 	movi	r3,255
 4021914:	80ffe126 	beq	r16,r3,402189c <__flash_rwdata_start+0xfffeefc8>
 4021918:	29410034 	orhi	r5,r5,1024
 402191c:	00c006c4 	movi	r3,27
 4021920:	18807516 	blt	r3,r2,4021af8 <__addsf3+0x2b8>
 4021924:	00c00804 	movi	r3,32
 4021928:	1887c83a 	sub	r3,r3,r2
 402192c:	28c6983a 	sll	r3,r5,r3
 4021930:	288ad83a 	srl	r5,r5,r2
 4021934:	1804c03a 	cmpne	r2,r3,zero
 4021938:	288ab03a 	or	r5,r5,r2
 402193c:	2149c83a 	sub	r4,r4,r5
 4021940:	2081002c 	andhi	r2,r4,1024
 4021944:	10001426 	beq	r2,zero,4021998 <__addsf3+0x158>
 4021948:	04810034 	movhi	r18,1024
 402194c:	94bfffc4 	addi	r18,r18,-1
 4021950:	24a4703a 	and	r18,r4,r18
 4021954:	9009883a 	mov	r4,r18
 4021958:	40255140 	call	4025514 <__clzsi2>
 402195c:	10bffec4 	addi	r2,r2,-5
 4021960:	90a4983a 	sll	r18,r18,r2
 4021964:	14005416 	blt	r2,r16,4021ab8 <__addsf3+0x278>
 4021968:	1405c83a 	sub	r2,r2,r16
 402196c:	11000044 	addi	r4,r2,1
 4021970:	00800804 	movi	r2,32
 4021974:	1105c83a 	sub	r2,r2,r4
 4021978:	9084983a 	sll	r2,r18,r2
 402197c:	9124d83a 	srl	r18,r18,r4
 4021980:	0021883a 	mov	r16,zero
 4021984:	1008c03a 	cmpne	r4,r2,zero
 4021988:	9108b03a 	or	r4,r18,r4
 402198c:	003fc306 	br	402189c <__flash_rwdata_start+0xfffeefc8>
 4021990:	1000db26 	beq	r2,zero,4021d00 <__addsf3+0x4c0>
 4021994:	1009883a 	mov	r4,r2
 4021998:	208001cc 	andi	r2,r4,7
 402199c:	103fc11e 	bne	r2,zero,40218a4 <__flash_rwdata_start+0xfffeefd0>
 40219a0:	2006d0fa 	srli	r3,r4,3
 40219a4:	01003fc4 	movi	r4,255
 40219a8:	8805883a 	mov	r2,r17
 40219ac:	8100241e 	bne	r16,r4,4021a40 <__addsf3+0x200>
 40219b0:	18006e26 	beq	r3,zero,4021b6c <__addsf3+0x32c>
 40219b4:	19001034 	orhi	r4,r3,64
 40219b8:	00c02034 	movhi	r3,128
 40219bc:	18ffffc4 	addi	r3,r3,-1
 40219c0:	043fffc4 	movi	r16,-1
 40219c4:	20c8703a 	and	r4,r4,r3
 40219c8:	003fc206 	br	40218d4 <__flash_rwdata_start+0xfffef000>
 40219cc:	8187c83a 	sub	r3,r16,r6
 40219d0:	00c03e0e 	bge	zero,r3,4021acc <__addsf3+0x28c>
 40219d4:	30002326 	beq	r6,zero,4021a64 <__addsf3+0x224>
 40219d8:	01803fc4 	movi	r6,255
 40219dc:	81bfaf26 	beq	r16,r6,402189c <__flash_rwdata_start+0xfffeefc8>
 40219e0:	29410034 	orhi	r5,r5,1024
 40219e4:	018006c4 	movi	r6,27
 40219e8:	30c07416 	blt	r6,r3,4021bbc <__addsf3+0x37c>
 40219ec:	01800804 	movi	r6,32
 40219f0:	30cdc83a 	sub	r6,r6,r3
 40219f4:	298c983a 	sll	r6,r5,r6
 40219f8:	28cad83a 	srl	r5,r5,r3
 40219fc:	3006c03a 	cmpne	r3,r6,zero
 4021a00:	28cab03a 	or	r5,r5,r3
 4021a04:	2149883a 	add	r4,r4,r5
 4021a08:	20c1002c 	andhi	r3,r4,1024
 4021a0c:	183fe226 	beq	r3,zero,4021998 <__flash_rwdata_start+0xfffef0c4>
 4021a10:	84000044 	addi	r16,r16,1
 4021a14:	00c03fc4 	movi	r3,255
 4021a18:	80c05426 	beq	r16,r3,4021b6c <__addsf3+0x32c>
 4021a1c:	00bf0034 	movhi	r2,64512
 4021a20:	10bfffc4 	addi	r2,r2,-1
 4021a24:	20c0004c 	andi	r3,r4,1
 4021a28:	2088703a 	and	r4,r4,r2
 4021a2c:	2008d07a 	srli	r4,r4,1
 4021a30:	20c8b03a 	or	r4,r4,r3
 4021a34:	003f9906 	br	402189c <__flash_rwdata_start+0xfffeefc8>
 4021a38:	0007883a 	mov	r3,zero
 4021a3c:	0005883a 	mov	r2,zero
 4021a40:	01002034 	movhi	r4,128
 4021a44:	213fffc4 	addi	r4,r4,-1
 4021a48:	1908703a 	and	r4,r3,r4
 4021a4c:	003fa106 	br	40218d4 <__flash_rwdata_start+0xfffef000>
 4021a50:	10bfffc4 	addi	r2,r2,-1
 4021a54:	103fb926 	beq	r2,zero,402193c <__flash_rwdata_start+0xfffef068>
 4021a58:	00c03fc4 	movi	r3,255
 4021a5c:	80ffaf1e 	bne	r16,r3,402191c <__flash_rwdata_start+0xfffef048>
 4021a60:	003f8e06 	br	402189c <__flash_rwdata_start+0xfffeefc8>
 4021a64:	283f8d26 	beq	r5,zero,402189c <__flash_rwdata_start+0xfffeefc8>
 4021a68:	18ffffc4 	addi	r3,r3,-1
 4021a6c:	183fe526 	beq	r3,zero,4021a04 <__flash_rwdata_start+0xfffef130>
 4021a70:	01803fc4 	movi	r6,255
 4021a74:	81bfdb1e 	bne	r16,r6,40219e4 <__flash_rwdata_start+0xfffef110>
 4021a78:	003f8806 	br	402189c <__flash_rwdata_start+0xfffeefc8>
 4021a7c:	1000201e 	bne	r2,zero,4021b00 <__addsf3+0x2c0>
 4021a80:	80800044 	addi	r2,r16,1
 4021a84:	10803fcc 	andi	r2,r2,255
 4021a88:	01800044 	movi	r6,1
 4021a8c:	3080450e 	bge	r6,r2,4021ba4 <__addsf3+0x364>
 4021a90:	2165c83a 	sub	r18,r4,r5
 4021a94:	90c1002c 	andhi	r3,r18,1024
 4021a98:	18002b26 	beq	r3,zero,4021b48 <__addsf3+0x308>
 4021a9c:	2925c83a 	sub	r18,r5,r4
 4021aa0:	3823883a 	mov	r17,r7
 4021aa4:	003fab06 	br	4021954 <__flash_rwdata_start+0xfffef080>
 4021aa8:	8805883a 	mov	r2,r17
 4021aac:	043fffc4 	movi	r16,-1
 4021ab0:	0009883a 	mov	r4,zero
 4021ab4:	003f8706 	br	40218d4 <__flash_rwdata_start+0xfffef000>
 4021ab8:	013f0034 	movhi	r4,64512
 4021abc:	213fffc4 	addi	r4,r4,-1
 4021ac0:	80a1c83a 	sub	r16,r16,r2
 4021ac4:	9108703a 	and	r4,r18,r4
 4021ac8:	003f7406 	br	402189c <__flash_rwdata_start+0xfffeefc8>
 4021acc:	1800411e 	bne	r3,zero,4021bd4 <__addsf3+0x394>
 4021ad0:	80c00044 	addi	r3,r16,1
 4021ad4:	19c03fcc 	andi	r7,r3,255
 4021ad8:	01800044 	movi	r6,1
 4021adc:	31c0260e 	bge	r6,r7,4021b78 <__addsf3+0x338>
 4021ae0:	01803fc4 	movi	r6,255
 4021ae4:	19802126 	beq	r3,r6,4021b6c <__addsf3+0x32c>
 4021ae8:	2149883a 	add	r4,r4,r5
 4021aec:	2008d07a 	srli	r4,r4,1
 4021af0:	1821883a 	mov	r16,r3
 4021af4:	003f6906 	br	402189c <__flash_rwdata_start+0xfffeefc8>
 4021af8:	01400044 	movi	r5,1
 4021afc:	003f8f06 	br	402193c <__flash_rwdata_start+0xfffef068>
 4021b00:	8000151e 	bne	r16,zero,4021b58 <__addsf3+0x318>
 4021b04:	20002f26 	beq	r4,zero,4021bc4 <__addsf3+0x384>
 4021b08:	0084303a 	nor	r2,zero,r2
 4021b0c:	10000a26 	beq	r2,zero,4021b38 <__addsf3+0x2f8>
 4021b10:	00c03fc4 	movi	r3,255
 4021b14:	30c02b26 	beq	r6,r3,4021bc4 <__addsf3+0x384>
 4021b18:	00c006c4 	movi	r3,27
 4021b1c:	18806d16 	blt	r3,r2,4021cd4 <__addsf3+0x494>
 4021b20:	00c00804 	movi	r3,32
 4021b24:	1887c83a 	sub	r3,r3,r2
 4021b28:	20c6983a 	sll	r3,r4,r3
 4021b2c:	2084d83a 	srl	r2,r4,r2
 4021b30:	1808c03a 	cmpne	r4,r3,zero
 4021b34:	1108b03a 	or	r4,r2,r4
 4021b38:	2909c83a 	sub	r4,r5,r4
 4021b3c:	3021883a 	mov	r16,r6
 4021b40:	3823883a 	mov	r17,r7
 4021b44:	003f7e06 	br	4021940 <__flash_rwdata_start+0xfffef06c>
 4021b48:	903f821e 	bne	r18,zero,4021954 <__flash_rwdata_start+0xfffef080>
 4021b4c:	0005883a 	mov	r2,zero
 4021b50:	0021883a 	mov	r16,zero
 4021b54:	003fba06 	br	4021a40 <__flash_rwdata_start+0xfffef16c>
 4021b58:	00c03fc4 	movi	r3,255
 4021b5c:	30c01926 	beq	r6,r3,4021bc4 <__addsf3+0x384>
 4021b60:	0085c83a 	sub	r2,zero,r2
 4021b64:	21010034 	orhi	r4,r4,1024
 4021b68:	003feb06 	br	4021b18 <__flash_rwdata_start+0xfffef244>
 4021b6c:	043fffc4 	movi	r16,-1
 4021b70:	0009883a 	mov	r4,zero
 4021b74:	003f5706 	br	40218d4 <__flash_rwdata_start+0xfffef000>
 4021b78:	80004a1e 	bne	r16,zero,4021ca4 <__addsf3+0x464>
 4021b7c:	20005926 	beq	r4,zero,4021ce4 <__addsf3+0x4a4>
 4021b80:	283f4626 	beq	r5,zero,402189c <__flash_rwdata_start+0xfffeefc8>
 4021b84:	2149883a 	add	r4,r4,r5
 4021b88:	2081002c 	andhi	r2,r4,1024
 4021b8c:	103f8226 	beq	r2,zero,4021998 <__flash_rwdata_start+0xfffef0c4>
 4021b90:	00bf0034 	movhi	r2,64512
 4021b94:	10bfffc4 	addi	r2,r2,-1
 4021b98:	3021883a 	mov	r16,r6
 4021b9c:	2088703a 	and	r4,r4,r2
 4021ba0:	003f3e06 	br	402189c <__flash_rwdata_start+0xfffeefc8>
 4021ba4:	8000121e 	bne	r16,zero,4021bf0 <__addsf3+0x3b0>
 4021ba8:	2000261e 	bne	r4,zero,4021c44 <__addsf3+0x404>
 4021bac:	283fa226 	beq	r5,zero,4021a38 <__flash_rwdata_start+0xfffef164>
 4021bb0:	2809883a 	mov	r4,r5
 4021bb4:	3823883a 	mov	r17,r7
 4021bb8:	003f3806 	br	402189c <__flash_rwdata_start+0xfffeefc8>
 4021bbc:	01400044 	movi	r5,1
 4021bc0:	003f9006 	br	4021a04 <__flash_rwdata_start+0xfffef130>
 4021bc4:	2809883a 	mov	r4,r5
 4021bc8:	3021883a 	mov	r16,r6
 4021bcc:	3823883a 	mov	r17,r7
 4021bd0:	003f3206 	br	402189c <__flash_rwdata_start+0xfffeefc8>
 4021bd4:	80000c1e 	bne	r16,zero,4021c08 <__addsf3+0x3c8>
 4021bd8:	20002f26 	beq	r4,zero,4021c98 <__addsf3+0x458>
 4021bdc:	00c6303a 	nor	r3,zero,r3
 4021be0:	18002b1e 	bne	r3,zero,4021c90 <__addsf3+0x450>
 4021be4:	2149883a 	add	r4,r4,r5
 4021be8:	3021883a 	mov	r16,r6
 4021bec:	003f8606 	br	4021a08 <__flash_rwdata_start+0xfffef134>
 4021bf0:	20001b1e 	bne	r4,zero,4021c60 <__addsf3+0x420>
 4021bf4:	28003926 	beq	r5,zero,4021cdc <__addsf3+0x49c>
 4021bf8:	2809883a 	mov	r4,r5
 4021bfc:	3823883a 	mov	r17,r7
 4021c00:	04003fc4 	movi	r16,255
 4021c04:	003f2506 	br	402189c <__flash_rwdata_start+0xfffeefc8>
 4021c08:	01c03fc4 	movi	r7,255
 4021c0c:	31c02226 	beq	r6,r7,4021c98 <__addsf3+0x458>
 4021c10:	00c7c83a 	sub	r3,zero,r3
 4021c14:	21010034 	orhi	r4,r4,1024
 4021c18:	01c006c4 	movi	r7,27
 4021c1c:	38c03616 	blt	r7,r3,4021cf8 <__addsf3+0x4b8>
 4021c20:	01c00804 	movi	r7,32
 4021c24:	38cfc83a 	sub	r7,r7,r3
 4021c28:	21ce983a 	sll	r7,r4,r7
 4021c2c:	20c6d83a 	srl	r3,r4,r3
 4021c30:	3808c03a 	cmpne	r4,r7,zero
 4021c34:	1906b03a 	or	r3,r3,r4
 4021c38:	1949883a 	add	r4,r3,r5
 4021c3c:	3021883a 	mov	r16,r6
 4021c40:	003f7106 	br	4021a08 <__flash_rwdata_start+0xfffef134>
 4021c44:	283f1526 	beq	r5,zero,402189c <__flash_rwdata_start+0xfffeefc8>
 4021c48:	2145c83a 	sub	r2,r4,r5
 4021c4c:	10c1002c 	andhi	r3,r2,1024
 4021c50:	183f4f26 	beq	r3,zero,4021990 <__flash_rwdata_start+0xfffef0bc>
 4021c54:	2909c83a 	sub	r4,r5,r4
 4021c58:	3823883a 	mov	r17,r7
 4021c5c:	003f0f06 	br	402189c <__flash_rwdata_start+0xfffeefc8>
 4021c60:	28001a26 	beq	r5,zero,4021ccc <__addsf3+0x48c>
 4021c64:	2008d0fa 	srli	r4,r4,3
 4021c68:	2080102c 	andhi	r2,r4,64
 4021c6c:	10000526 	beq	r2,zero,4021c84 <__addsf3+0x444>
 4021c70:	280ad0fa 	srli	r5,r5,3
 4021c74:	2880102c 	andhi	r2,r5,64
 4021c78:	1000021e 	bne	r2,zero,4021c84 <__addsf3+0x444>
 4021c7c:	2809883a 	mov	r4,r5
 4021c80:	3823883a 	mov	r17,r7
 4021c84:	200890fa 	slli	r4,r4,3
 4021c88:	04003fc4 	movi	r16,255
 4021c8c:	003f0306 	br	402189c <__flash_rwdata_start+0xfffeefc8>
 4021c90:	01c03fc4 	movi	r7,255
 4021c94:	31ffe01e 	bne	r6,r7,4021c18 <__flash_rwdata_start+0xfffef344>
 4021c98:	2809883a 	mov	r4,r5
 4021c9c:	3021883a 	mov	r16,r6
 4021ca0:	003efe06 	br	402189c <__flash_rwdata_start+0xfffeefc8>
 4021ca4:	20001126 	beq	r4,zero,4021cec <__addsf3+0x4ac>
 4021ca8:	28000826 	beq	r5,zero,4021ccc <__addsf3+0x48c>
 4021cac:	2008d0fa 	srli	r4,r4,3
 4021cb0:	2080102c 	andhi	r2,r4,64
 4021cb4:	103ff326 	beq	r2,zero,4021c84 <__flash_rwdata_start+0xfffef3b0>
 4021cb8:	280ad0fa 	srli	r5,r5,3
 4021cbc:	2880102c 	andhi	r2,r5,64
 4021cc0:	103ff01e 	bne	r2,zero,4021c84 <__flash_rwdata_start+0xfffef3b0>
 4021cc4:	2809883a 	mov	r4,r5
 4021cc8:	003fee06 	br	4021c84 <__flash_rwdata_start+0xfffef3b0>
 4021ccc:	04003fc4 	movi	r16,255
 4021cd0:	003ef206 	br	402189c <__flash_rwdata_start+0xfffeefc8>
 4021cd4:	01000044 	movi	r4,1
 4021cd8:	003f9706 	br	4021b38 <__flash_rwdata_start+0xfffef264>
 4021cdc:	0005883a 	mov	r2,zero
 4021ce0:	003f3406 	br	40219b4 <__flash_rwdata_start+0xfffef0e0>
 4021ce4:	2809883a 	mov	r4,r5
 4021ce8:	003eec06 	br	402189c <__flash_rwdata_start+0xfffeefc8>
 4021cec:	2809883a 	mov	r4,r5
 4021cf0:	04003fc4 	movi	r16,255
 4021cf4:	003ee906 	br	402189c <__flash_rwdata_start+0xfffeefc8>
 4021cf8:	00c00044 	movi	r3,1
 4021cfc:	003fce06 	br	4021c38 <__flash_rwdata_start+0xfffef364>
 4021d00:	0005883a 	mov	r2,zero
 4021d04:	003f4e06 	br	4021a40 <__flash_rwdata_start+0xfffef16c>

04021d08 <__divsf3>:
 4021d08:	defff504 	addi	sp,sp,-44
 4021d0c:	200cd5fa 	srli	r6,r4,23
 4021d10:	dcc00415 	stw	r19,16(sp)
 4021d14:	2026d7fa 	srli	r19,r4,31
 4021d18:	00c02034 	movhi	r3,128
 4021d1c:	dd800715 	stw	r22,28(sp)
 4021d20:	dd000515 	stw	r20,20(sp)
 4021d24:	dc800315 	stw	r18,12(sp)
 4021d28:	18ffffc4 	addi	r3,r3,-1
 4021d2c:	dfc00a15 	stw	ra,40(sp)
 4021d30:	df000915 	stw	fp,36(sp)
 4021d34:	ddc00815 	stw	r23,32(sp)
 4021d38:	dd400615 	stw	r21,24(sp)
 4021d3c:	dc400215 	stw	r17,8(sp)
 4021d40:	dc000115 	stw	r16,4(sp)
 4021d44:	35003fcc 	andi	r20,r6,255
 4021d48:	1924703a 	and	r18,r3,r4
 4021d4c:	9d803fcc 	andi	r22,r19,255
 4021d50:	a0005226 	beq	r20,zero,4021e9c <__divsf3+0x194>
 4021d54:	00803fc4 	movi	r2,255
 4021d58:	a0802e26 	beq	r20,r2,4021e14 <__divsf3+0x10c>
 4021d5c:	91002034 	orhi	r4,r18,128
 4021d60:	202490fa 	slli	r18,r4,3
 4021d64:	a53fe044 	addi	r20,r20,-127
 4021d68:	0021883a 	mov	r16,zero
 4021d6c:	002f883a 	mov	r23,zero
 4021d70:	280cd5fa 	srli	r6,r5,23
 4021d74:	282ad7fa 	srli	r21,r5,31
 4021d78:	00c02034 	movhi	r3,128
 4021d7c:	18ffffc4 	addi	r3,r3,-1
 4021d80:	31803fcc 	andi	r6,r6,255
 4021d84:	1962703a 	and	r17,r3,r5
 4021d88:	af003fcc 	andi	fp,r21,255
 4021d8c:	30004a26 	beq	r6,zero,4021eb8 <__divsf3+0x1b0>
 4021d90:	00803fc4 	movi	r2,255
 4021d94:	30804526 	beq	r6,r2,4021eac <__divsf3+0x1a4>
 4021d98:	89402034 	orhi	r5,r17,128
 4021d9c:	282290fa 	slli	r17,r5,3
 4021da0:	31bfe044 	addi	r6,r6,-127
 4021da4:	000b883a 	mov	r5,zero
 4021da8:	2c20b03a 	or	r16,r5,r16
 4021dac:	802090ba 	slli	r16,r16,2
 4021db0:	008100b4 	movhi	r2,1026
 4021db4:	10877504 	addi	r2,r2,7636
 4021db8:	80a1883a 	add	r16,r16,r2
 4021dbc:	81000017 	ldw	r4,0(r16)
 4021dc0:	9d46f03a 	xor	r3,r19,r21
 4021dc4:	180f883a 	mov	r7,r3
 4021dc8:	18803fcc 	andi	r2,r3,255
 4021dcc:	a18dc83a 	sub	r6,r20,r6
 4021dd0:	2000683a 	jmp	r4
 4021dd4:	04021fb8 	rdprs	r16,zero,2174
 4021dd8:	04021e3c 	xorhi	r16,zero,2168
 4021ddc:	04021fac 	andhi	r16,zero,2174
 4021de0:	04021e28 	cmpgeui	r16,zero,2168
 4021de4:	04021fac 	andhi	r16,zero,2174
 4021de8:	04021f84 	movi	r16,2174
 4021dec:	04021fac 	andhi	r16,zero,2174
 4021df0:	04021e28 	cmpgeui	r16,zero,2168
 4021df4:	04021e3c 	xorhi	r16,zero,2168
 4021df8:	04021e3c 	xorhi	r16,zero,2168
 4021dfc:	04021f84 	movi	r16,2174
 4021e00:	04021e28 	cmpgeui	r16,zero,2168
 4021e04:	04022098 	cmpnei	r16,zero,2178
 4021e08:	04022098 	cmpnei	r16,zero,2178
 4021e0c:	04022098 	cmpnei	r16,zero,2178
 4021e10:	0402204c 	andi	r16,zero,2177
 4021e14:	9000581e 	bne	r18,zero,4021f78 <__divsf3+0x270>
 4021e18:	04000204 	movi	r16,8
 4021e1c:	05c00084 	movi	r23,2
 4021e20:	003fd306 	br	4021d70 <__flash_rwdata_start+0xfffef49c>
 4021e24:	0023883a 	mov	r17,zero
 4021e28:	e02d883a 	mov	r22,fp
 4021e2c:	282f883a 	mov	r23,r5
 4021e30:	00800084 	movi	r2,2
 4021e34:	b8808f1e 	bne	r23,r2,4022074 <__divsf3+0x36c>
 4021e38:	b005883a 	mov	r2,r22
 4021e3c:	11c0004c 	andi	r7,r2,1
 4021e40:	013fffc4 	movi	r4,-1
 4021e44:	000d883a 	mov	r6,zero
 4021e48:	21003fcc 	andi	r4,r4,255
 4021e4c:	200895fa 	slli	r4,r4,23
 4021e50:	38803fcc 	andi	r2,r7,255
 4021e54:	00c02034 	movhi	r3,128
 4021e58:	100497fa 	slli	r2,r2,31
 4021e5c:	18ffffc4 	addi	r3,r3,-1
 4021e60:	30c6703a 	and	r3,r6,r3
 4021e64:	1906b03a 	or	r3,r3,r4
 4021e68:	1884b03a 	or	r2,r3,r2
 4021e6c:	dfc00a17 	ldw	ra,40(sp)
 4021e70:	df000917 	ldw	fp,36(sp)
 4021e74:	ddc00817 	ldw	r23,32(sp)
 4021e78:	dd800717 	ldw	r22,28(sp)
 4021e7c:	dd400617 	ldw	r21,24(sp)
 4021e80:	dd000517 	ldw	r20,20(sp)
 4021e84:	dcc00417 	ldw	r19,16(sp)
 4021e88:	dc800317 	ldw	r18,12(sp)
 4021e8c:	dc400217 	ldw	r17,8(sp)
 4021e90:	dc000117 	ldw	r16,4(sp)
 4021e94:	dec00b04 	addi	sp,sp,44
 4021e98:	f800283a 	ret
 4021e9c:	90002b1e 	bne	r18,zero,4021f4c <__divsf3+0x244>
 4021ea0:	04000104 	movi	r16,4
 4021ea4:	05c00044 	movi	r23,1
 4021ea8:	003fb106 	br	4021d70 <__flash_rwdata_start+0xfffef49c>
 4021eac:	8800251e 	bne	r17,zero,4021f44 <__divsf3+0x23c>
 4021eb0:	01400084 	movi	r5,2
 4021eb4:	00000206 	br	4021ec0 <__divsf3+0x1b8>
 4021eb8:	88001a1e 	bne	r17,zero,4021f24 <__divsf3+0x21c>
 4021ebc:	01400044 	movi	r5,1
 4021ec0:	8160b03a 	or	r16,r16,r5
 4021ec4:	802090ba 	slli	r16,r16,2
 4021ec8:	00c100b4 	movhi	r3,1026
 4021ecc:	18c7b904 	addi	r3,r3,7908
 4021ed0:	80e1883a 	add	r16,r16,r3
 4021ed4:	80c00017 	ldw	r3,0(r16)
 4021ed8:	9d44f03a 	xor	r2,r19,r21
 4021edc:	a18dc83a 	sub	r6,r20,r6
 4021ee0:	1800683a 	jmp	r3
 4021ee4:	04021e3c 	xorhi	r16,zero,2168
 4021ee8:	04021e3c 	xorhi	r16,zero,2168
 4021eec:	04022088 	cmpgei	r16,zero,2178
 4021ef0:	04021e24 	muli	r16,zero,2168
 4021ef4:	04022088 	cmpgei	r16,zero,2178
 4021ef8:	04021f84 	movi	r16,2174
 4021efc:	04022088 	cmpgei	r16,zero,2178
 4021f00:	04021e24 	muli	r16,zero,2168
 4021f04:	04021e3c 	xorhi	r16,zero,2168
 4021f08:	04021e3c 	xorhi	r16,zero,2168
 4021f0c:	04021f84 	movi	r16,2174
 4021f10:	04021e24 	muli	r16,zero,2168
 4021f14:	04022098 	cmpnei	r16,zero,2178
 4021f18:	04022098 	cmpnei	r16,zero,2178
 4021f1c:	04022098 	cmpnei	r16,zero,2178
 4021f20:	040220b0 	cmpltui	r16,zero,2178
 4021f24:	8809883a 	mov	r4,r17
 4021f28:	40255140 	call	4025514 <__clzsi2>
 4021f2c:	10fffec4 	addi	r3,r2,-5
 4021f30:	10801d84 	addi	r2,r2,118
 4021f34:	88e2983a 	sll	r17,r17,r3
 4021f38:	008dc83a 	sub	r6,zero,r2
 4021f3c:	000b883a 	mov	r5,zero
 4021f40:	003f9906 	br	4021da8 <__flash_rwdata_start+0xfffef4d4>
 4021f44:	014000c4 	movi	r5,3
 4021f48:	003f9706 	br	4021da8 <__flash_rwdata_start+0xfffef4d4>
 4021f4c:	9009883a 	mov	r4,r18
 4021f50:	d9400015 	stw	r5,0(sp)
 4021f54:	40255140 	call	4025514 <__clzsi2>
 4021f58:	10fffec4 	addi	r3,r2,-5
 4021f5c:	11801d84 	addi	r6,r2,118
 4021f60:	90e4983a 	sll	r18,r18,r3
 4021f64:	01a9c83a 	sub	r20,zero,r6
 4021f68:	0021883a 	mov	r16,zero
 4021f6c:	002f883a 	mov	r23,zero
 4021f70:	d9400017 	ldw	r5,0(sp)
 4021f74:	003f7e06 	br	4021d70 <__flash_rwdata_start+0xfffef49c>
 4021f78:	04000304 	movi	r16,12
 4021f7c:	05c000c4 	movi	r23,3
 4021f80:	003f7b06 	br	4021d70 <__flash_rwdata_start+0xfffef49c>
 4021f84:	01802034 	movhi	r6,128
 4021f88:	000f883a 	mov	r7,zero
 4021f8c:	31bfffc4 	addi	r6,r6,-1
 4021f90:	013fffc4 	movi	r4,-1
 4021f94:	003fac06 	br	4021e48 <__flash_rwdata_start+0xfffef574>
 4021f98:	01400044 	movi	r5,1
 4021f9c:	2909c83a 	sub	r4,r5,r4
 4021fa0:	00c006c4 	movi	r3,27
 4021fa4:	19004b0e 	bge	r3,r4,40220d4 <__divsf3+0x3cc>
 4021fa8:	114e703a 	and	r7,r2,r5
 4021fac:	0009883a 	mov	r4,zero
 4021fb0:	000d883a 	mov	r6,zero
 4021fb4:	003fa406 	br	4021e48 <__flash_rwdata_start+0xfffef574>
 4021fb8:	9006917a 	slli	r3,r18,5
 4021fbc:	8822917a 	slli	r17,r17,5
 4021fc0:	1c40372e 	bgeu	r3,r17,40220a0 <__divsf3+0x398>
 4021fc4:	31bfffc4 	addi	r6,r6,-1
 4021fc8:	010006c4 	movi	r4,27
 4021fcc:	000b883a 	mov	r5,zero
 4021fd0:	180f883a 	mov	r7,r3
 4021fd4:	294b883a 	add	r5,r5,r5
 4021fd8:	18c7883a 	add	r3,r3,r3
 4021fdc:	38000116 	blt	r7,zero,4021fe4 <__divsf3+0x2dc>
 4021fe0:	1c400236 	bltu	r3,r17,4021fec <__divsf3+0x2e4>
 4021fe4:	1c47c83a 	sub	r3,r3,r17
 4021fe8:	29400054 	ori	r5,r5,1
 4021fec:	213fffc4 	addi	r4,r4,-1
 4021ff0:	203ff71e 	bne	r4,zero,4021fd0 <__flash_rwdata_start+0xfffef6fc>
 4021ff4:	1806c03a 	cmpne	r3,r3,zero
 4021ff8:	1962b03a 	or	r17,r3,r5
 4021ffc:	31001fc4 	addi	r4,r6,127
 4022000:	013fe50e 	bge	zero,r4,4021f98 <__flash_rwdata_start+0xfffef6c4>
 4022004:	88c001cc 	andi	r3,r17,7
 4022008:	18000426 	beq	r3,zero,402201c <__divsf3+0x314>
 402200c:	88c003cc 	andi	r3,r17,15
 4022010:	01400104 	movi	r5,4
 4022014:	19400126 	beq	r3,r5,402201c <__divsf3+0x314>
 4022018:	8963883a 	add	r17,r17,r5
 402201c:	88c2002c 	andhi	r3,r17,2048
 4022020:	18000426 	beq	r3,zero,4022034 <__divsf3+0x32c>
 4022024:	00fe0034 	movhi	r3,63488
 4022028:	18ffffc4 	addi	r3,r3,-1
 402202c:	31002004 	addi	r4,r6,128
 4022030:	88e2703a 	and	r17,r17,r3
 4022034:	00c03f84 	movi	r3,254
 4022038:	193f8016 	blt	r3,r4,4021e3c <__flash_rwdata_start+0xfffef568>
 402203c:	880c91ba 	slli	r6,r17,6
 4022040:	11c0004c 	andi	r7,r2,1
 4022044:	300cd27a 	srli	r6,r6,9
 4022048:	003f7f06 	br	4021e48 <__flash_rwdata_start+0xfffef574>
 402204c:	9080102c 	andhi	r2,r18,64
 4022050:	10000226 	beq	r2,zero,402205c <__divsf3+0x354>
 4022054:	8880102c 	andhi	r2,r17,64
 4022058:	10001826 	beq	r2,zero,40220bc <__divsf3+0x3b4>
 402205c:	00802034 	movhi	r2,128
 4022060:	91801034 	orhi	r6,r18,64
 4022064:	10bfffc4 	addi	r2,r2,-1
 4022068:	980f883a 	mov	r7,r19
 402206c:	308c703a 	and	r6,r6,r2
 4022070:	003fc706 	br	4021f90 <__flash_rwdata_start+0xfffef6bc>
 4022074:	008000c4 	movi	r2,3
 4022078:	b8802d26 	beq	r23,r2,4022130 <__divsf3+0x428>
 402207c:	00c00044 	movi	r3,1
 4022080:	b005883a 	mov	r2,r22
 4022084:	b8ffdd1e 	bne	r23,r3,4021ffc <__flash_rwdata_start+0xfffef728>
 4022088:	11c0004c 	andi	r7,r2,1
 402208c:	0009883a 	mov	r4,zero
 4022090:	000d883a 	mov	r6,zero
 4022094:	003f6c06 	br	4021e48 <__flash_rwdata_start+0xfffef574>
 4022098:	9023883a 	mov	r17,r18
 402209c:	003f6406 	br	4021e30 <__flash_rwdata_start+0xfffef55c>
 40220a0:	1c47c83a 	sub	r3,r3,r17
 40220a4:	01000684 	movi	r4,26
 40220a8:	01400044 	movi	r5,1
 40220ac:	003fc806 	br	4021fd0 <__flash_rwdata_start+0xfffef6fc>
 40220b0:	9080102c 	andhi	r2,r18,64
 40220b4:	103fe926 	beq	r2,zero,402205c <__flash_rwdata_start+0xfffef788>
 40220b8:	0023883a 	mov	r17,zero
 40220bc:	00802034 	movhi	r2,128
 40220c0:	89801034 	orhi	r6,r17,64
 40220c4:	10bfffc4 	addi	r2,r2,-1
 40220c8:	a80f883a 	mov	r7,r21
 40220cc:	308c703a 	and	r6,r6,r2
 40220d0:	003faf06 	br	4021f90 <__flash_rwdata_start+0xfffef6bc>
 40220d4:	01c00804 	movi	r7,32
 40220d8:	390fc83a 	sub	r7,r7,r4
 40220dc:	89ce983a 	sll	r7,r17,r7
 40220e0:	890ad83a 	srl	r5,r17,r4
 40220e4:	380ec03a 	cmpne	r7,r7,zero
 40220e8:	29cab03a 	or	r5,r5,r7
 40220ec:	28c001cc 	andi	r3,r5,7
 40220f0:	18000426 	beq	r3,zero,4022104 <__divsf3+0x3fc>
 40220f4:	28c003cc 	andi	r3,r5,15
 40220f8:	01000104 	movi	r4,4
 40220fc:	19000126 	beq	r3,r4,4022104 <__divsf3+0x3fc>
 4022100:	290b883a 	add	r5,r5,r4
 4022104:	28c1002c 	andhi	r3,r5,1024
 4022108:	18000426 	beq	r3,zero,402211c <__divsf3+0x414>
 402210c:	11c0004c 	andi	r7,r2,1
 4022110:	01000044 	movi	r4,1
 4022114:	000d883a 	mov	r6,zero
 4022118:	003f4b06 	br	4021e48 <__flash_rwdata_start+0xfffef574>
 402211c:	280a91ba 	slli	r5,r5,6
 4022120:	11c0004c 	andi	r7,r2,1
 4022124:	0009883a 	mov	r4,zero
 4022128:	280cd27a 	srli	r6,r5,9
 402212c:	003f4606 	br	4021e48 <__flash_rwdata_start+0xfffef574>
 4022130:	00802034 	movhi	r2,128
 4022134:	89801034 	orhi	r6,r17,64
 4022138:	10bfffc4 	addi	r2,r2,-1
 402213c:	b00f883a 	mov	r7,r22
 4022140:	308c703a 	and	r6,r6,r2
 4022144:	003f9206 	br	4021f90 <__flash_rwdata_start+0xfffef6bc>

04022148 <__mulsf3>:
 4022148:	defff504 	addi	sp,sp,-44
 402214c:	dc000115 	stw	r16,4(sp)
 4022150:	2020d5fa 	srli	r16,r4,23
 4022154:	dd400615 	stw	r21,24(sp)
 4022158:	202ad7fa 	srli	r21,r4,31
 402215c:	dc800315 	stw	r18,12(sp)
 4022160:	04802034 	movhi	r18,128
 4022164:	df000915 	stw	fp,36(sp)
 4022168:	dd000515 	stw	r20,20(sp)
 402216c:	94bfffc4 	addi	r18,r18,-1
 4022170:	dfc00a15 	stw	ra,40(sp)
 4022174:	ddc00815 	stw	r23,32(sp)
 4022178:	dd800715 	stw	r22,28(sp)
 402217c:	dcc00415 	stw	r19,16(sp)
 4022180:	dc400215 	stw	r17,8(sp)
 4022184:	84003fcc 	andi	r16,r16,255
 4022188:	9124703a 	and	r18,r18,r4
 402218c:	a829883a 	mov	r20,r21
 4022190:	af003fcc 	andi	fp,r21,255
 4022194:	80005426 	beq	r16,zero,40222e8 <__mulsf3+0x1a0>
 4022198:	00803fc4 	movi	r2,255
 402219c:	80802f26 	beq	r16,r2,402225c <__mulsf3+0x114>
 40221a0:	91002034 	orhi	r4,r18,128
 40221a4:	202490fa 	slli	r18,r4,3
 40221a8:	843fe044 	addi	r16,r16,-127
 40221ac:	0023883a 	mov	r17,zero
 40221b0:	002f883a 	mov	r23,zero
 40221b4:	2804d5fa 	srli	r2,r5,23
 40221b8:	282cd7fa 	srli	r22,r5,31
 40221bc:	01002034 	movhi	r4,128
 40221c0:	213fffc4 	addi	r4,r4,-1
 40221c4:	10803fcc 	andi	r2,r2,255
 40221c8:	2166703a 	and	r19,r4,r5
 40221cc:	b1803fcc 	andi	r6,r22,255
 40221d0:	10004c26 	beq	r2,zero,4022304 <__mulsf3+0x1bc>
 40221d4:	00c03fc4 	movi	r3,255
 40221d8:	10c04726 	beq	r2,r3,40222f8 <__mulsf3+0x1b0>
 40221dc:	99002034 	orhi	r4,r19,128
 40221e0:	202690fa 	slli	r19,r4,3
 40221e4:	10bfe044 	addi	r2,r2,-127
 40221e8:	0007883a 	mov	r3,zero
 40221ec:	80a1883a 	add	r16,r16,r2
 40221f0:	010003c4 	movi	r4,15
 40221f4:	1c44b03a 	or	r2,r3,r17
 40221f8:	b56af03a 	xor	r21,r22,r21
 40221fc:	81c00044 	addi	r7,r16,1
 4022200:	20806b36 	bltu	r4,r2,40223b0 <__mulsf3+0x268>
 4022204:	100490ba 	slli	r2,r2,2
 4022208:	010100b4 	movhi	r4,1026
 402220c:	21088704 	addi	r4,r4,8732
 4022210:	1105883a 	add	r2,r2,r4
 4022214:	10800017 	ldw	r2,0(r2)
 4022218:	1000683a 	jmp	r2
 402221c:	040223b0 	cmpltui	r16,zero,2190
 4022220:	04022270 	cmpltui	r16,zero,2185
 4022224:	04022270 	cmpltui	r16,zero,2185
 4022228:	0402226c 	andhi	r16,zero,2185
 402222c:	04022394 	movui	r16,2190
 4022230:	04022394 	movui	r16,2190
 4022234:	04022380 	call	402238 <_gp+0x3f8460>
 4022238:	0402226c 	andhi	r16,zero,2185
 402223c:	04022394 	movui	r16,2190
 4022240:	04022380 	call	402238 <_gp+0x3f8460>
 4022244:	04022394 	movui	r16,2190
 4022248:	0402226c 	andhi	r16,zero,2185
 402224c:	040223a0 	cmpeqi	r16,zero,2190
 4022250:	040223a0 	cmpeqi	r16,zero,2190
 4022254:	040223a0 	cmpeqi	r16,zero,2190
 4022258:	040224b0 	cmpltui	r16,zero,2194
 402225c:	90003b1e 	bne	r18,zero,402234c <__mulsf3+0x204>
 4022260:	04400204 	movi	r17,8
 4022264:	05c00084 	movi	r23,2
 4022268:	003fd206 	br	40221b4 <__flash_rwdata_start+0xfffef8e0>
 402226c:	302b883a 	mov	r21,r6
 4022270:	00800084 	movi	r2,2
 4022274:	18802626 	beq	r3,r2,4022310 <__mulsf3+0x1c8>
 4022278:	008000c4 	movi	r2,3
 402227c:	1880b826 	beq	r3,r2,4022560 <__mulsf3+0x418>
 4022280:	00800044 	movi	r2,1
 4022284:	1880af1e 	bne	r3,r2,4022544 <__mulsf3+0x3fc>
 4022288:	a829883a 	mov	r20,r21
 402228c:	0007883a 	mov	r3,zero
 4022290:	0009883a 	mov	r4,zero
 4022294:	18803fcc 	andi	r2,r3,255
 4022298:	100695fa 	slli	r3,r2,23
 402229c:	a0803fcc 	andi	r2,r20,255
 40222a0:	100a97fa 	slli	r5,r2,31
 40222a4:	00802034 	movhi	r2,128
 40222a8:	10bfffc4 	addi	r2,r2,-1
 40222ac:	2084703a 	and	r2,r4,r2
 40222b0:	10c4b03a 	or	r2,r2,r3
 40222b4:	1144b03a 	or	r2,r2,r5
 40222b8:	dfc00a17 	ldw	ra,40(sp)
 40222bc:	df000917 	ldw	fp,36(sp)
 40222c0:	ddc00817 	ldw	r23,32(sp)
 40222c4:	dd800717 	ldw	r22,28(sp)
 40222c8:	dd400617 	ldw	r21,24(sp)
 40222cc:	dd000517 	ldw	r20,20(sp)
 40222d0:	dcc00417 	ldw	r19,16(sp)
 40222d4:	dc800317 	ldw	r18,12(sp)
 40222d8:	dc400217 	ldw	r17,8(sp)
 40222dc:	dc000117 	ldw	r16,4(sp)
 40222e0:	dec00b04 	addi	sp,sp,44
 40222e4:	f800283a 	ret
 40222e8:	90000d1e 	bne	r18,zero,4022320 <__mulsf3+0x1d8>
 40222ec:	04400104 	movi	r17,4
 40222f0:	05c00044 	movi	r23,1
 40222f4:	003faf06 	br	40221b4 <__flash_rwdata_start+0xfffef8e0>
 40222f8:	9806c03a 	cmpne	r3,r19,zero
 40222fc:	18c00084 	addi	r3,r3,2
 4022300:	003fba06 	br	40221ec <__flash_rwdata_start+0xfffef918>
 4022304:	9800141e 	bne	r19,zero,4022358 <__mulsf3+0x210>
 4022308:	00c00044 	movi	r3,1
 402230c:	003fb706 	br	40221ec <__flash_rwdata_start+0xfffef918>
 4022310:	a829883a 	mov	r20,r21
 4022314:	00ffffc4 	movi	r3,-1
 4022318:	0009883a 	mov	r4,zero
 402231c:	003fdd06 	br	4022294 <__flash_rwdata_start+0xfffef9c0>
 4022320:	9009883a 	mov	r4,r18
 4022324:	d9400015 	stw	r5,0(sp)
 4022328:	40255140 	call	4025514 <__clzsi2>
 402232c:	10fffec4 	addi	r3,r2,-5
 4022330:	10801d84 	addi	r2,r2,118
 4022334:	90e4983a 	sll	r18,r18,r3
 4022338:	00a1c83a 	sub	r16,zero,r2
 402233c:	0023883a 	mov	r17,zero
 4022340:	002f883a 	mov	r23,zero
 4022344:	d9400017 	ldw	r5,0(sp)
 4022348:	003f9a06 	br	40221b4 <__flash_rwdata_start+0xfffef8e0>
 402234c:	04400304 	movi	r17,12
 4022350:	05c000c4 	movi	r23,3
 4022354:	003f9706 	br	40221b4 <__flash_rwdata_start+0xfffef8e0>
 4022358:	9809883a 	mov	r4,r19
 402235c:	d9800015 	stw	r6,0(sp)
 4022360:	40255140 	call	4025514 <__clzsi2>
 4022364:	10fffec4 	addi	r3,r2,-5
 4022368:	10801d84 	addi	r2,r2,118
 402236c:	98e6983a 	sll	r19,r19,r3
 4022370:	0085c83a 	sub	r2,zero,r2
 4022374:	0007883a 	mov	r3,zero
 4022378:	d9800017 	ldw	r6,0(sp)
 402237c:	003f9b06 	br	40221ec <__flash_rwdata_start+0xfffef918>
 4022380:	01002034 	movhi	r4,128
 4022384:	0029883a 	mov	r20,zero
 4022388:	213fffc4 	addi	r4,r4,-1
 402238c:	00ffffc4 	movi	r3,-1
 4022390:	003fc006 	br	4022294 <__flash_rwdata_start+0xfffef9c0>
 4022394:	9027883a 	mov	r19,r18
 4022398:	b807883a 	mov	r3,r23
 402239c:	003fb406 	br	4022270 <__flash_rwdata_start+0xfffef99c>
 40223a0:	9027883a 	mov	r19,r18
 40223a4:	e02b883a 	mov	r21,fp
 40223a8:	b807883a 	mov	r3,r23
 40223ac:	003fb006 	br	4022270 <__flash_rwdata_start+0xfffef99c>
 40223b0:	9028d43a 	srli	r20,r18,16
 40223b4:	982cd43a 	srli	r22,r19,16
 40223b8:	94bfffcc 	andi	r18,r18,65535
 40223bc:	9cffffcc 	andi	r19,r19,65535
 40223c0:	980b883a 	mov	r5,r19
 40223c4:	9009883a 	mov	r4,r18
 40223c8:	d9c00015 	stw	r7,0(sp)
 40223cc:	402572c0 	call	402572c <__mulsi3>
 40223d0:	a00b883a 	mov	r5,r20
 40223d4:	9809883a 	mov	r4,r19
 40223d8:	1023883a 	mov	r17,r2
 40223dc:	402572c0 	call	402572c <__mulsi3>
 40223e0:	a009883a 	mov	r4,r20
 40223e4:	b00b883a 	mov	r5,r22
 40223e8:	1027883a 	mov	r19,r2
 40223ec:	402572c0 	call	402572c <__mulsi3>
 40223f0:	b00b883a 	mov	r5,r22
 40223f4:	9009883a 	mov	r4,r18
 40223f8:	1029883a 	mov	r20,r2
 40223fc:	402572c0 	call	402572c <__mulsi3>
 4022400:	8806d43a 	srli	r3,r17,16
 4022404:	14c5883a 	add	r2,r2,r19
 4022408:	d9c00017 	ldw	r7,0(sp)
 402240c:	1885883a 	add	r2,r3,r2
 4022410:	14c0022e 	bgeu	r2,r19,402241c <__mulsf3+0x2d4>
 4022414:	00c00074 	movhi	r3,1
 4022418:	a0e9883a 	add	r20,r20,r3
 402241c:	1026943a 	slli	r19,r2,16
 4022420:	8c7fffcc 	andi	r17,r17,65535
 4022424:	1004d43a 	srli	r2,r2,16
 4022428:	9c63883a 	add	r17,r19,r17
 402242c:	882691ba 	slli	r19,r17,6
 4022430:	1505883a 	add	r2,r2,r20
 4022434:	8822d6ba 	srli	r17,r17,26
 4022438:	100891ba 	slli	r4,r2,6
 402243c:	9826c03a 	cmpne	r19,r19,zero
 4022440:	9c62b03a 	or	r17,r19,r17
 4022444:	8926b03a 	or	r19,r17,r4
 4022448:	9882002c 	andhi	r2,r19,2048
 402244c:	10000426 	beq	r2,zero,4022460 <__mulsf3+0x318>
 4022450:	9804d07a 	srli	r2,r19,1
 4022454:	9900004c 	andi	r4,r19,1
 4022458:	3821883a 	mov	r16,r7
 402245c:	1126b03a 	or	r19,r2,r4
 4022460:	80c01fc4 	addi	r3,r16,127
 4022464:	00c0210e 	bge	zero,r3,40224ec <__mulsf3+0x3a4>
 4022468:	988001cc 	andi	r2,r19,7
 402246c:	10000426 	beq	r2,zero,4022480 <__mulsf3+0x338>
 4022470:	988003cc 	andi	r2,r19,15
 4022474:	01000104 	movi	r4,4
 4022478:	11000126 	beq	r2,r4,4022480 <__mulsf3+0x338>
 402247c:	9927883a 	add	r19,r19,r4
 4022480:	9882002c 	andhi	r2,r19,2048
 4022484:	10000426 	beq	r2,zero,4022498 <__mulsf3+0x350>
 4022488:	00be0034 	movhi	r2,63488
 402248c:	10bfffc4 	addi	r2,r2,-1
 4022490:	80c02004 	addi	r3,r16,128
 4022494:	98a6703a 	and	r19,r19,r2
 4022498:	00803f84 	movi	r2,254
 402249c:	10ff9c16 	blt	r2,r3,4022310 <__flash_rwdata_start+0xfffefa3c>
 40224a0:	980891ba 	slli	r4,r19,6
 40224a4:	a829883a 	mov	r20,r21
 40224a8:	2008d27a 	srli	r4,r4,9
 40224ac:	003f7906 	br	4022294 <__flash_rwdata_start+0xfffef9c0>
 40224b0:	9080102c 	andhi	r2,r18,64
 40224b4:	10000826 	beq	r2,zero,40224d8 <__mulsf3+0x390>
 40224b8:	9880102c 	andhi	r2,r19,64
 40224bc:	1000061e 	bne	r2,zero,40224d8 <__mulsf3+0x390>
 40224c0:	00802034 	movhi	r2,128
 40224c4:	99001034 	orhi	r4,r19,64
 40224c8:	10bfffc4 	addi	r2,r2,-1
 40224cc:	b029883a 	mov	r20,r22
 40224d0:	2088703a 	and	r4,r4,r2
 40224d4:	003fad06 	br	402238c <__flash_rwdata_start+0xfffefab8>
 40224d8:	00802034 	movhi	r2,128
 40224dc:	91001034 	orhi	r4,r18,64
 40224e0:	10bfffc4 	addi	r2,r2,-1
 40224e4:	2088703a 	and	r4,r4,r2
 40224e8:	003fa806 	br	402238c <__flash_rwdata_start+0xfffefab8>
 40224ec:	00800044 	movi	r2,1
 40224f0:	10c7c83a 	sub	r3,r2,r3
 40224f4:	008006c4 	movi	r2,27
 40224f8:	10ff6316 	blt	r2,r3,4022288 <__flash_rwdata_start+0xfffef9b4>
 40224fc:	00800804 	movi	r2,32
 4022500:	10c5c83a 	sub	r2,r2,r3
 4022504:	9884983a 	sll	r2,r19,r2
 4022508:	98c6d83a 	srl	r3,r19,r3
 402250c:	1004c03a 	cmpne	r2,r2,zero
 4022510:	1884b03a 	or	r2,r3,r2
 4022514:	10c001cc 	andi	r3,r2,7
 4022518:	18000426 	beq	r3,zero,402252c <__mulsf3+0x3e4>
 402251c:	10c003cc 	andi	r3,r2,15
 4022520:	01000104 	movi	r4,4
 4022524:	19000126 	beq	r3,r4,402252c <__mulsf3+0x3e4>
 4022528:	1105883a 	add	r2,r2,r4
 402252c:	10c1002c 	andhi	r3,r2,1024
 4022530:	18000626 	beq	r3,zero,402254c <__mulsf3+0x404>
 4022534:	a829883a 	mov	r20,r21
 4022538:	00c00044 	movi	r3,1
 402253c:	0009883a 	mov	r4,zero
 4022540:	003f5406 	br	4022294 <__flash_rwdata_start+0xfffef9c0>
 4022544:	3821883a 	mov	r16,r7
 4022548:	003fc506 	br	4022460 <__flash_rwdata_start+0xfffefb8c>
 402254c:	100491ba 	slli	r2,r2,6
 4022550:	a829883a 	mov	r20,r21
 4022554:	0007883a 	mov	r3,zero
 4022558:	1008d27a 	srli	r4,r2,9
 402255c:	003f4d06 	br	4022294 <__flash_rwdata_start+0xfffef9c0>
 4022560:	00802034 	movhi	r2,128
 4022564:	99001034 	orhi	r4,r19,64
 4022568:	10bfffc4 	addi	r2,r2,-1
 402256c:	a829883a 	mov	r20,r21
 4022570:	2088703a 	and	r4,r4,r2
 4022574:	003f8506 	br	402238c <__flash_rwdata_start+0xfffefab8>

04022578 <__subsf3>:
 4022578:	defffc04 	addi	sp,sp,-16
 402257c:	280cd5fa 	srli	r6,r5,23
 4022580:	dc000015 	stw	r16,0(sp)
 4022584:	01c02034 	movhi	r7,128
 4022588:	2020d5fa 	srli	r16,r4,23
 402258c:	39ffffc4 	addi	r7,r7,-1
 4022590:	3906703a 	and	r3,r7,r4
 4022594:	dc400115 	stw	r17,4(sp)
 4022598:	394e703a 	and	r7,r7,r5
 402259c:	2022d7fa 	srli	r17,r4,31
 40225a0:	dfc00315 	stw	ra,12(sp)
 40225a4:	dc800215 	stw	r18,8(sp)
 40225a8:	31803fcc 	andi	r6,r6,255
 40225ac:	01003fc4 	movi	r4,255
 40225b0:	84003fcc 	andi	r16,r16,255
 40225b4:	180690fa 	slli	r3,r3,3
 40225b8:	2804d7fa 	srli	r2,r5,31
 40225bc:	380e90fa 	slli	r7,r7,3
 40225c0:	31006d26 	beq	r6,r4,4022778 <__subsf3+0x200>
 40225c4:	1080005c 	xori	r2,r2,1
 40225c8:	8189c83a 	sub	r4,r16,r6
 40225cc:	14404f26 	beq	r2,r17,402270c <__subsf3+0x194>
 40225d0:	0100770e 	bge	zero,r4,40227b0 <__subsf3+0x238>
 40225d4:	30001e1e 	bne	r6,zero,4022650 <__subsf3+0xd8>
 40225d8:	38006a1e 	bne	r7,zero,4022784 <__subsf3+0x20c>
 40225dc:	188001cc 	andi	r2,r3,7
 40225e0:	10000426 	beq	r2,zero,40225f4 <__subsf3+0x7c>
 40225e4:	188003cc 	andi	r2,r3,15
 40225e8:	01000104 	movi	r4,4
 40225ec:	11000126 	beq	r2,r4,40225f4 <__subsf3+0x7c>
 40225f0:	1907883a 	add	r3,r3,r4
 40225f4:	1881002c 	andhi	r2,r3,1024
 40225f8:	10003926 	beq	r2,zero,40226e0 <__subsf3+0x168>
 40225fc:	84000044 	addi	r16,r16,1
 4022600:	00803fc4 	movi	r2,255
 4022604:	80807526 	beq	r16,r2,40227dc <__subsf3+0x264>
 4022608:	180691ba 	slli	r3,r3,6
 402260c:	8880004c 	andi	r2,r17,1
 4022610:	180ad27a 	srli	r5,r3,9
 4022614:	84003fcc 	andi	r16,r16,255
 4022618:	800695fa 	slli	r3,r16,23
 402261c:	10803fcc 	andi	r2,r2,255
 4022620:	01002034 	movhi	r4,128
 4022624:	213fffc4 	addi	r4,r4,-1
 4022628:	100497fa 	slli	r2,r2,31
 402262c:	2920703a 	and	r16,r5,r4
 4022630:	80e0b03a 	or	r16,r16,r3
 4022634:	8084b03a 	or	r2,r16,r2
 4022638:	dfc00317 	ldw	ra,12(sp)
 402263c:	dc800217 	ldw	r18,8(sp)
 4022640:	dc400117 	ldw	r17,4(sp)
 4022644:	dc000017 	ldw	r16,0(sp)
 4022648:	dec00404 	addi	sp,sp,16
 402264c:	f800283a 	ret
 4022650:	00803fc4 	movi	r2,255
 4022654:	80bfe126 	beq	r16,r2,40225dc <__flash_rwdata_start+0xfffefd08>
 4022658:	39c10034 	orhi	r7,r7,1024
 402265c:	008006c4 	movi	r2,27
 4022660:	11007416 	blt	r2,r4,4022834 <__subsf3+0x2bc>
 4022664:	00800804 	movi	r2,32
 4022668:	1105c83a 	sub	r2,r2,r4
 402266c:	3884983a 	sll	r2,r7,r2
 4022670:	390ed83a 	srl	r7,r7,r4
 4022674:	1008c03a 	cmpne	r4,r2,zero
 4022678:	390eb03a 	or	r7,r7,r4
 402267c:	19c7c83a 	sub	r3,r3,r7
 4022680:	1881002c 	andhi	r2,r3,1024
 4022684:	10001426 	beq	r2,zero,40226d8 <__subsf3+0x160>
 4022688:	04810034 	movhi	r18,1024
 402268c:	94bfffc4 	addi	r18,r18,-1
 4022690:	1ca4703a 	and	r18,r3,r18
 4022694:	9009883a 	mov	r4,r18
 4022698:	40255140 	call	4025514 <__clzsi2>
 402269c:	10bffec4 	addi	r2,r2,-5
 40226a0:	90a4983a 	sll	r18,r18,r2
 40226a4:	14005116 	blt	r2,r16,40227ec <__subsf3+0x274>
 40226a8:	1405c83a 	sub	r2,r2,r16
 40226ac:	10c00044 	addi	r3,r2,1
 40226b0:	00800804 	movi	r2,32
 40226b4:	10c5c83a 	sub	r2,r2,r3
 40226b8:	9084983a 	sll	r2,r18,r2
 40226bc:	90e4d83a 	srl	r18,r18,r3
 40226c0:	0021883a 	mov	r16,zero
 40226c4:	1006c03a 	cmpne	r3,r2,zero
 40226c8:	90c6b03a 	or	r3,r18,r3
 40226cc:	003fc306 	br	40225dc <__flash_rwdata_start+0xfffefd08>
 40226d0:	2000e026 	beq	r4,zero,4022a54 <__subsf3+0x4dc>
 40226d4:	2007883a 	mov	r3,r4
 40226d8:	188001cc 	andi	r2,r3,7
 40226dc:	103fc11e 	bne	r2,zero,40225e4 <__flash_rwdata_start+0xfffefd10>
 40226e0:	180ad0fa 	srli	r5,r3,3
 40226e4:	00c03fc4 	movi	r3,255
 40226e8:	8880004c 	andi	r2,r17,1
 40226ec:	80c0031e 	bne	r16,r3,40226fc <__subsf3+0x184>
 40226f0:	28006d26 	beq	r5,zero,40228a8 <__subsf3+0x330>
 40226f4:	29401034 	orhi	r5,r5,64
 40226f8:	043fffc4 	movi	r16,-1
 40226fc:	00c02034 	movhi	r3,128
 4022700:	18ffffc4 	addi	r3,r3,-1
 4022704:	28ca703a 	and	r5,r5,r3
 4022708:	003fc206 	br	4022614 <__flash_rwdata_start+0xfffefd40>
 402270c:	01003c0e 	bge	zero,r4,4022800 <__subsf3+0x288>
 4022710:	30002126 	beq	r6,zero,4022798 <__subsf3+0x220>
 4022714:	01403fc4 	movi	r5,255
 4022718:	817fb026 	beq	r16,r5,40225dc <__flash_rwdata_start+0xfffefd08>
 402271c:	39c10034 	orhi	r7,r7,1024
 4022720:	014006c4 	movi	r5,27
 4022724:	29007416 	blt	r5,r4,40228f8 <__subsf3+0x380>
 4022728:	01400804 	movi	r5,32
 402272c:	290bc83a 	sub	r5,r5,r4
 4022730:	394a983a 	sll	r5,r7,r5
 4022734:	390ed83a 	srl	r7,r7,r4
 4022738:	2808c03a 	cmpne	r4,r5,zero
 402273c:	390eb03a 	or	r7,r7,r4
 4022740:	19c7883a 	add	r3,r3,r7
 4022744:	1901002c 	andhi	r4,r3,1024
 4022748:	20003826 	beq	r4,zero,402282c <__subsf3+0x2b4>
 402274c:	84000044 	addi	r16,r16,1
 4022750:	01003fc4 	movi	r4,255
 4022754:	81005426 	beq	r16,r4,40228a8 <__subsf3+0x330>
 4022758:	1023883a 	mov	r17,r2
 402275c:	00bf0034 	movhi	r2,64512
 4022760:	10bfffc4 	addi	r2,r2,-1
 4022764:	1900004c 	andi	r4,r3,1
 4022768:	1886703a 	and	r3,r3,r2
 402276c:	1806d07a 	srli	r3,r3,1
 4022770:	1906b03a 	or	r3,r3,r4
 4022774:	003f9906 	br	40225dc <__flash_rwdata_start+0xfffefd08>
 4022778:	383f9226 	beq	r7,zero,40225c4 <__flash_rwdata_start+0xfffefcf0>
 402277c:	10803fcc 	andi	r2,r2,255
 4022780:	003f9106 	br	40225c8 <__flash_rwdata_start+0xfffefcf4>
 4022784:	213fffc4 	addi	r4,r4,-1
 4022788:	203fbc26 	beq	r4,zero,402267c <__flash_rwdata_start+0xfffefda8>
 402278c:	00803fc4 	movi	r2,255
 4022790:	80bfb21e 	bne	r16,r2,402265c <__flash_rwdata_start+0xfffefd88>
 4022794:	003f9106 	br	40225dc <__flash_rwdata_start+0xfffefd08>
 4022798:	383f9026 	beq	r7,zero,40225dc <__flash_rwdata_start+0xfffefd08>
 402279c:	213fffc4 	addi	r4,r4,-1
 40227a0:	203fe726 	beq	r4,zero,4022740 <__flash_rwdata_start+0xfffefe6c>
 40227a4:	01403fc4 	movi	r5,255
 40227a8:	817fdd1e 	bne	r16,r5,4022720 <__flash_rwdata_start+0xfffefe4c>
 40227ac:	003f8b06 	br	40225dc <__flash_rwdata_start+0xfffefd08>
 40227b0:	2000221e 	bne	r4,zero,402283c <__subsf3+0x2c4>
 40227b4:	81000044 	addi	r4,r16,1
 40227b8:	21003fcc 	andi	r4,r4,255
 40227bc:	01400044 	movi	r5,1
 40227c0:	2900470e 	bge	r5,r4,40228e0 <__subsf3+0x368>
 40227c4:	19e5c83a 	sub	r18,r3,r7
 40227c8:	9141002c 	andhi	r5,r18,1024
 40227cc:	28002d26 	beq	r5,zero,4022884 <__subsf3+0x30c>
 40227d0:	38e5c83a 	sub	r18,r7,r3
 40227d4:	1023883a 	mov	r17,r2
 40227d8:	003fae06 	br	4022694 <__flash_rwdata_start+0xfffefdc0>
 40227dc:	8880004c 	andi	r2,r17,1
 40227e0:	043fffc4 	movi	r16,-1
 40227e4:	000b883a 	mov	r5,zero
 40227e8:	003f8a06 	br	4022614 <__flash_rwdata_start+0xfffefd40>
 40227ec:	00ff0034 	movhi	r3,64512
 40227f0:	18ffffc4 	addi	r3,r3,-1
 40227f4:	80a1c83a 	sub	r16,r16,r2
 40227f8:	90c6703a 	and	r3,r18,r3
 40227fc:	003f7706 	br	40225dc <__flash_rwdata_start+0xfffefd08>
 4022800:	2000431e 	bne	r4,zero,4022910 <__subsf3+0x398>
 4022804:	81000044 	addi	r4,r16,1
 4022808:	21803fcc 	andi	r6,r4,255
 402280c:	01400044 	movi	r5,1
 4022810:	2980280e 	bge	r5,r6,40228b4 <__subsf3+0x33c>
 4022814:	01403fc4 	movi	r5,255
 4022818:	21402326 	beq	r4,r5,40228a8 <__subsf3+0x330>
 402281c:	19c7883a 	add	r3,r3,r7
 4022820:	1806d07a 	srli	r3,r3,1
 4022824:	2021883a 	mov	r16,r4
 4022828:	003f6c06 	br	40225dc <__flash_rwdata_start+0xfffefd08>
 402282c:	1023883a 	mov	r17,r2
 4022830:	003fa906 	br	40226d8 <__flash_rwdata_start+0xfffefe04>
 4022834:	01c00044 	movi	r7,1
 4022838:	003f9006 	br	402267c <__flash_rwdata_start+0xfffefda8>
 402283c:	8000151e 	bne	r16,zero,4022894 <__subsf3+0x31c>
 4022840:	18002f26 	beq	r3,zero,4022900 <__subsf3+0x388>
 4022844:	0108303a 	nor	r4,zero,r4
 4022848:	20000a26 	beq	r4,zero,4022874 <__subsf3+0x2fc>
 402284c:	01403fc4 	movi	r5,255
 4022850:	31402b26 	beq	r6,r5,4022900 <__subsf3+0x388>
 4022854:	014006c4 	movi	r5,27
 4022858:	29006e16 	blt	r5,r4,4022a14 <__subsf3+0x49c>
 402285c:	01400804 	movi	r5,32
 4022860:	290bc83a 	sub	r5,r5,r4
 4022864:	194a983a 	sll	r5,r3,r5
 4022868:	1908d83a 	srl	r4,r3,r4
 402286c:	2806c03a 	cmpne	r3,r5,zero
 4022870:	20c6b03a 	or	r3,r4,r3
 4022874:	38c7c83a 	sub	r3,r7,r3
 4022878:	3021883a 	mov	r16,r6
 402287c:	1023883a 	mov	r17,r2
 4022880:	003f7f06 	br	4022680 <__flash_rwdata_start+0xfffefdac>
 4022884:	903f831e 	bne	r18,zero,4022694 <__flash_rwdata_start+0xfffefdc0>
 4022888:	0005883a 	mov	r2,zero
 402288c:	0021883a 	mov	r16,zero
 4022890:	003f9a06 	br	40226fc <__flash_rwdata_start+0xfffefe28>
 4022894:	01403fc4 	movi	r5,255
 4022898:	31401926 	beq	r6,r5,4022900 <__subsf3+0x388>
 402289c:	0109c83a 	sub	r4,zero,r4
 40228a0:	18c10034 	orhi	r3,r3,1024
 40228a4:	003feb06 	br	4022854 <__flash_rwdata_start+0xfffeff80>
 40228a8:	043fffc4 	movi	r16,-1
 40228ac:	000b883a 	mov	r5,zero
 40228b0:	003f5806 	br	4022614 <__flash_rwdata_start+0xfffefd40>
 40228b4:	8000481e 	bne	r16,zero,40229d8 <__subsf3+0x460>
 40228b8:	18006226 	beq	r3,zero,4022a44 <__subsf3+0x4cc>
 40228bc:	383f4726 	beq	r7,zero,40225dc <__flash_rwdata_start+0xfffefd08>
 40228c0:	19c7883a 	add	r3,r3,r7
 40228c4:	1881002c 	andhi	r2,r3,1024
 40228c8:	103f8326 	beq	r2,zero,40226d8 <__flash_rwdata_start+0xfffefe04>
 40228cc:	00bf0034 	movhi	r2,64512
 40228d0:	10bfffc4 	addi	r2,r2,-1
 40228d4:	2821883a 	mov	r16,r5
 40228d8:	1886703a 	and	r3,r3,r2
 40228dc:	003f3f06 	br	40225dc <__flash_rwdata_start+0xfffefd08>
 40228e0:	80001c1e 	bne	r16,zero,4022954 <__subsf3+0x3dc>
 40228e4:	1800261e 	bne	r3,zero,4022980 <__subsf3+0x408>
 40228e8:	38004c26 	beq	r7,zero,4022a1c <__subsf3+0x4a4>
 40228ec:	3807883a 	mov	r3,r7
 40228f0:	1023883a 	mov	r17,r2
 40228f4:	003f3906 	br	40225dc <__flash_rwdata_start+0xfffefd08>
 40228f8:	01c00044 	movi	r7,1
 40228fc:	003f9006 	br	4022740 <__flash_rwdata_start+0xfffefe6c>
 4022900:	3807883a 	mov	r3,r7
 4022904:	3021883a 	mov	r16,r6
 4022908:	1023883a 	mov	r17,r2
 402290c:	003f3306 	br	40225dc <__flash_rwdata_start+0xfffefd08>
 4022910:	8000161e 	bne	r16,zero,402296c <__subsf3+0x3f4>
 4022914:	18002d26 	beq	r3,zero,40229cc <__subsf3+0x454>
 4022918:	0108303a 	nor	r4,zero,r4
 402291c:	20000a26 	beq	r4,zero,4022948 <__subsf3+0x3d0>
 4022920:	01403fc4 	movi	r5,255
 4022924:	31402926 	beq	r6,r5,40229cc <__subsf3+0x454>
 4022928:	014006c4 	movi	r5,27
 402292c:	29004716 	blt	r5,r4,4022a4c <__subsf3+0x4d4>
 4022930:	01400804 	movi	r5,32
 4022934:	290bc83a 	sub	r5,r5,r4
 4022938:	194a983a 	sll	r5,r3,r5
 402293c:	1908d83a 	srl	r4,r3,r4
 4022940:	2806c03a 	cmpne	r3,r5,zero
 4022944:	20c6b03a 	or	r3,r4,r3
 4022948:	19c7883a 	add	r3,r3,r7
 402294c:	3021883a 	mov	r16,r6
 4022950:	003f7c06 	br	4022744 <__flash_rwdata_start+0xfffefe70>
 4022954:	1800111e 	bne	r3,zero,402299c <__subsf3+0x424>
 4022958:	38003326 	beq	r7,zero,4022a28 <__subsf3+0x4b0>
 402295c:	3807883a 	mov	r3,r7
 4022960:	1023883a 	mov	r17,r2
 4022964:	04003fc4 	movi	r16,255
 4022968:	003f1c06 	br	40225dc <__flash_rwdata_start+0xfffefd08>
 402296c:	01403fc4 	movi	r5,255
 4022970:	31401626 	beq	r6,r5,40229cc <__subsf3+0x454>
 4022974:	0109c83a 	sub	r4,zero,r4
 4022978:	18c10034 	orhi	r3,r3,1024
 402297c:	003fea06 	br	4022928 <__flash_rwdata_start+0xffff0054>
 4022980:	383f1626 	beq	r7,zero,40225dc <__flash_rwdata_start+0xfffefd08>
 4022984:	19c9c83a 	sub	r4,r3,r7
 4022988:	2141002c 	andhi	r5,r4,1024
 402298c:	283f5026 	beq	r5,zero,40226d0 <__flash_rwdata_start+0xfffefdfc>
 4022990:	38c7c83a 	sub	r3,r7,r3
 4022994:	1023883a 	mov	r17,r2
 4022998:	003f1006 	br	40225dc <__flash_rwdata_start+0xfffefd08>
 402299c:	38001b26 	beq	r7,zero,4022a0c <__subsf3+0x494>
 40229a0:	1806d0fa 	srli	r3,r3,3
 40229a4:	1900102c 	andhi	r4,r3,64
 40229a8:	20000526 	beq	r4,zero,40229c0 <__subsf3+0x448>
 40229ac:	380ed0fa 	srli	r7,r7,3
 40229b0:	3900102c 	andhi	r4,r7,64
 40229b4:	2000021e 	bne	r4,zero,40229c0 <__subsf3+0x448>
 40229b8:	3807883a 	mov	r3,r7
 40229bc:	1023883a 	mov	r17,r2
 40229c0:	180690fa 	slli	r3,r3,3
 40229c4:	04003fc4 	movi	r16,255
 40229c8:	003f0406 	br	40225dc <__flash_rwdata_start+0xfffefd08>
 40229cc:	3807883a 	mov	r3,r7
 40229d0:	3021883a 	mov	r16,r6
 40229d4:	003f0106 	br	40225dc <__flash_rwdata_start+0xfffefd08>
 40229d8:	18001726 	beq	r3,zero,4022a38 <__subsf3+0x4c0>
 40229dc:	38000b26 	beq	r7,zero,4022a0c <__subsf3+0x494>
 40229e0:	1806d0fa 	srli	r3,r3,3
 40229e4:	1900102c 	andhi	r4,r3,64
 40229e8:	20000426 	beq	r4,zero,40229fc <__subsf3+0x484>
 40229ec:	380ed0fa 	srli	r7,r7,3
 40229f0:	3900102c 	andhi	r4,r7,64
 40229f4:	2000011e 	bne	r4,zero,40229fc <__subsf3+0x484>
 40229f8:	3807883a 	mov	r3,r7
 40229fc:	180690fa 	slli	r3,r3,3
 4022a00:	1023883a 	mov	r17,r2
 4022a04:	04003fc4 	movi	r16,255
 4022a08:	003ef406 	br	40225dc <__flash_rwdata_start+0xfffefd08>
 4022a0c:	04003fc4 	movi	r16,255
 4022a10:	003ef206 	br	40225dc <__flash_rwdata_start+0xfffefd08>
 4022a14:	00c00044 	movi	r3,1
 4022a18:	003f9606 	br	4022874 <__flash_rwdata_start+0xfffeffa0>
 4022a1c:	000b883a 	mov	r5,zero
 4022a20:	0005883a 	mov	r2,zero
 4022a24:	003f3506 	br	40226fc <__flash_rwdata_start+0xfffefe28>
 4022a28:	01402034 	movhi	r5,128
 4022a2c:	297fffc4 	addi	r5,r5,-1
 4022a30:	0005883a 	mov	r2,zero
 4022a34:	003f2f06 	br	40226f4 <__flash_rwdata_start+0xfffefe20>
 4022a38:	3807883a 	mov	r3,r7
 4022a3c:	04003fc4 	movi	r16,255
 4022a40:	003ee606 	br	40225dc <__flash_rwdata_start+0xfffefd08>
 4022a44:	3807883a 	mov	r3,r7
 4022a48:	003ee406 	br	40225dc <__flash_rwdata_start+0xfffefd08>
 4022a4c:	00c00044 	movi	r3,1
 4022a50:	003fbd06 	br	4022948 <__flash_rwdata_start+0xffff0074>
 4022a54:	0005883a 	mov	r2,zero
 4022a58:	003f2806 	br	40226fc <__flash_rwdata_start+0xfffefe28>

04022a5c <__floatunsisf>:
 4022a5c:	defffe04 	addi	sp,sp,-8
 4022a60:	dfc00115 	stw	ra,4(sp)
 4022a64:	dc000015 	stw	r16,0(sp)
 4022a68:	20002c26 	beq	r4,zero,4022b1c <__floatunsisf+0xc0>
 4022a6c:	2021883a 	mov	r16,r4
 4022a70:	40255140 	call	4025514 <__clzsi2>
 4022a74:	00c02784 	movi	r3,158
 4022a78:	1887c83a 	sub	r3,r3,r2
 4022a7c:	01002584 	movi	r4,150
 4022a80:	20c00f16 	blt	r4,r3,4022ac0 <__floatunsisf+0x64>
 4022a84:	20c9c83a 	sub	r4,r4,r3
 4022a88:	8108983a 	sll	r4,r16,r4
 4022a8c:	00802034 	movhi	r2,128
 4022a90:	10bfffc4 	addi	r2,r2,-1
 4022a94:	2088703a 	and	r4,r4,r2
 4022a98:	18803fcc 	andi	r2,r3,255
 4022a9c:	100695fa 	slli	r3,r2,23
 4022aa0:	00802034 	movhi	r2,128
 4022aa4:	10bfffc4 	addi	r2,r2,-1
 4022aa8:	2084703a 	and	r2,r4,r2
 4022aac:	10c4b03a 	or	r2,r2,r3
 4022ab0:	dfc00117 	ldw	ra,4(sp)
 4022ab4:	dc000017 	ldw	r16,0(sp)
 4022ab8:	dec00204 	addi	sp,sp,8
 4022abc:	f800283a 	ret
 4022ac0:	01002644 	movi	r4,153
 4022ac4:	20c01816 	blt	r4,r3,4022b28 <__floatunsisf+0xcc>
 4022ac8:	20c9c83a 	sub	r4,r4,r3
 4022acc:	8108983a 	sll	r4,r16,r4
 4022ad0:	017f0034 	movhi	r5,64512
 4022ad4:	297fffc4 	addi	r5,r5,-1
 4022ad8:	218001cc 	andi	r6,r4,7
 4022adc:	214a703a 	and	r5,r4,r5
 4022ae0:	30000426 	beq	r6,zero,4022af4 <__floatunsisf+0x98>
 4022ae4:	210003cc 	andi	r4,r4,15
 4022ae8:	01800104 	movi	r6,4
 4022aec:	21800126 	beq	r4,r6,4022af4 <__floatunsisf+0x98>
 4022af0:	298b883a 	add	r5,r5,r6
 4022af4:	2901002c 	andhi	r4,r5,1024
 4022af8:	20000526 	beq	r4,zero,4022b10 <__floatunsisf+0xb4>
 4022afc:	00c027c4 	movi	r3,159
 4022b00:	1887c83a 	sub	r3,r3,r2
 4022b04:	00bf0034 	movhi	r2,64512
 4022b08:	10bfffc4 	addi	r2,r2,-1
 4022b0c:	288a703a 	and	r5,r5,r2
 4022b10:	280891ba 	slli	r4,r5,6
 4022b14:	2008d27a 	srli	r4,r4,9
 4022b18:	003fdf06 	br	4022a98 <__flash_rwdata_start+0xffff01c4>
 4022b1c:	0007883a 	mov	r3,zero
 4022b20:	0009883a 	mov	r4,zero
 4022b24:	003fdc06 	br	4022a98 <__flash_rwdata_start+0xffff01c4>
 4022b28:	01402e44 	movi	r5,185
 4022b2c:	28cbc83a 	sub	r5,r5,r3
 4022b30:	01000144 	movi	r4,5
 4022b34:	2089c83a 	sub	r4,r4,r2
 4022b38:	814a983a 	sll	r5,r16,r5
 4022b3c:	8108d83a 	srl	r4,r16,r4
 4022b40:	2820c03a 	cmpne	r16,r5,zero
 4022b44:	2408b03a 	or	r4,r4,r16
 4022b48:	003fe106 	br	4022ad0 <__flash_rwdata_start+0xffff01fc>

04022b4c <__adddf3>:
 4022b4c:	02c00434 	movhi	r11,16
 4022b50:	5affffc4 	addi	r11,r11,-1
 4022b54:	2806d7fa 	srli	r3,r5,31
 4022b58:	2ad4703a 	and	r10,r5,r11
 4022b5c:	3ad2703a 	and	r9,r7,r11
 4022b60:	3804d53a 	srli	r2,r7,20
 4022b64:	3018d77a 	srli	r12,r6,29
 4022b68:	280ad53a 	srli	r5,r5,20
 4022b6c:	501490fa 	slli	r10,r10,3
 4022b70:	2010d77a 	srli	r8,r4,29
 4022b74:	481290fa 	slli	r9,r9,3
 4022b78:	380ed7fa 	srli	r7,r7,31
 4022b7c:	defffb04 	addi	sp,sp,-20
 4022b80:	dc800215 	stw	r18,8(sp)
 4022b84:	dc400115 	stw	r17,4(sp)
 4022b88:	dc000015 	stw	r16,0(sp)
 4022b8c:	dfc00415 	stw	ra,16(sp)
 4022b90:	dcc00315 	stw	r19,12(sp)
 4022b94:	1c803fcc 	andi	r18,r3,255
 4022b98:	2c01ffcc 	andi	r16,r5,2047
 4022b9c:	5210b03a 	or	r8,r10,r8
 4022ba0:	202290fa 	slli	r17,r4,3
 4022ba4:	1081ffcc 	andi	r2,r2,2047
 4022ba8:	4b12b03a 	or	r9,r9,r12
 4022bac:	300c90fa 	slli	r6,r6,3
 4022bb0:	91c07526 	beq	r18,r7,4022d88 <__adddf3+0x23c>
 4022bb4:	8087c83a 	sub	r3,r16,r2
 4022bb8:	00c0ab0e 	bge	zero,r3,4022e68 <__adddf3+0x31c>
 4022bbc:	10002a1e 	bne	r2,zero,4022c68 <__adddf3+0x11c>
 4022bc0:	4984b03a 	or	r2,r9,r6
 4022bc4:	1000961e 	bne	r2,zero,4022e20 <__adddf3+0x2d4>
 4022bc8:	888001cc 	andi	r2,r17,7
 4022bcc:	10000726 	beq	r2,zero,4022bec <__adddf3+0xa0>
 4022bd0:	888003cc 	andi	r2,r17,15
 4022bd4:	00c00104 	movi	r3,4
 4022bd8:	10c00426 	beq	r2,r3,4022bec <__adddf3+0xa0>
 4022bdc:	88c7883a 	add	r3,r17,r3
 4022be0:	1c63803a 	cmpltu	r17,r3,r17
 4022be4:	4451883a 	add	r8,r8,r17
 4022be8:	1823883a 	mov	r17,r3
 4022bec:	4080202c 	andhi	r2,r8,128
 4022bf0:	10005926 	beq	r2,zero,4022d58 <__adddf3+0x20c>
 4022bf4:	84000044 	addi	r16,r16,1
 4022bf8:	0081ffc4 	movi	r2,2047
 4022bfc:	8080ba26 	beq	r16,r2,4022ee8 <__adddf3+0x39c>
 4022c00:	00bfe034 	movhi	r2,65408
 4022c04:	10bfffc4 	addi	r2,r2,-1
 4022c08:	4090703a 	and	r8,r8,r2
 4022c0c:	4004977a 	slli	r2,r8,29
 4022c10:	4010927a 	slli	r8,r8,9
 4022c14:	8822d0fa 	srli	r17,r17,3
 4022c18:	8401ffcc 	andi	r16,r16,2047
 4022c1c:	4010d33a 	srli	r8,r8,12
 4022c20:	9007883a 	mov	r3,r18
 4022c24:	1444b03a 	or	r2,r2,r17
 4022c28:	8401ffcc 	andi	r16,r16,2047
 4022c2c:	8020953a 	slli	r16,r16,20
 4022c30:	18c03fcc 	andi	r3,r3,255
 4022c34:	01000434 	movhi	r4,16
 4022c38:	213fffc4 	addi	r4,r4,-1
 4022c3c:	180697fa 	slli	r3,r3,31
 4022c40:	4110703a 	and	r8,r8,r4
 4022c44:	4410b03a 	or	r8,r8,r16
 4022c48:	40c6b03a 	or	r3,r8,r3
 4022c4c:	dfc00417 	ldw	ra,16(sp)
 4022c50:	dcc00317 	ldw	r19,12(sp)
 4022c54:	dc800217 	ldw	r18,8(sp)
 4022c58:	dc400117 	ldw	r17,4(sp)
 4022c5c:	dc000017 	ldw	r16,0(sp)
 4022c60:	dec00504 	addi	sp,sp,20
 4022c64:	f800283a 	ret
 4022c68:	0081ffc4 	movi	r2,2047
 4022c6c:	80bfd626 	beq	r16,r2,4022bc8 <__flash_rwdata_start+0xffff02f4>
 4022c70:	4a402034 	orhi	r9,r9,128
 4022c74:	00800e04 	movi	r2,56
 4022c78:	10c09f16 	blt	r2,r3,4022ef8 <__adddf3+0x3ac>
 4022c7c:	008007c4 	movi	r2,31
 4022c80:	10c0c216 	blt	r2,r3,4022f8c <__adddf3+0x440>
 4022c84:	00800804 	movi	r2,32
 4022c88:	10c5c83a 	sub	r2,r2,r3
 4022c8c:	488a983a 	sll	r5,r9,r2
 4022c90:	30c8d83a 	srl	r4,r6,r3
 4022c94:	3084983a 	sll	r2,r6,r2
 4022c98:	48c6d83a 	srl	r3,r9,r3
 4022c9c:	290cb03a 	or	r6,r5,r4
 4022ca0:	1004c03a 	cmpne	r2,r2,zero
 4022ca4:	308cb03a 	or	r6,r6,r2
 4022ca8:	898dc83a 	sub	r6,r17,r6
 4022cac:	89a3803a 	cmpltu	r17,r17,r6
 4022cb0:	40d1c83a 	sub	r8,r8,r3
 4022cb4:	4451c83a 	sub	r8,r8,r17
 4022cb8:	3023883a 	mov	r17,r6
 4022cbc:	4080202c 	andhi	r2,r8,128
 4022cc0:	10002326 	beq	r2,zero,4022d50 <__adddf3+0x204>
 4022cc4:	04c02034 	movhi	r19,128
 4022cc8:	9cffffc4 	addi	r19,r19,-1
 4022ccc:	44e6703a 	and	r19,r8,r19
 4022cd0:	98007626 	beq	r19,zero,4022eac <__adddf3+0x360>
 4022cd4:	9809883a 	mov	r4,r19
 4022cd8:	40255140 	call	4025514 <__clzsi2>
 4022cdc:	10fffe04 	addi	r3,r2,-8
 4022ce0:	010007c4 	movi	r4,31
 4022ce4:	20c07716 	blt	r4,r3,4022ec4 <__adddf3+0x378>
 4022ce8:	00800804 	movi	r2,32
 4022cec:	10c5c83a 	sub	r2,r2,r3
 4022cf0:	8884d83a 	srl	r2,r17,r2
 4022cf4:	98d0983a 	sll	r8,r19,r3
 4022cf8:	88e2983a 	sll	r17,r17,r3
 4022cfc:	1204b03a 	or	r2,r2,r8
 4022d00:	1c007416 	blt	r3,r16,4022ed4 <__adddf3+0x388>
 4022d04:	1c21c83a 	sub	r16,r3,r16
 4022d08:	82000044 	addi	r8,r16,1
 4022d0c:	00c007c4 	movi	r3,31
 4022d10:	1a009116 	blt	r3,r8,4022f58 <__adddf3+0x40c>
 4022d14:	00c00804 	movi	r3,32
 4022d18:	1a07c83a 	sub	r3,r3,r8
 4022d1c:	8a08d83a 	srl	r4,r17,r8
 4022d20:	88e2983a 	sll	r17,r17,r3
 4022d24:	10c6983a 	sll	r3,r2,r3
 4022d28:	1210d83a 	srl	r8,r2,r8
 4022d2c:	8804c03a 	cmpne	r2,r17,zero
 4022d30:	1906b03a 	or	r3,r3,r4
 4022d34:	18a2b03a 	or	r17,r3,r2
 4022d38:	0021883a 	mov	r16,zero
 4022d3c:	003fa206 	br	4022bc8 <__flash_rwdata_start+0xffff02f4>
 4022d40:	1890b03a 	or	r8,r3,r2
 4022d44:	40017d26 	beq	r8,zero,402333c <__adddf3+0x7f0>
 4022d48:	1011883a 	mov	r8,r2
 4022d4c:	1823883a 	mov	r17,r3
 4022d50:	888001cc 	andi	r2,r17,7
 4022d54:	103f9e1e 	bne	r2,zero,4022bd0 <__flash_rwdata_start+0xffff02fc>
 4022d58:	4004977a 	slli	r2,r8,29
 4022d5c:	8822d0fa 	srli	r17,r17,3
 4022d60:	4010d0fa 	srli	r8,r8,3
 4022d64:	9007883a 	mov	r3,r18
 4022d68:	1444b03a 	or	r2,r2,r17
 4022d6c:	0101ffc4 	movi	r4,2047
 4022d70:	81002426 	beq	r16,r4,4022e04 <__adddf3+0x2b8>
 4022d74:	8120703a 	and	r16,r16,r4
 4022d78:	01000434 	movhi	r4,16
 4022d7c:	213fffc4 	addi	r4,r4,-1
 4022d80:	4110703a 	and	r8,r8,r4
 4022d84:	003fa806 	br	4022c28 <__flash_rwdata_start+0xffff0354>
 4022d88:	8089c83a 	sub	r4,r16,r2
 4022d8c:	01005e0e 	bge	zero,r4,4022f08 <__adddf3+0x3bc>
 4022d90:	10002b26 	beq	r2,zero,4022e40 <__adddf3+0x2f4>
 4022d94:	0081ffc4 	movi	r2,2047
 4022d98:	80bf8b26 	beq	r16,r2,4022bc8 <__flash_rwdata_start+0xffff02f4>
 4022d9c:	4a402034 	orhi	r9,r9,128
 4022da0:	00800e04 	movi	r2,56
 4022da4:	1100a40e 	bge	r2,r4,4023038 <__adddf3+0x4ec>
 4022da8:	498cb03a 	or	r6,r9,r6
 4022dac:	300ac03a 	cmpne	r5,r6,zero
 4022db0:	0013883a 	mov	r9,zero
 4022db4:	2c4b883a 	add	r5,r5,r17
 4022db8:	2c63803a 	cmpltu	r17,r5,r17
 4022dbc:	4a11883a 	add	r8,r9,r8
 4022dc0:	8a11883a 	add	r8,r17,r8
 4022dc4:	2823883a 	mov	r17,r5
 4022dc8:	4080202c 	andhi	r2,r8,128
 4022dcc:	103fe026 	beq	r2,zero,4022d50 <__flash_rwdata_start+0xffff047c>
 4022dd0:	84000044 	addi	r16,r16,1
 4022dd4:	0081ffc4 	movi	r2,2047
 4022dd8:	8080d226 	beq	r16,r2,4023124 <__adddf3+0x5d8>
 4022ddc:	00bfe034 	movhi	r2,65408
 4022de0:	10bfffc4 	addi	r2,r2,-1
 4022de4:	4090703a 	and	r8,r8,r2
 4022de8:	880ad07a 	srli	r5,r17,1
 4022dec:	400897fa 	slli	r4,r8,31
 4022df0:	88c0004c 	andi	r3,r17,1
 4022df4:	28e2b03a 	or	r17,r5,r3
 4022df8:	4010d07a 	srli	r8,r8,1
 4022dfc:	2462b03a 	or	r17,r4,r17
 4022e00:	003f7106 	br	4022bc8 <__flash_rwdata_start+0xffff02f4>
 4022e04:	4088b03a 	or	r4,r8,r2
 4022e08:	20014526 	beq	r4,zero,4023320 <__adddf3+0x7d4>
 4022e0c:	01000434 	movhi	r4,16
 4022e10:	42000234 	orhi	r8,r8,8
 4022e14:	213fffc4 	addi	r4,r4,-1
 4022e18:	4110703a 	and	r8,r8,r4
 4022e1c:	003f8206 	br	4022c28 <__flash_rwdata_start+0xffff0354>
 4022e20:	18ffffc4 	addi	r3,r3,-1
 4022e24:	1800491e 	bne	r3,zero,4022f4c <__adddf3+0x400>
 4022e28:	898bc83a 	sub	r5,r17,r6
 4022e2c:	8963803a 	cmpltu	r17,r17,r5
 4022e30:	4251c83a 	sub	r8,r8,r9
 4022e34:	4451c83a 	sub	r8,r8,r17
 4022e38:	2823883a 	mov	r17,r5
 4022e3c:	003f9f06 	br	4022cbc <__flash_rwdata_start+0xffff03e8>
 4022e40:	4984b03a 	or	r2,r9,r6
 4022e44:	103f6026 	beq	r2,zero,4022bc8 <__flash_rwdata_start+0xffff02f4>
 4022e48:	213fffc4 	addi	r4,r4,-1
 4022e4c:	2000931e 	bne	r4,zero,402309c <__adddf3+0x550>
 4022e50:	898d883a 	add	r6,r17,r6
 4022e54:	3463803a 	cmpltu	r17,r6,r17
 4022e58:	4251883a 	add	r8,r8,r9
 4022e5c:	8a11883a 	add	r8,r17,r8
 4022e60:	3023883a 	mov	r17,r6
 4022e64:	003fd806 	br	4022dc8 <__flash_rwdata_start+0xffff04f4>
 4022e68:	1800541e 	bne	r3,zero,4022fbc <__adddf3+0x470>
 4022e6c:	80800044 	addi	r2,r16,1
 4022e70:	1081ffcc 	andi	r2,r2,2047
 4022e74:	00c00044 	movi	r3,1
 4022e78:	1880a00e 	bge	r3,r2,40230fc <__adddf3+0x5b0>
 4022e7c:	8989c83a 	sub	r4,r17,r6
 4022e80:	8905803a 	cmpltu	r2,r17,r4
 4022e84:	4267c83a 	sub	r19,r8,r9
 4022e88:	98a7c83a 	sub	r19,r19,r2
 4022e8c:	9880202c 	andhi	r2,r19,128
 4022e90:	10006326 	beq	r2,zero,4023020 <__adddf3+0x4d4>
 4022e94:	3463c83a 	sub	r17,r6,r17
 4022e98:	4a07c83a 	sub	r3,r9,r8
 4022e9c:	344d803a 	cmpltu	r6,r6,r17
 4022ea0:	19a7c83a 	sub	r19,r3,r6
 4022ea4:	3825883a 	mov	r18,r7
 4022ea8:	983f8a1e 	bne	r19,zero,4022cd4 <__flash_rwdata_start+0xffff0400>
 4022eac:	8809883a 	mov	r4,r17
 4022eb0:	40255140 	call	4025514 <__clzsi2>
 4022eb4:	10800804 	addi	r2,r2,32
 4022eb8:	10fffe04 	addi	r3,r2,-8
 4022ebc:	010007c4 	movi	r4,31
 4022ec0:	20ff890e 	bge	r4,r3,4022ce8 <__flash_rwdata_start+0xffff0414>
 4022ec4:	10bff604 	addi	r2,r2,-40
 4022ec8:	8884983a 	sll	r2,r17,r2
 4022ecc:	0023883a 	mov	r17,zero
 4022ed0:	1c3f8c0e 	bge	r3,r16,4022d04 <__flash_rwdata_start+0xffff0430>
 4022ed4:	023fe034 	movhi	r8,65408
 4022ed8:	423fffc4 	addi	r8,r8,-1
 4022edc:	80e1c83a 	sub	r16,r16,r3
 4022ee0:	1210703a 	and	r8,r2,r8
 4022ee4:	003f3806 	br	4022bc8 <__flash_rwdata_start+0xffff02f4>
 4022ee8:	9007883a 	mov	r3,r18
 4022eec:	0011883a 	mov	r8,zero
 4022ef0:	0005883a 	mov	r2,zero
 4022ef4:	003f4c06 	br	4022c28 <__flash_rwdata_start+0xffff0354>
 4022ef8:	498cb03a 	or	r6,r9,r6
 4022efc:	300cc03a 	cmpne	r6,r6,zero
 4022f00:	0007883a 	mov	r3,zero
 4022f04:	003f6806 	br	4022ca8 <__flash_rwdata_start+0xffff03d4>
 4022f08:	20009c1e 	bne	r4,zero,402317c <__adddf3+0x630>
 4022f0c:	80800044 	addi	r2,r16,1
 4022f10:	1141ffcc 	andi	r5,r2,2047
 4022f14:	01000044 	movi	r4,1
 4022f18:	2140670e 	bge	r4,r5,40230b8 <__adddf3+0x56c>
 4022f1c:	0101ffc4 	movi	r4,2047
 4022f20:	11007f26 	beq	r2,r4,4023120 <__adddf3+0x5d4>
 4022f24:	898d883a 	add	r6,r17,r6
 4022f28:	4247883a 	add	r3,r8,r9
 4022f2c:	3451803a 	cmpltu	r8,r6,r17
 4022f30:	40d1883a 	add	r8,r8,r3
 4022f34:	402297fa 	slli	r17,r8,31
 4022f38:	300cd07a 	srli	r6,r6,1
 4022f3c:	4010d07a 	srli	r8,r8,1
 4022f40:	1021883a 	mov	r16,r2
 4022f44:	89a2b03a 	or	r17,r17,r6
 4022f48:	003f1f06 	br	4022bc8 <__flash_rwdata_start+0xffff02f4>
 4022f4c:	0081ffc4 	movi	r2,2047
 4022f50:	80bf481e 	bne	r16,r2,4022c74 <__flash_rwdata_start+0xffff03a0>
 4022f54:	003f1c06 	br	4022bc8 <__flash_rwdata_start+0xffff02f4>
 4022f58:	843ff844 	addi	r16,r16,-31
 4022f5c:	01000804 	movi	r4,32
 4022f60:	1406d83a 	srl	r3,r2,r16
 4022f64:	41005026 	beq	r8,r4,40230a8 <__adddf3+0x55c>
 4022f68:	01001004 	movi	r4,64
 4022f6c:	2211c83a 	sub	r8,r4,r8
 4022f70:	1204983a 	sll	r2,r2,r8
 4022f74:	88a2b03a 	or	r17,r17,r2
 4022f78:	8822c03a 	cmpne	r17,r17,zero
 4022f7c:	1c62b03a 	or	r17,r3,r17
 4022f80:	0011883a 	mov	r8,zero
 4022f84:	0021883a 	mov	r16,zero
 4022f88:	003f7106 	br	4022d50 <__flash_rwdata_start+0xffff047c>
 4022f8c:	193ff804 	addi	r4,r3,-32
 4022f90:	00800804 	movi	r2,32
 4022f94:	4908d83a 	srl	r4,r9,r4
 4022f98:	18804526 	beq	r3,r2,40230b0 <__adddf3+0x564>
 4022f9c:	00801004 	movi	r2,64
 4022fa0:	10c5c83a 	sub	r2,r2,r3
 4022fa4:	4886983a 	sll	r3,r9,r2
 4022fa8:	198cb03a 	or	r6,r3,r6
 4022fac:	300cc03a 	cmpne	r6,r6,zero
 4022fb0:	218cb03a 	or	r6,r4,r6
 4022fb4:	0007883a 	mov	r3,zero
 4022fb8:	003f3b06 	br	4022ca8 <__flash_rwdata_start+0xffff03d4>
 4022fbc:	80002a26 	beq	r16,zero,4023068 <__adddf3+0x51c>
 4022fc0:	0101ffc4 	movi	r4,2047
 4022fc4:	11006826 	beq	r2,r4,4023168 <__adddf3+0x61c>
 4022fc8:	00c7c83a 	sub	r3,zero,r3
 4022fcc:	42002034 	orhi	r8,r8,128
 4022fd0:	01000e04 	movi	r4,56
 4022fd4:	20c07c16 	blt	r4,r3,40231c8 <__adddf3+0x67c>
 4022fd8:	010007c4 	movi	r4,31
 4022fdc:	20c0da16 	blt	r4,r3,4023348 <__adddf3+0x7fc>
 4022fe0:	01000804 	movi	r4,32
 4022fe4:	20c9c83a 	sub	r4,r4,r3
 4022fe8:	4114983a 	sll	r10,r8,r4
 4022fec:	88cad83a 	srl	r5,r17,r3
 4022ff0:	8908983a 	sll	r4,r17,r4
 4022ff4:	40c6d83a 	srl	r3,r8,r3
 4022ff8:	5162b03a 	or	r17,r10,r5
 4022ffc:	2008c03a 	cmpne	r4,r4,zero
 4023000:	8922b03a 	or	r17,r17,r4
 4023004:	3463c83a 	sub	r17,r6,r17
 4023008:	48c7c83a 	sub	r3,r9,r3
 402300c:	344d803a 	cmpltu	r6,r6,r17
 4023010:	1991c83a 	sub	r8,r3,r6
 4023014:	1021883a 	mov	r16,r2
 4023018:	3825883a 	mov	r18,r7
 402301c:	003f2706 	br	4022cbc <__flash_rwdata_start+0xffff03e8>
 4023020:	24d0b03a 	or	r8,r4,r19
 4023024:	40001b1e 	bne	r8,zero,4023094 <__adddf3+0x548>
 4023028:	0005883a 	mov	r2,zero
 402302c:	0007883a 	mov	r3,zero
 4023030:	0021883a 	mov	r16,zero
 4023034:	003f4d06 	br	4022d6c <__flash_rwdata_start+0xffff0498>
 4023038:	008007c4 	movi	r2,31
 402303c:	11003c16 	blt	r2,r4,4023130 <__adddf3+0x5e4>
 4023040:	00800804 	movi	r2,32
 4023044:	1105c83a 	sub	r2,r2,r4
 4023048:	488e983a 	sll	r7,r9,r2
 402304c:	310ad83a 	srl	r5,r6,r4
 4023050:	3084983a 	sll	r2,r6,r2
 4023054:	4912d83a 	srl	r9,r9,r4
 4023058:	394ab03a 	or	r5,r7,r5
 402305c:	1004c03a 	cmpne	r2,r2,zero
 4023060:	288ab03a 	or	r5,r5,r2
 4023064:	003f5306 	br	4022db4 <__flash_rwdata_start+0xffff04e0>
 4023068:	4448b03a 	or	r4,r8,r17
 402306c:	20003e26 	beq	r4,zero,4023168 <__adddf3+0x61c>
 4023070:	00c6303a 	nor	r3,zero,r3
 4023074:	18003a1e 	bne	r3,zero,4023160 <__adddf3+0x614>
 4023078:	3463c83a 	sub	r17,r6,r17
 402307c:	4a07c83a 	sub	r3,r9,r8
 4023080:	344d803a 	cmpltu	r6,r6,r17
 4023084:	1991c83a 	sub	r8,r3,r6
 4023088:	1021883a 	mov	r16,r2
 402308c:	3825883a 	mov	r18,r7
 4023090:	003f0a06 	br	4022cbc <__flash_rwdata_start+0xffff03e8>
 4023094:	2023883a 	mov	r17,r4
 4023098:	003f0d06 	br	4022cd0 <__flash_rwdata_start+0xffff03fc>
 402309c:	0081ffc4 	movi	r2,2047
 40230a0:	80bf3f1e 	bne	r16,r2,4022da0 <__flash_rwdata_start+0xffff04cc>
 40230a4:	003ec806 	br	4022bc8 <__flash_rwdata_start+0xffff02f4>
 40230a8:	0005883a 	mov	r2,zero
 40230ac:	003fb106 	br	4022f74 <__flash_rwdata_start+0xffff06a0>
 40230b0:	0007883a 	mov	r3,zero
 40230b4:	003fbc06 	br	4022fa8 <__flash_rwdata_start+0xffff06d4>
 40230b8:	4444b03a 	or	r2,r8,r17
 40230bc:	8000871e 	bne	r16,zero,40232dc <__adddf3+0x790>
 40230c0:	1000ba26 	beq	r2,zero,40233ac <__adddf3+0x860>
 40230c4:	4984b03a 	or	r2,r9,r6
 40230c8:	103ebf26 	beq	r2,zero,4022bc8 <__flash_rwdata_start+0xffff02f4>
 40230cc:	8985883a 	add	r2,r17,r6
 40230d0:	4247883a 	add	r3,r8,r9
 40230d4:	1451803a 	cmpltu	r8,r2,r17
 40230d8:	40d1883a 	add	r8,r8,r3
 40230dc:	40c0202c 	andhi	r3,r8,128
 40230e0:	1023883a 	mov	r17,r2
 40230e4:	183f1a26 	beq	r3,zero,4022d50 <__flash_rwdata_start+0xffff047c>
 40230e8:	00bfe034 	movhi	r2,65408
 40230ec:	10bfffc4 	addi	r2,r2,-1
 40230f0:	2021883a 	mov	r16,r4
 40230f4:	4090703a 	and	r8,r8,r2
 40230f8:	003eb306 	br	4022bc8 <__flash_rwdata_start+0xffff02f4>
 40230fc:	4444b03a 	or	r2,r8,r17
 4023100:	8000291e 	bne	r16,zero,40231a8 <__adddf3+0x65c>
 4023104:	10004b1e 	bne	r2,zero,4023234 <__adddf3+0x6e8>
 4023108:	4990b03a 	or	r8,r9,r6
 402310c:	40008b26 	beq	r8,zero,402333c <__adddf3+0x7f0>
 4023110:	4811883a 	mov	r8,r9
 4023114:	3023883a 	mov	r17,r6
 4023118:	3825883a 	mov	r18,r7
 402311c:	003eaa06 	br	4022bc8 <__flash_rwdata_start+0xffff02f4>
 4023120:	1021883a 	mov	r16,r2
 4023124:	0011883a 	mov	r8,zero
 4023128:	0005883a 	mov	r2,zero
 402312c:	003f0f06 	br	4022d6c <__flash_rwdata_start+0xffff0498>
 4023130:	217ff804 	addi	r5,r4,-32
 4023134:	00800804 	movi	r2,32
 4023138:	494ad83a 	srl	r5,r9,r5
 402313c:	20807d26 	beq	r4,r2,4023334 <__adddf3+0x7e8>
 4023140:	00801004 	movi	r2,64
 4023144:	1109c83a 	sub	r4,r2,r4
 4023148:	4912983a 	sll	r9,r9,r4
 402314c:	498cb03a 	or	r6,r9,r6
 4023150:	300cc03a 	cmpne	r6,r6,zero
 4023154:	298ab03a 	or	r5,r5,r6
 4023158:	0013883a 	mov	r9,zero
 402315c:	003f1506 	br	4022db4 <__flash_rwdata_start+0xffff04e0>
 4023160:	0101ffc4 	movi	r4,2047
 4023164:	113f9a1e 	bne	r2,r4,4022fd0 <__flash_rwdata_start+0xffff06fc>
 4023168:	4811883a 	mov	r8,r9
 402316c:	3023883a 	mov	r17,r6
 4023170:	1021883a 	mov	r16,r2
 4023174:	3825883a 	mov	r18,r7
 4023178:	003e9306 	br	4022bc8 <__flash_rwdata_start+0xffff02f4>
 402317c:	8000161e 	bne	r16,zero,40231d8 <__adddf3+0x68c>
 4023180:	444ab03a 	or	r5,r8,r17
 4023184:	28005126 	beq	r5,zero,40232cc <__adddf3+0x780>
 4023188:	0108303a 	nor	r4,zero,r4
 402318c:	20004d1e 	bne	r4,zero,40232c4 <__adddf3+0x778>
 4023190:	89a3883a 	add	r17,r17,r6
 4023194:	4253883a 	add	r9,r8,r9
 4023198:	898d803a 	cmpltu	r6,r17,r6
 402319c:	3251883a 	add	r8,r6,r9
 40231a0:	1021883a 	mov	r16,r2
 40231a4:	003f0806 	br	4022dc8 <__flash_rwdata_start+0xffff04f4>
 40231a8:	1000301e 	bne	r2,zero,402326c <__adddf3+0x720>
 40231ac:	4984b03a 	or	r2,r9,r6
 40231b0:	10007126 	beq	r2,zero,4023378 <__adddf3+0x82c>
 40231b4:	4811883a 	mov	r8,r9
 40231b8:	3023883a 	mov	r17,r6
 40231bc:	3825883a 	mov	r18,r7
 40231c0:	0401ffc4 	movi	r16,2047
 40231c4:	003e8006 	br	4022bc8 <__flash_rwdata_start+0xffff02f4>
 40231c8:	4462b03a 	or	r17,r8,r17
 40231cc:	8822c03a 	cmpne	r17,r17,zero
 40231d0:	0007883a 	mov	r3,zero
 40231d4:	003f8b06 	br	4023004 <__flash_rwdata_start+0xffff0730>
 40231d8:	0141ffc4 	movi	r5,2047
 40231dc:	11403b26 	beq	r2,r5,40232cc <__adddf3+0x780>
 40231e0:	0109c83a 	sub	r4,zero,r4
 40231e4:	42002034 	orhi	r8,r8,128
 40231e8:	01400e04 	movi	r5,56
 40231ec:	29006716 	blt	r5,r4,402338c <__adddf3+0x840>
 40231f0:	014007c4 	movi	r5,31
 40231f4:	29007016 	blt	r5,r4,40233b8 <__adddf3+0x86c>
 40231f8:	01400804 	movi	r5,32
 40231fc:	290bc83a 	sub	r5,r5,r4
 4023200:	4154983a 	sll	r10,r8,r5
 4023204:	890ed83a 	srl	r7,r17,r4
 4023208:	894a983a 	sll	r5,r17,r5
 402320c:	4108d83a 	srl	r4,r8,r4
 4023210:	51e2b03a 	or	r17,r10,r7
 4023214:	280ac03a 	cmpne	r5,r5,zero
 4023218:	8962b03a 	or	r17,r17,r5
 402321c:	89a3883a 	add	r17,r17,r6
 4023220:	2253883a 	add	r9,r4,r9
 4023224:	898d803a 	cmpltu	r6,r17,r6
 4023228:	3251883a 	add	r8,r6,r9
 402322c:	1021883a 	mov	r16,r2
 4023230:	003ee506 	br	4022dc8 <__flash_rwdata_start+0xffff04f4>
 4023234:	4984b03a 	or	r2,r9,r6
 4023238:	103e6326 	beq	r2,zero,4022bc8 <__flash_rwdata_start+0xffff02f4>
 402323c:	8987c83a 	sub	r3,r17,r6
 4023240:	88c9803a 	cmpltu	r4,r17,r3
 4023244:	4245c83a 	sub	r2,r8,r9
 4023248:	1105c83a 	sub	r2,r2,r4
 402324c:	1100202c 	andhi	r4,r2,128
 4023250:	203ebb26 	beq	r4,zero,4022d40 <__flash_rwdata_start+0xffff046c>
 4023254:	3463c83a 	sub	r17,r6,r17
 4023258:	4a07c83a 	sub	r3,r9,r8
 402325c:	344d803a 	cmpltu	r6,r6,r17
 4023260:	1991c83a 	sub	r8,r3,r6
 4023264:	3825883a 	mov	r18,r7
 4023268:	003e5706 	br	4022bc8 <__flash_rwdata_start+0xffff02f4>
 402326c:	4984b03a 	or	r2,r9,r6
 4023270:	10002e26 	beq	r2,zero,402332c <__adddf3+0x7e0>
 4023274:	4004d0fa 	srli	r2,r8,3
 4023278:	8822d0fa 	srli	r17,r17,3
 402327c:	4010977a 	slli	r8,r8,29
 4023280:	10c0022c 	andhi	r3,r2,8
 4023284:	4462b03a 	or	r17,r8,r17
 4023288:	18000826 	beq	r3,zero,40232ac <__adddf3+0x760>
 402328c:	4808d0fa 	srli	r4,r9,3
 4023290:	20c0022c 	andhi	r3,r4,8
 4023294:	1800051e 	bne	r3,zero,40232ac <__adddf3+0x760>
 4023298:	300cd0fa 	srli	r6,r6,3
 402329c:	4806977a 	slli	r3,r9,29
 40232a0:	2005883a 	mov	r2,r4
 40232a4:	3825883a 	mov	r18,r7
 40232a8:	19a2b03a 	or	r17,r3,r6
 40232ac:	8810d77a 	srli	r8,r17,29
 40232b0:	100490fa 	slli	r2,r2,3
 40232b4:	882290fa 	slli	r17,r17,3
 40232b8:	0401ffc4 	movi	r16,2047
 40232bc:	4090b03a 	or	r8,r8,r2
 40232c0:	003e4106 	br	4022bc8 <__flash_rwdata_start+0xffff02f4>
 40232c4:	0141ffc4 	movi	r5,2047
 40232c8:	117fc71e 	bne	r2,r5,40231e8 <__flash_rwdata_start+0xffff0914>
 40232cc:	4811883a 	mov	r8,r9
 40232d0:	3023883a 	mov	r17,r6
 40232d4:	1021883a 	mov	r16,r2
 40232d8:	003e3b06 	br	4022bc8 <__flash_rwdata_start+0xffff02f4>
 40232dc:	10002f26 	beq	r2,zero,402339c <__adddf3+0x850>
 40232e0:	4984b03a 	or	r2,r9,r6
 40232e4:	10001126 	beq	r2,zero,402332c <__adddf3+0x7e0>
 40232e8:	4004d0fa 	srli	r2,r8,3
 40232ec:	8822d0fa 	srli	r17,r17,3
 40232f0:	4010977a 	slli	r8,r8,29
 40232f4:	10c0022c 	andhi	r3,r2,8
 40232f8:	4462b03a 	or	r17,r8,r17
 40232fc:	183feb26 	beq	r3,zero,40232ac <__flash_rwdata_start+0xffff09d8>
 4023300:	4808d0fa 	srli	r4,r9,3
 4023304:	20c0022c 	andhi	r3,r4,8
 4023308:	183fe81e 	bne	r3,zero,40232ac <__flash_rwdata_start+0xffff09d8>
 402330c:	300cd0fa 	srli	r6,r6,3
 4023310:	4806977a 	slli	r3,r9,29
 4023314:	2005883a 	mov	r2,r4
 4023318:	19a2b03a 	or	r17,r3,r6
 402331c:	003fe306 	br	40232ac <__flash_rwdata_start+0xffff09d8>
 4023320:	0011883a 	mov	r8,zero
 4023324:	0005883a 	mov	r2,zero
 4023328:	003e3f06 	br	4022c28 <__flash_rwdata_start+0xffff0354>
 402332c:	0401ffc4 	movi	r16,2047
 4023330:	003e2506 	br	4022bc8 <__flash_rwdata_start+0xffff02f4>
 4023334:	0013883a 	mov	r9,zero
 4023338:	003f8406 	br	402314c <__flash_rwdata_start+0xffff0878>
 402333c:	0005883a 	mov	r2,zero
 4023340:	0007883a 	mov	r3,zero
 4023344:	003e8906 	br	4022d6c <__flash_rwdata_start+0xffff0498>
 4023348:	197ff804 	addi	r5,r3,-32
 402334c:	01000804 	movi	r4,32
 4023350:	414ad83a 	srl	r5,r8,r5
 4023354:	19002426 	beq	r3,r4,40233e8 <__adddf3+0x89c>
 4023358:	01001004 	movi	r4,64
 402335c:	20c7c83a 	sub	r3,r4,r3
 4023360:	40c6983a 	sll	r3,r8,r3
 4023364:	1c46b03a 	or	r3,r3,r17
 4023368:	1806c03a 	cmpne	r3,r3,zero
 402336c:	28e2b03a 	or	r17,r5,r3
 4023370:	0007883a 	mov	r3,zero
 4023374:	003f2306 	br	4023004 <__flash_rwdata_start+0xffff0730>
 4023378:	0007883a 	mov	r3,zero
 402337c:	5811883a 	mov	r8,r11
 4023380:	00bfffc4 	movi	r2,-1
 4023384:	0401ffc4 	movi	r16,2047
 4023388:	003e7806 	br	4022d6c <__flash_rwdata_start+0xffff0498>
 402338c:	4462b03a 	or	r17,r8,r17
 4023390:	8822c03a 	cmpne	r17,r17,zero
 4023394:	0009883a 	mov	r4,zero
 4023398:	003fa006 	br	402321c <__flash_rwdata_start+0xffff0948>
 402339c:	4811883a 	mov	r8,r9
 40233a0:	3023883a 	mov	r17,r6
 40233a4:	0401ffc4 	movi	r16,2047
 40233a8:	003e0706 	br	4022bc8 <__flash_rwdata_start+0xffff02f4>
 40233ac:	4811883a 	mov	r8,r9
 40233b0:	3023883a 	mov	r17,r6
 40233b4:	003e0406 	br	4022bc8 <__flash_rwdata_start+0xffff02f4>
 40233b8:	21fff804 	addi	r7,r4,-32
 40233bc:	01400804 	movi	r5,32
 40233c0:	41ced83a 	srl	r7,r8,r7
 40233c4:	21400a26 	beq	r4,r5,40233f0 <__adddf3+0x8a4>
 40233c8:	01401004 	movi	r5,64
 40233cc:	2909c83a 	sub	r4,r5,r4
 40233d0:	4108983a 	sll	r4,r8,r4
 40233d4:	2448b03a 	or	r4,r4,r17
 40233d8:	2008c03a 	cmpne	r4,r4,zero
 40233dc:	3922b03a 	or	r17,r7,r4
 40233e0:	0009883a 	mov	r4,zero
 40233e4:	003f8d06 	br	402321c <__flash_rwdata_start+0xffff0948>
 40233e8:	0007883a 	mov	r3,zero
 40233ec:	003fdd06 	br	4023364 <__flash_rwdata_start+0xffff0a90>
 40233f0:	0009883a 	mov	r4,zero
 40233f4:	003ff706 	br	40233d4 <__flash_rwdata_start+0xffff0b00>

040233f8 <__divdf3>:
 40233f8:	defff004 	addi	sp,sp,-64
 40233fc:	dc800815 	stw	r18,32(sp)
 4023400:	2824d53a 	srli	r18,r5,20
 4023404:	dd800c15 	stw	r22,48(sp)
 4023408:	282cd7fa 	srli	r22,r5,31
 402340c:	dc000615 	stw	r16,24(sp)
 4023410:	04000434 	movhi	r16,16
 4023414:	843fffc4 	addi	r16,r16,-1
 4023418:	dfc00f15 	stw	ra,60(sp)
 402341c:	df000e15 	stw	fp,56(sp)
 4023420:	ddc00d15 	stw	r23,52(sp)
 4023424:	dd400b15 	stw	r21,44(sp)
 4023428:	dd000a15 	stw	r20,40(sp)
 402342c:	dcc00915 	stw	r19,36(sp)
 4023430:	dc400715 	stw	r17,28(sp)
 4023434:	9481ffcc 	andi	r18,r18,2047
 4023438:	2c20703a 	and	r16,r5,r16
 402343c:	b2003fcc 	andi	r8,r22,255
 4023440:	90006126 	beq	r18,zero,40235c8 <__divdf3+0x1d0>
 4023444:	0081ffc4 	movi	r2,2047
 4023448:	202b883a 	mov	r21,r4
 402344c:	90803726 	beq	r18,r2,402352c <__divdf3+0x134>
 4023450:	80800434 	orhi	r2,r16,16
 4023454:	100490fa 	slli	r2,r2,3
 4023458:	2020d77a 	srli	r16,r4,29
 402345c:	202a90fa 	slli	r21,r4,3
 4023460:	94bf0044 	addi	r18,r18,-1023
 4023464:	80a0b03a 	or	r16,r16,r2
 4023468:	0013883a 	mov	r9,zero
 402346c:	000b883a 	mov	r5,zero
 4023470:	3806d53a 	srli	r3,r7,20
 4023474:	382ed7fa 	srli	r23,r7,31
 4023478:	04400434 	movhi	r17,16
 402347c:	8c7fffc4 	addi	r17,r17,-1
 4023480:	18c1ffcc 	andi	r3,r3,2047
 4023484:	3029883a 	mov	r20,r6
 4023488:	3c62703a 	and	r17,r7,r17
 402348c:	bf003fcc 	andi	fp,r23,255
 4023490:	18006e26 	beq	r3,zero,402364c <__divdf3+0x254>
 4023494:	0081ffc4 	movi	r2,2047
 4023498:	18806626 	beq	r3,r2,4023634 <__divdf3+0x23c>
 402349c:	88800434 	orhi	r2,r17,16
 40234a0:	100490fa 	slli	r2,r2,3
 40234a4:	3022d77a 	srli	r17,r6,29
 40234a8:	302890fa 	slli	r20,r6,3
 40234ac:	18ff0044 	addi	r3,r3,-1023
 40234b0:	88a2b03a 	or	r17,r17,r2
 40234b4:	000f883a 	mov	r7,zero
 40234b8:	b5e6f03a 	xor	r19,r22,r23
 40234bc:	3a4cb03a 	or	r6,r7,r9
 40234c0:	008003c4 	movi	r2,15
 40234c4:	9809883a 	mov	r4,r19
 40234c8:	90c7c83a 	sub	r3,r18,r3
 40234cc:	9cc03fcc 	andi	r19,r19,255
 40234d0:	11809636 	bltu	r2,r6,402372c <__divdf3+0x334>
 40234d4:	300c90ba 	slli	r6,r6,2
 40234d8:	008100b4 	movhi	r2,1026
 40234dc:	108d3b04 	addi	r2,r2,13548
 40234e0:	308d883a 	add	r6,r6,r2
 40234e4:	30800017 	ldw	r2,0(r6)
 40234e8:	1000683a 	jmp	r2
 40234ec:	0402372c 	andhi	r16,zero,2268
 40234f0:	04023564 	muli	r16,zero,2261
 40234f4:	0402371c 	xori	r16,zero,2268
 40234f8:	04023558 	cmpnei	r16,zero,2261
 40234fc:	0402371c 	xori	r16,zero,2268
 4023500:	040236f0 	cmpltui	r16,zero,2267
 4023504:	0402371c 	xori	r16,zero,2268
 4023508:	04023558 	cmpnei	r16,zero,2261
 402350c:	04023564 	muli	r16,zero,2261
 4023510:	04023564 	muli	r16,zero,2261
 4023514:	040236f0 	cmpltui	r16,zero,2267
 4023518:	04023558 	cmpnei	r16,zero,2261
 402351c:	04023548 	cmpgei	r16,zero,2261
 4023520:	04023548 	cmpgei	r16,zero,2261
 4023524:	04023548 	cmpgei	r16,zero,2261
 4023528:	04023ab4 	movhi	r16,2282
 402352c:	2404b03a 	or	r2,r4,r16
 4023530:	10006c1e 	bne	r2,zero,40236e4 <__divdf3+0x2ec>
 4023534:	02400204 	movi	r9,8
 4023538:	0021883a 	mov	r16,zero
 402353c:	002b883a 	mov	r21,zero
 4023540:	01400084 	movi	r5,2
 4023544:	003fca06 	br	4023470 <__flash_rwdata_start+0xffff0b9c>
 4023548:	8023883a 	mov	r17,r16
 402354c:	a829883a 	mov	r20,r21
 4023550:	4039883a 	mov	fp,r8
 4023554:	280f883a 	mov	r7,r5
 4023558:	00800084 	movi	r2,2
 402355c:	3881601e 	bne	r7,r2,4023ae0 <__divdf3+0x6e8>
 4023560:	e027883a 	mov	r19,fp
 4023564:	9900004c 	andi	r4,r19,1
 4023568:	0081ffc4 	movi	r2,2047
 402356c:	0021883a 	mov	r16,zero
 4023570:	002b883a 	mov	r21,zero
 4023574:	1004953a 	slli	r2,r2,20
 4023578:	20c03fcc 	andi	r3,r4,255
 402357c:	01400434 	movhi	r5,16
 4023580:	297fffc4 	addi	r5,r5,-1
 4023584:	180697fa 	slli	r3,r3,31
 4023588:	8160703a 	and	r16,r16,r5
 402358c:	80a0b03a 	or	r16,r16,r2
 4023590:	80c6b03a 	or	r3,r16,r3
 4023594:	a805883a 	mov	r2,r21
 4023598:	dfc00f17 	ldw	ra,60(sp)
 402359c:	df000e17 	ldw	fp,56(sp)
 40235a0:	ddc00d17 	ldw	r23,52(sp)
 40235a4:	dd800c17 	ldw	r22,48(sp)
 40235a8:	dd400b17 	ldw	r21,44(sp)
 40235ac:	dd000a17 	ldw	r20,40(sp)
 40235b0:	dcc00917 	ldw	r19,36(sp)
 40235b4:	dc800817 	ldw	r18,32(sp)
 40235b8:	dc400717 	ldw	r17,28(sp)
 40235bc:	dc000617 	ldw	r16,24(sp)
 40235c0:	dec01004 	addi	sp,sp,64
 40235c4:	f800283a 	ret
 40235c8:	2404b03a 	or	r2,r4,r16
 40235cc:	2023883a 	mov	r17,r4
 40235d0:	10003f26 	beq	r2,zero,40236d0 <__divdf3+0x2d8>
 40235d4:	80015e26 	beq	r16,zero,4023b50 <__divdf3+0x758>
 40235d8:	8009883a 	mov	r4,r16
 40235dc:	d9800215 	stw	r6,8(sp)
 40235e0:	d9c00515 	stw	r7,20(sp)
 40235e4:	da000415 	stw	r8,16(sp)
 40235e8:	40255140 	call	4025514 <__clzsi2>
 40235ec:	d9800217 	ldw	r6,8(sp)
 40235f0:	d9c00517 	ldw	r7,20(sp)
 40235f4:	da000417 	ldw	r8,16(sp)
 40235f8:	113ffd44 	addi	r4,r2,-11
 40235fc:	00c00704 	movi	r3,28
 4023600:	19014f16 	blt	r3,r4,4023b40 <__divdf3+0x748>
 4023604:	00c00744 	movi	r3,29
 4023608:	157ffe04 	addi	r21,r2,-8
 402360c:	1907c83a 	sub	r3,r3,r4
 4023610:	8560983a 	sll	r16,r16,r21
 4023614:	88c6d83a 	srl	r3,r17,r3
 4023618:	8d6a983a 	sll	r21,r17,r21
 402361c:	1c20b03a 	or	r16,r3,r16
 4023620:	1080fcc4 	addi	r2,r2,1011
 4023624:	00a5c83a 	sub	r18,zero,r2
 4023628:	0013883a 	mov	r9,zero
 402362c:	000b883a 	mov	r5,zero
 4023630:	003f8f06 	br	4023470 <__flash_rwdata_start+0xffff0b9c>
 4023634:	3444b03a 	or	r2,r6,r17
 4023638:	1000231e 	bne	r2,zero,40236c8 <__divdf3+0x2d0>
 402363c:	0023883a 	mov	r17,zero
 4023640:	0029883a 	mov	r20,zero
 4023644:	01c00084 	movi	r7,2
 4023648:	003f9b06 	br	40234b8 <__flash_rwdata_start+0xffff0be4>
 402364c:	3444b03a 	or	r2,r6,r17
 4023650:	10001926 	beq	r2,zero,40236b8 <__divdf3+0x2c0>
 4023654:	88014b26 	beq	r17,zero,4023b84 <__divdf3+0x78c>
 4023658:	8809883a 	mov	r4,r17
 402365c:	d9400115 	stw	r5,4(sp)
 4023660:	d9800215 	stw	r6,8(sp)
 4023664:	da000415 	stw	r8,16(sp)
 4023668:	da400315 	stw	r9,12(sp)
 402366c:	40255140 	call	4025514 <__clzsi2>
 4023670:	d9400117 	ldw	r5,4(sp)
 4023674:	d9800217 	ldw	r6,8(sp)
 4023678:	da000417 	ldw	r8,16(sp)
 402367c:	da400317 	ldw	r9,12(sp)
 4023680:	113ffd44 	addi	r4,r2,-11
 4023684:	00c00704 	movi	r3,28
 4023688:	19013a16 	blt	r3,r4,4023b74 <__divdf3+0x77c>
 402368c:	00c00744 	movi	r3,29
 4023690:	153ffe04 	addi	r20,r2,-8
 4023694:	1907c83a 	sub	r3,r3,r4
 4023698:	8d22983a 	sll	r17,r17,r20
 402369c:	30c6d83a 	srl	r3,r6,r3
 40236a0:	3528983a 	sll	r20,r6,r20
 40236a4:	1c62b03a 	or	r17,r3,r17
 40236a8:	1080fcc4 	addi	r2,r2,1011
 40236ac:	0087c83a 	sub	r3,zero,r2
 40236b0:	000f883a 	mov	r7,zero
 40236b4:	003f8006 	br	40234b8 <__flash_rwdata_start+0xffff0be4>
 40236b8:	0023883a 	mov	r17,zero
 40236bc:	0029883a 	mov	r20,zero
 40236c0:	01c00044 	movi	r7,1
 40236c4:	003f7c06 	br	40234b8 <__flash_rwdata_start+0xffff0be4>
 40236c8:	01c000c4 	movi	r7,3
 40236cc:	003f7a06 	br	40234b8 <__flash_rwdata_start+0xffff0be4>
 40236d0:	02400104 	movi	r9,4
 40236d4:	0021883a 	mov	r16,zero
 40236d8:	002b883a 	mov	r21,zero
 40236dc:	01400044 	movi	r5,1
 40236e0:	003f6306 	br	4023470 <__flash_rwdata_start+0xffff0b9c>
 40236e4:	02400304 	movi	r9,12
 40236e8:	014000c4 	movi	r5,3
 40236ec:	003f6006 	br	4023470 <__flash_rwdata_start+0xffff0b9c>
 40236f0:	04000434 	movhi	r16,16
 40236f4:	0009883a 	mov	r4,zero
 40236f8:	843fffc4 	addi	r16,r16,-1
 40236fc:	057fffc4 	movi	r21,-1
 4023700:	0081ffc4 	movi	r2,2047
 4023704:	003f9b06 	br	4023574 <__flash_rwdata_start+0xffff0ca0>
 4023708:	00c00044 	movi	r3,1
 402370c:	1887c83a 	sub	r3,r3,r2
 4023710:	01000e04 	movi	r4,56
 4023714:	20c1530e 	bge	r4,r3,4023c64 <__divdf3+0x86c>
 4023718:	9900004c 	andi	r4,r19,1
 402371c:	0005883a 	mov	r2,zero
 4023720:	0021883a 	mov	r16,zero
 4023724:	002b883a 	mov	r21,zero
 4023728:	003f9206 	br	4023574 <__flash_rwdata_start+0xffff0ca0>
 402372c:	8c012e36 	bltu	r17,r16,4023be8 <__divdf3+0x7f0>
 4023730:	84412c26 	beq	r16,r17,4023be4 <__divdf3+0x7ec>
 4023734:	a82f883a 	mov	r23,r21
 4023738:	18ffffc4 	addi	r3,r3,-1
 402373c:	002b883a 	mov	r21,zero
 4023740:	a004d63a 	srli	r2,r20,24
 4023744:	8822923a 	slli	r17,r17,8
 4023748:	a028923a 	slli	r20,r20,8
 402374c:	8009883a 	mov	r4,r16
 4023750:	88acb03a 	or	r22,r17,r2
 4023754:	dd000015 	stw	r20,0(sp)
 4023758:	b028d43a 	srli	r20,r22,16
 402375c:	d8c00215 	stw	r3,8(sp)
 4023760:	b4bfffcc 	andi	r18,r22,65535
 4023764:	a00b883a 	mov	r5,r20
 4023768:	40256700 	call	4025670 <__udivsi3>
 402376c:	100b883a 	mov	r5,r2
 4023770:	9009883a 	mov	r4,r18
 4023774:	1023883a 	mov	r17,r2
 4023778:	402572c0 	call	402572c <__mulsi3>
 402377c:	8009883a 	mov	r4,r16
 4023780:	a00b883a 	mov	r5,r20
 4023784:	1039883a 	mov	fp,r2
 4023788:	40256d40 	call	40256d4 <__umodsi3>
 402378c:	1004943a 	slli	r2,r2,16
 4023790:	b808d43a 	srli	r4,r23,16
 4023794:	d8c00217 	ldw	r3,8(sp)
 4023798:	2084b03a 	or	r2,r4,r2
 402379c:	1700062e 	bgeu	r2,fp,40237b8 <__divdf3+0x3c0>
 40237a0:	1585883a 	add	r2,r2,r22
 40237a4:	893fffc4 	addi	r4,r17,-1
 40237a8:	15811d36 	bltu	r2,r22,4023c20 <__divdf3+0x828>
 40237ac:	17011c2e 	bgeu	r2,fp,4023c20 <__divdf3+0x828>
 40237b0:	8c7fff84 	addi	r17,r17,-2
 40237b4:	1585883a 	add	r2,r2,r22
 40237b8:	1739c83a 	sub	fp,r2,fp
 40237bc:	a00b883a 	mov	r5,r20
 40237c0:	e009883a 	mov	r4,fp
 40237c4:	d8c00215 	stw	r3,8(sp)
 40237c8:	40256700 	call	4025670 <__udivsi3>
 40237cc:	100b883a 	mov	r5,r2
 40237d0:	9009883a 	mov	r4,r18
 40237d4:	1021883a 	mov	r16,r2
 40237d8:	402572c0 	call	402572c <__mulsi3>
 40237dc:	a00b883a 	mov	r5,r20
 40237e0:	e009883a 	mov	r4,fp
 40237e4:	d8800415 	stw	r2,16(sp)
 40237e8:	40256d40 	call	40256d4 <__umodsi3>
 40237ec:	1004943a 	slli	r2,r2,16
 40237f0:	da000417 	ldw	r8,16(sp)
 40237f4:	bdffffcc 	andi	r23,r23,65535
 40237f8:	b884b03a 	or	r2,r23,r2
 40237fc:	d8c00217 	ldw	r3,8(sp)
 4023800:	1200062e 	bgeu	r2,r8,402381c <__divdf3+0x424>
 4023804:	1585883a 	add	r2,r2,r22
 4023808:	813fffc4 	addi	r4,r16,-1
 402380c:	15810236 	bltu	r2,r22,4023c18 <__divdf3+0x820>
 4023810:	1201012e 	bgeu	r2,r8,4023c18 <__divdf3+0x820>
 4023814:	843fff84 	addi	r16,r16,-2
 4023818:	1585883a 	add	r2,r2,r22
 402381c:	8822943a 	slli	r17,r17,16
 4023820:	d9800017 	ldw	r6,0(sp)
 4023824:	1211c83a 	sub	r8,r2,r8
 4023828:	8c22b03a 	or	r17,r17,r16
 402382c:	373fffcc 	andi	fp,r6,65535
 4023830:	8abfffcc 	andi	r10,r17,65535
 4023834:	8820d43a 	srli	r16,r17,16
 4023838:	5009883a 	mov	r4,r10
 402383c:	e00b883a 	mov	r5,fp
 4023840:	302ed43a 	srli	r23,r6,16
 4023844:	d8c00215 	stw	r3,8(sp)
 4023848:	da000415 	stw	r8,16(sp)
 402384c:	da800115 	stw	r10,4(sp)
 4023850:	402572c0 	call	402572c <__mulsi3>
 4023854:	800b883a 	mov	r5,r16
 4023858:	e009883a 	mov	r4,fp
 402385c:	d8800515 	stw	r2,20(sp)
 4023860:	402572c0 	call	402572c <__mulsi3>
 4023864:	8009883a 	mov	r4,r16
 4023868:	b80b883a 	mov	r5,r23
 402386c:	d8800315 	stw	r2,12(sp)
 4023870:	402572c0 	call	402572c <__mulsi3>
 4023874:	da800117 	ldw	r10,4(sp)
 4023878:	b80b883a 	mov	r5,r23
 402387c:	1021883a 	mov	r16,r2
 4023880:	5009883a 	mov	r4,r10
 4023884:	402572c0 	call	402572c <__mulsi3>
 4023888:	d9c00517 	ldw	r7,20(sp)
 402388c:	da400317 	ldw	r9,12(sp)
 4023890:	d8c00217 	ldw	r3,8(sp)
 4023894:	3808d43a 	srli	r4,r7,16
 4023898:	1245883a 	add	r2,r2,r9
 402389c:	da000417 	ldw	r8,16(sp)
 40238a0:	2085883a 	add	r2,r4,r2
 40238a4:	1240022e 	bgeu	r2,r9,40238b0 <__divdf3+0x4b8>
 40238a8:	01000074 	movhi	r4,1
 40238ac:	8121883a 	add	r16,r16,r4
 40238b0:	1008d43a 	srli	r4,r2,16
 40238b4:	1004943a 	slli	r2,r2,16
 40238b8:	39ffffcc 	andi	r7,r7,65535
 40238bc:	2409883a 	add	r4,r4,r16
 40238c0:	11c5883a 	add	r2,r2,r7
 40238c4:	4100bb36 	bltu	r8,r4,4023bb4 <__divdf3+0x7bc>
 40238c8:	4100d726 	beq	r8,r4,4023c28 <__divdf3+0x830>
 40238cc:	4109c83a 	sub	r4,r8,r4
 40238d0:	a8a1c83a 	sub	r16,r21,r2
 40238d4:	ac2b803a 	cmpltu	r21,r21,r16
 40238d8:	256bc83a 	sub	r21,r4,r21
 40238dc:	b540d926 	beq	r22,r21,4023c44 <__divdf3+0x84c>
 40238e0:	a00b883a 	mov	r5,r20
 40238e4:	a809883a 	mov	r4,r21
 40238e8:	d8c00215 	stw	r3,8(sp)
 40238ec:	40256700 	call	4025670 <__udivsi3>
 40238f0:	100b883a 	mov	r5,r2
 40238f4:	9009883a 	mov	r4,r18
 40238f8:	d8800515 	stw	r2,20(sp)
 40238fc:	402572c0 	call	402572c <__mulsi3>
 4023900:	a809883a 	mov	r4,r21
 4023904:	a00b883a 	mov	r5,r20
 4023908:	d8800415 	stw	r2,16(sp)
 402390c:	40256d40 	call	40256d4 <__umodsi3>
 4023910:	1004943a 	slli	r2,r2,16
 4023914:	8008d43a 	srli	r4,r16,16
 4023918:	da000417 	ldw	r8,16(sp)
 402391c:	d8c00217 	ldw	r3,8(sp)
 4023920:	2084b03a 	or	r2,r4,r2
 4023924:	d9c00517 	ldw	r7,20(sp)
 4023928:	1200062e 	bgeu	r2,r8,4023944 <__divdf3+0x54c>
 402392c:	1585883a 	add	r2,r2,r22
 4023930:	393fffc4 	addi	r4,r7,-1
 4023934:	1580c536 	bltu	r2,r22,4023c4c <__divdf3+0x854>
 4023938:	1200c42e 	bgeu	r2,r8,4023c4c <__divdf3+0x854>
 402393c:	39ffff84 	addi	r7,r7,-2
 4023940:	1585883a 	add	r2,r2,r22
 4023944:	122bc83a 	sub	r21,r2,r8
 4023948:	a00b883a 	mov	r5,r20
 402394c:	a809883a 	mov	r4,r21
 4023950:	d8c00215 	stw	r3,8(sp)
 4023954:	d9c00515 	stw	r7,20(sp)
 4023958:	40256700 	call	4025670 <__udivsi3>
 402395c:	9009883a 	mov	r4,r18
 4023960:	100b883a 	mov	r5,r2
 4023964:	d8800415 	stw	r2,16(sp)
 4023968:	402572c0 	call	402572c <__mulsi3>
 402396c:	a809883a 	mov	r4,r21
 4023970:	a00b883a 	mov	r5,r20
 4023974:	1025883a 	mov	r18,r2
 4023978:	40256d40 	call	40256d4 <__umodsi3>
 402397c:	1004943a 	slli	r2,r2,16
 4023980:	813fffcc 	andi	r4,r16,65535
 4023984:	d8c00217 	ldw	r3,8(sp)
 4023988:	20a0b03a 	or	r16,r4,r2
 402398c:	d9c00517 	ldw	r7,20(sp)
 4023990:	da000417 	ldw	r8,16(sp)
 4023994:	8480062e 	bgeu	r16,r18,40239b0 <__divdf3+0x5b8>
 4023998:	85a1883a 	add	r16,r16,r22
 402399c:	40bfffc4 	addi	r2,r8,-1
 40239a0:	8580ac36 	bltu	r16,r22,4023c54 <__divdf3+0x85c>
 40239a4:	8480ab2e 	bgeu	r16,r18,4023c54 <__divdf3+0x85c>
 40239a8:	423fff84 	addi	r8,r8,-2
 40239ac:	85a1883a 	add	r16,r16,r22
 40239b0:	3804943a 	slli	r2,r7,16
 40239b4:	84a1c83a 	sub	r16,r16,r18
 40239b8:	e009883a 	mov	r4,fp
 40239bc:	1228b03a 	or	r20,r2,r8
 40239c0:	a1ffffcc 	andi	r7,r20,65535
 40239c4:	a024d43a 	srli	r18,r20,16
 40239c8:	380b883a 	mov	r5,r7
 40239cc:	d8c00215 	stw	r3,8(sp)
 40239d0:	d9c00515 	stw	r7,20(sp)
 40239d4:	402572c0 	call	402572c <__mulsi3>
 40239d8:	900b883a 	mov	r5,r18
 40239dc:	e009883a 	mov	r4,fp
 40239e0:	102b883a 	mov	r21,r2
 40239e4:	402572c0 	call	402572c <__mulsi3>
 40239e8:	900b883a 	mov	r5,r18
 40239ec:	b809883a 	mov	r4,r23
 40239f0:	1039883a 	mov	fp,r2
 40239f4:	402572c0 	call	402572c <__mulsi3>
 40239f8:	d9c00517 	ldw	r7,20(sp)
 40239fc:	b80b883a 	mov	r5,r23
 4023a00:	1025883a 	mov	r18,r2
 4023a04:	3809883a 	mov	r4,r7
 4023a08:	402572c0 	call	402572c <__mulsi3>
 4023a0c:	a808d43a 	srli	r4,r21,16
 4023a10:	1705883a 	add	r2,r2,fp
 4023a14:	d8c00217 	ldw	r3,8(sp)
 4023a18:	2085883a 	add	r2,r4,r2
 4023a1c:	1700022e 	bgeu	r2,fp,4023a28 <__divdf3+0x630>
 4023a20:	01000074 	movhi	r4,1
 4023a24:	9125883a 	add	r18,r18,r4
 4023a28:	1008d43a 	srli	r4,r2,16
 4023a2c:	1004943a 	slli	r2,r2,16
 4023a30:	ad7fffcc 	andi	r21,r21,65535
 4023a34:	2489883a 	add	r4,r4,r18
 4023a38:	1545883a 	add	r2,r2,r21
 4023a3c:	81003836 	bltu	r16,r4,4023b20 <__divdf3+0x728>
 4023a40:	81003626 	beq	r16,r4,4023b1c <__divdf3+0x724>
 4023a44:	a5000054 	ori	r20,r20,1
 4023a48:	1880ffc4 	addi	r2,r3,1023
 4023a4c:	00bf2e0e 	bge	zero,r2,4023708 <__flash_rwdata_start+0xffff0e34>
 4023a50:	a10001cc 	andi	r4,r20,7
 4023a54:	20000726 	beq	r4,zero,4023a74 <__divdf3+0x67c>
 4023a58:	a10003cc 	andi	r4,r20,15
 4023a5c:	01400104 	movi	r5,4
 4023a60:	21400426 	beq	r4,r5,4023a74 <__divdf3+0x67c>
 4023a64:	a149883a 	add	r4,r20,r5
 4023a68:	2529803a 	cmpltu	r20,r4,r20
 4023a6c:	8d23883a 	add	r17,r17,r20
 4023a70:	2029883a 	mov	r20,r4
 4023a74:	8900402c 	andhi	r4,r17,256
 4023a78:	20000426 	beq	r4,zero,4023a8c <__divdf3+0x694>
 4023a7c:	18810004 	addi	r2,r3,1024
 4023a80:	00ffc034 	movhi	r3,65280
 4023a84:	18ffffc4 	addi	r3,r3,-1
 4023a88:	88e2703a 	and	r17,r17,r3
 4023a8c:	00c1ff84 	movi	r3,2046
 4023a90:	18beb416 	blt	r3,r2,4023564 <__flash_rwdata_start+0xffff0c90>
 4023a94:	a028d0fa 	srli	r20,r20,3
 4023a98:	882a977a 	slli	r21,r17,29
 4023a9c:	8820927a 	slli	r16,r17,9
 4023aa0:	1081ffcc 	andi	r2,r2,2047
 4023aa4:	ad2ab03a 	or	r21,r21,r20
 4023aa8:	8020d33a 	srli	r16,r16,12
 4023aac:	9900004c 	andi	r4,r19,1
 4023ab0:	003eb006 	br	4023574 <__flash_rwdata_start+0xffff0ca0>
 4023ab4:	8080022c 	andhi	r2,r16,8
 4023ab8:	10001226 	beq	r2,zero,4023b04 <__divdf3+0x70c>
 4023abc:	8880022c 	andhi	r2,r17,8
 4023ac0:	1000101e 	bne	r2,zero,4023b04 <__divdf3+0x70c>
 4023ac4:	00800434 	movhi	r2,16
 4023ac8:	8c000234 	orhi	r16,r17,8
 4023acc:	10bfffc4 	addi	r2,r2,-1
 4023ad0:	b809883a 	mov	r4,r23
 4023ad4:	80a0703a 	and	r16,r16,r2
 4023ad8:	a02b883a 	mov	r21,r20
 4023adc:	003f0806 	br	4023700 <__flash_rwdata_start+0xffff0e2c>
 4023ae0:	008000c4 	movi	r2,3
 4023ae4:	3880b126 	beq	r7,r2,4023dac <__divdf3+0x9b4>
 4023ae8:	00800044 	movi	r2,1
 4023aec:	38805b1e 	bne	r7,r2,4023c5c <__divdf3+0x864>
 4023af0:	e009883a 	mov	r4,fp
 4023af4:	0005883a 	mov	r2,zero
 4023af8:	0021883a 	mov	r16,zero
 4023afc:	002b883a 	mov	r21,zero
 4023b00:	003e9c06 	br	4023574 <__flash_rwdata_start+0xffff0ca0>
 4023b04:	00800434 	movhi	r2,16
 4023b08:	84000234 	orhi	r16,r16,8
 4023b0c:	10bfffc4 	addi	r2,r2,-1
 4023b10:	b009883a 	mov	r4,r22
 4023b14:	80a0703a 	and	r16,r16,r2
 4023b18:	003ef906 	br	4023700 <__flash_rwdata_start+0xffff0e2c>
 4023b1c:	103fca26 	beq	r2,zero,4023a48 <__flash_rwdata_start+0xffff1174>
 4023b20:	b421883a 	add	r16,r22,r16
 4023b24:	a17fffc4 	addi	r5,r20,-1
 4023b28:	8580422e 	bgeu	r16,r22,4023c34 <__divdf3+0x83c>
 4023b2c:	2829883a 	mov	r20,r5
 4023b30:	813fc41e 	bne	r16,r4,4023a44 <__flash_rwdata_start+0xffff1170>
 4023b34:	d9800017 	ldw	r6,0(sp)
 4023b38:	30bfc21e 	bne	r6,r2,4023a44 <__flash_rwdata_start+0xffff1170>
 4023b3c:	003fc206 	br	4023a48 <__flash_rwdata_start+0xffff1174>
 4023b40:	143ff604 	addi	r16,r2,-40
 4023b44:	8c20983a 	sll	r16,r17,r16
 4023b48:	002b883a 	mov	r21,zero
 4023b4c:	003eb406 	br	4023620 <__flash_rwdata_start+0xffff0d4c>
 4023b50:	d9800215 	stw	r6,8(sp)
 4023b54:	d9c00515 	stw	r7,20(sp)
 4023b58:	da000415 	stw	r8,16(sp)
 4023b5c:	40255140 	call	4025514 <__clzsi2>
 4023b60:	10800804 	addi	r2,r2,32
 4023b64:	da000417 	ldw	r8,16(sp)
 4023b68:	d9c00517 	ldw	r7,20(sp)
 4023b6c:	d9800217 	ldw	r6,8(sp)
 4023b70:	003ea106 	br	40235f8 <__flash_rwdata_start+0xffff0d24>
 4023b74:	147ff604 	addi	r17,r2,-40
 4023b78:	3462983a 	sll	r17,r6,r17
 4023b7c:	0029883a 	mov	r20,zero
 4023b80:	003ec906 	br	40236a8 <__flash_rwdata_start+0xffff0dd4>
 4023b84:	3009883a 	mov	r4,r6
 4023b88:	d9400115 	stw	r5,4(sp)
 4023b8c:	d9800215 	stw	r6,8(sp)
 4023b90:	da000415 	stw	r8,16(sp)
 4023b94:	da400315 	stw	r9,12(sp)
 4023b98:	40255140 	call	4025514 <__clzsi2>
 4023b9c:	10800804 	addi	r2,r2,32
 4023ba0:	da400317 	ldw	r9,12(sp)
 4023ba4:	da000417 	ldw	r8,16(sp)
 4023ba8:	d9800217 	ldw	r6,8(sp)
 4023bac:	d9400117 	ldw	r5,4(sp)
 4023bb0:	003eb306 	br	4023680 <__flash_rwdata_start+0xffff0dac>
 4023bb4:	d9800017 	ldw	r6,0(sp)
 4023bb8:	a9ab883a 	add	r21,r21,r6
 4023bbc:	a98b803a 	cmpltu	r5,r21,r6
 4023bc0:	2d8b883a 	add	r5,r5,r22
 4023bc4:	2a11883a 	add	r8,r5,r8
 4023bc8:	897fffc4 	addi	r5,r17,-1
 4023bcc:	b2000c2e 	bgeu	r22,r8,4023c00 <__divdf3+0x808>
 4023bd0:	41003f36 	bltu	r8,r4,4023cd0 <__divdf3+0x8d8>
 4023bd4:	22006c26 	beq	r4,r8,4023d88 <__divdf3+0x990>
 4023bd8:	4109c83a 	sub	r4,r8,r4
 4023bdc:	2823883a 	mov	r17,r5
 4023be0:	003f3b06 	br	40238d0 <__flash_rwdata_start+0xffff0ffc>
 4023be4:	ad3ed336 	bltu	r21,r20,4023734 <__flash_rwdata_start+0xffff0e60>
 4023be8:	a804d07a 	srli	r2,r21,1
 4023bec:	802e97fa 	slli	r23,r16,31
 4023bf0:	a82a97fa 	slli	r21,r21,31
 4023bf4:	8020d07a 	srli	r16,r16,1
 4023bf8:	b8aeb03a 	or	r23,r23,r2
 4023bfc:	003ed006 	br	4023740 <__flash_rwdata_start+0xffff0e6c>
 4023c00:	b23ff51e 	bne	r22,r8,4023bd8 <__flash_rwdata_start+0xffff1304>
 4023c04:	d9800017 	ldw	r6,0(sp)
 4023c08:	a9bff12e 	bgeu	r21,r6,4023bd0 <__flash_rwdata_start+0xffff12fc>
 4023c0c:	b109c83a 	sub	r4,r22,r4
 4023c10:	2823883a 	mov	r17,r5
 4023c14:	003f2e06 	br	40238d0 <__flash_rwdata_start+0xffff0ffc>
 4023c18:	2021883a 	mov	r16,r4
 4023c1c:	003eff06 	br	402381c <__flash_rwdata_start+0xffff0f48>
 4023c20:	2023883a 	mov	r17,r4
 4023c24:	003ee406 	br	40237b8 <__flash_rwdata_start+0xffff0ee4>
 4023c28:	a8bfe236 	bltu	r21,r2,4023bb4 <__flash_rwdata_start+0xffff12e0>
 4023c2c:	0009883a 	mov	r4,zero
 4023c30:	003f2706 	br	40238d0 <__flash_rwdata_start+0xffff0ffc>
 4023c34:	81002d36 	bltu	r16,r4,4023cec <__divdf3+0x8f4>
 4023c38:	24005626 	beq	r4,r16,4023d94 <__divdf3+0x99c>
 4023c3c:	2829883a 	mov	r20,r5
 4023c40:	003f8006 	br	4023a44 <__flash_rwdata_start+0xffff1170>
 4023c44:	053fffc4 	movi	r20,-1
 4023c48:	003f7f06 	br	4023a48 <__flash_rwdata_start+0xffff1174>
 4023c4c:	200f883a 	mov	r7,r4
 4023c50:	003f3c06 	br	4023944 <__flash_rwdata_start+0xffff1070>
 4023c54:	1011883a 	mov	r8,r2
 4023c58:	003f5506 	br	40239b0 <__flash_rwdata_start+0xffff10dc>
 4023c5c:	e027883a 	mov	r19,fp
 4023c60:	003f7906 	br	4023a48 <__flash_rwdata_start+0xffff1174>
 4023c64:	010007c4 	movi	r4,31
 4023c68:	20c02816 	blt	r4,r3,4023d0c <__divdf3+0x914>
 4023c6c:	00800804 	movi	r2,32
 4023c70:	10c5c83a 	sub	r2,r2,r3
 4023c74:	888a983a 	sll	r5,r17,r2
 4023c78:	a0c8d83a 	srl	r4,r20,r3
 4023c7c:	a084983a 	sll	r2,r20,r2
 4023c80:	88e2d83a 	srl	r17,r17,r3
 4023c84:	2906b03a 	or	r3,r5,r4
 4023c88:	1004c03a 	cmpne	r2,r2,zero
 4023c8c:	1886b03a 	or	r3,r3,r2
 4023c90:	188001cc 	andi	r2,r3,7
 4023c94:	10000726 	beq	r2,zero,4023cb4 <__divdf3+0x8bc>
 4023c98:	188003cc 	andi	r2,r3,15
 4023c9c:	01000104 	movi	r4,4
 4023ca0:	11000426 	beq	r2,r4,4023cb4 <__divdf3+0x8bc>
 4023ca4:	1805883a 	mov	r2,r3
 4023ca8:	10c00104 	addi	r3,r2,4
 4023cac:	1885803a 	cmpltu	r2,r3,r2
 4023cb0:	88a3883a 	add	r17,r17,r2
 4023cb4:	8880202c 	andhi	r2,r17,128
 4023cb8:	10002926 	beq	r2,zero,4023d60 <__divdf3+0x968>
 4023cbc:	9900004c 	andi	r4,r19,1
 4023cc0:	00800044 	movi	r2,1
 4023cc4:	0021883a 	mov	r16,zero
 4023cc8:	002b883a 	mov	r21,zero
 4023ccc:	003e2906 	br	4023574 <__flash_rwdata_start+0xffff0ca0>
 4023cd0:	d9800017 	ldw	r6,0(sp)
 4023cd4:	8c7fff84 	addi	r17,r17,-2
 4023cd8:	a9ab883a 	add	r21,r21,r6
 4023cdc:	a98b803a 	cmpltu	r5,r21,r6
 4023ce0:	2d8b883a 	add	r5,r5,r22
 4023ce4:	2a11883a 	add	r8,r5,r8
 4023ce8:	003ef806 	br	40238cc <__flash_rwdata_start+0xffff0ff8>
 4023cec:	d9800017 	ldw	r6,0(sp)
 4023cf0:	318f883a 	add	r7,r6,r6
 4023cf4:	398b803a 	cmpltu	r5,r7,r6
 4023cf8:	2d8d883a 	add	r6,r5,r22
 4023cfc:	81a1883a 	add	r16,r16,r6
 4023d00:	a17fff84 	addi	r5,r20,-2
 4023d04:	d9c00015 	stw	r7,0(sp)
 4023d08:	003f8806 	br	4023b2c <__flash_rwdata_start+0xffff1258>
 4023d0c:	013ff844 	movi	r4,-31
 4023d10:	2085c83a 	sub	r2,r4,r2
 4023d14:	8888d83a 	srl	r4,r17,r2
 4023d18:	00800804 	movi	r2,32
 4023d1c:	18802126 	beq	r3,r2,4023da4 <__divdf3+0x9ac>
 4023d20:	04001004 	movi	r16,64
 4023d24:	80c7c83a 	sub	r3,r16,r3
 4023d28:	88e0983a 	sll	r16,r17,r3
 4023d2c:	8504b03a 	or	r2,r16,r20
 4023d30:	1004c03a 	cmpne	r2,r2,zero
 4023d34:	2084b03a 	or	r2,r4,r2
 4023d38:	144001cc 	andi	r17,r2,7
 4023d3c:	88000d1e 	bne	r17,zero,4023d74 <__divdf3+0x97c>
 4023d40:	0021883a 	mov	r16,zero
 4023d44:	102ad0fa 	srli	r21,r2,3
 4023d48:	9900004c 	andi	r4,r19,1
 4023d4c:	0005883a 	mov	r2,zero
 4023d50:	ac6ab03a 	or	r21,r21,r17
 4023d54:	003e0706 	br	4023574 <__flash_rwdata_start+0xffff0ca0>
 4023d58:	1007883a 	mov	r3,r2
 4023d5c:	0023883a 	mov	r17,zero
 4023d60:	8820927a 	slli	r16,r17,9
 4023d64:	1805883a 	mov	r2,r3
 4023d68:	8822977a 	slli	r17,r17,29
 4023d6c:	8020d33a 	srli	r16,r16,12
 4023d70:	003ff406 	br	4023d44 <__flash_rwdata_start+0xffff1470>
 4023d74:	10c003cc 	andi	r3,r2,15
 4023d78:	01000104 	movi	r4,4
 4023d7c:	193ff626 	beq	r3,r4,4023d58 <__flash_rwdata_start+0xffff1484>
 4023d80:	0023883a 	mov	r17,zero
 4023d84:	003fc806 	br	4023ca8 <__flash_rwdata_start+0xffff13d4>
 4023d88:	a8bfd136 	bltu	r21,r2,4023cd0 <__flash_rwdata_start+0xffff13fc>
 4023d8c:	2823883a 	mov	r17,r5
 4023d90:	003fa606 	br	4023c2c <__flash_rwdata_start+0xffff1358>
 4023d94:	d9800017 	ldw	r6,0(sp)
 4023d98:	30bfd436 	bltu	r6,r2,4023cec <__flash_rwdata_start+0xffff1418>
 4023d9c:	2829883a 	mov	r20,r5
 4023da0:	003f6406 	br	4023b34 <__flash_rwdata_start+0xffff1260>
 4023da4:	0021883a 	mov	r16,zero
 4023da8:	003fe006 	br	4023d2c <__flash_rwdata_start+0xffff1458>
 4023dac:	00800434 	movhi	r2,16
 4023db0:	8c000234 	orhi	r16,r17,8
 4023db4:	10bfffc4 	addi	r2,r2,-1
 4023db8:	e009883a 	mov	r4,fp
 4023dbc:	80a0703a 	and	r16,r16,r2
 4023dc0:	a02b883a 	mov	r21,r20
 4023dc4:	003e4e06 	br	4023700 <__flash_rwdata_start+0xffff0e2c>

04023dc8 <__gedf2>:
 4023dc8:	2804d53a 	srli	r2,r5,20
 4023dcc:	3806d53a 	srli	r3,r7,20
 4023dd0:	02000434 	movhi	r8,16
 4023dd4:	423fffc4 	addi	r8,r8,-1
 4023dd8:	1081ffcc 	andi	r2,r2,2047
 4023ddc:	0241ffc4 	movi	r9,2047
 4023de0:	2a14703a 	and	r10,r5,r8
 4023de4:	18c1ffcc 	andi	r3,r3,2047
 4023de8:	3a10703a 	and	r8,r7,r8
 4023dec:	280ad7fa 	srli	r5,r5,31
 4023df0:	380ed7fa 	srli	r7,r7,31
 4023df4:	12401d26 	beq	r2,r9,4023e6c <__gedf2+0xa4>
 4023df8:	0241ffc4 	movi	r9,2047
 4023dfc:	1a401226 	beq	r3,r9,4023e48 <__gedf2+0x80>
 4023e00:	1000081e 	bne	r2,zero,4023e24 <__gedf2+0x5c>
 4023e04:	2296b03a 	or	r11,r4,r10
 4023e08:	5813003a 	cmpeq	r9,r11,zero
 4023e0c:	1800091e 	bne	r3,zero,4023e34 <__gedf2+0x6c>
 4023e10:	3218b03a 	or	r12,r6,r8
 4023e14:	6000071e 	bne	r12,zero,4023e34 <__gedf2+0x6c>
 4023e18:	0005883a 	mov	r2,zero
 4023e1c:	5800101e 	bne	r11,zero,4023e60 <__gedf2+0x98>
 4023e20:	f800283a 	ret
 4023e24:	18000c1e 	bne	r3,zero,4023e58 <__gedf2+0x90>
 4023e28:	3212b03a 	or	r9,r6,r8
 4023e2c:	48000c26 	beq	r9,zero,4023e60 <__gedf2+0x98>
 4023e30:	0013883a 	mov	r9,zero
 4023e34:	39c03fcc 	andi	r7,r7,255
 4023e38:	48000826 	beq	r9,zero,4023e5c <__gedf2+0x94>
 4023e3c:	38000926 	beq	r7,zero,4023e64 <__gedf2+0x9c>
 4023e40:	00800044 	movi	r2,1
 4023e44:	f800283a 	ret
 4023e48:	3212b03a 	or	r9,r6,r8
 4023e4c:	483fec26 	beq	r9,zero,4023e00 <__flash_rwdata_start+0xffff152c>
 4023e50:	00bfff84 	movi	r2,-2
 4023e54:	f800283a 	ret
 4023e58:	39c03fcc 	andi	r7,r7,255
 4023e5c:	29c00626 	beq	r5,r7,4023e78 <__gedf2+0xb0>
 4023e60:	283ff726 	beq	r5,zero,4023e40 <__flash_rwdata_start+0xffff156c>
 4023e64:	00bfffc4 	movi	r2,-1
 4023e68:	f800283a 	ret
 4023e6c:	2292b03a 	or	r9,r4,r10
 4023e70:	483fe126 	beq	r9,zero,4023df8 <__flash_rwdata_start+0xffff1524>
 4023e74:	003ff606 	br	4023e50 <__flash_rwdata_start+0xffff157c>
 4023e78:	18bff916 	blt	r3,r2,4023e60 <__flash_rwdata_start+0xffff158c>
 4023e7c:	10c00316 	blt	r2,r3,4023e8c <__gedf2+0xc4>
 4023e80:	42bff736 	bltu	r8,r10,4023e60 <__flash_rwdata_start+0xffff158c>
 4023e84:	52000326 	beq	r10,r8,4023e94 <__gedf2+0xcc>
 4023e88:	5200042e 	bgeu	r10,r8,4023e9c <__gedf2+0xd4>
 4023e8c:	283fec1e 	bne	r5,zero,4023e40 <__flash_rwdata_start+0xffff156c>
 4023e90:	003ff406 	br	4023e64 <__flash_rwdata_start+0xffff1590>
 4023e94:	313ff236 	bltu	r6,r4,4023e60 <__flash_rwdata_start+0xffff158c>
 4023e98:	21bffc36 	bltu	r4,r6,4023e8c <__flash_rwdata_start+0xffff15b8>
 4023e9c:	0005883a 	mov	r2,zero
 4023ea0:	f800283a 	ret

04023ea4 <__ledf2>:
 4023ea4:	2804d53a 	srli	r2,r5,20
 4023ea8:	3810d53a 	srli	r8,r7,20
 4023eac:	00c00434 	movhi	r3,16
 4023eb0:	18ffffc4 	addi	r3,r3,-1
 4023eb4:	1081ffcc 	andi	r2,r2,2047
 4023eb8:	0241ffc4 	movi	r9,2047
 4023ebc:	28d4703a 	and	r10,r5,r3
 4023ec0:	4201ffcc 	andi	r8,r8,2047
 4023ec4:	38c6703a 	and	r3,r7,r3
 4023ec8:	280ad7fa 	srli	r5,r5,31
 4023ecc:	380ed7fa 	srli	r7,r7,31
 4023ed0:	12401f26 	beq	r2,r9,4023f50 <__ledf2+0xac>
 4023ed4:	0241ffc4 	movi	r9,2047
 4023ed8:	42401426 	beq	r8,r9,4023f2c <__ledf2+0x88>
 4023edc:	1000091e 	bne	r2,zero,4023f04 <__ledf2+0x60>
 4023ee0:	2296b03a 	or	r11,r4,r10
 4023ee4:	5813003a 	cmpeq	r9,r11,zero
 4023ee8:	29403fcc 	andi	r5,r5,255
 4023eec:	40000a1e 	bne	r8,zero,4023f18 <__ledf2+0x74>
 4023ef0:	30d8b03a 	or	r12,r6,r3
 4023ef4:	6000081e 	bne	r12,zero,4023f18 <__ledf2+0x74>
 4023ef8:	0005883a 	mov	r2,zero
 4023efc:	5800111e 	bne	r11,zero,4023f44 <__ledf2+0xa0>
 4023f00:	f800283a 	ret
 4023f04:	29403fcc 	andi	r5,r5,255
 4023f08:	40000c1e 	bne	r8,zero,4023f3c <__ledf2+0x98>
 4023f0c:	30d2b03a 	or	r9,r6,r3
 4023f10:	48000c26 	beq	r9,zero,4023f44 <__ledf2+0xa0>
 4023f14:	0013883a 	mov	r9,zero
 4023f18:	39c03fcc 	andi	r7,r7,255
 4023f1c:	48000826 	beq	r9,zero,4023f40 <__ledf2+0x9c>
 4023f20:	38001126 	beq	r7,zero,4023f68 <__ledf2+0xc4>
 4023f24:	00800044 	movi	r2,1
 4023f28:	f800283a 	ret
 4023f2c:	30d2b03a 	or	r9,r6,r3
 4023f30:	483fea26 	beq	r9,zero,4023edc <__flash_rwdata_start+0xffff1608>
 4023f34:	00800084 	movi	r2,2
 4023f38:	f800283a 	ret
 4023f3c:	39c03fcc 	andi	r7,r7,255
 4023f40:	39400726 	beq	r7,r5,4023f60 <__ledf2+0xbc>
 4023f44:	2800081e 	bne	r5,zero,4023f68 <__ledf2+0xc4>
 4023f48:	00800044 	movi	r2,1
 4023f4c:	f800283a 	ret
 4023f50:	2292b03a 	or	r9,r4,r10
 4023f54:	483fdf26 	beq	r9,zero,4023ed4 <__flash_rwdata_start+0xffff1600>
 4023f58:	00800084 	movi	r2,2
 4023f5c:	f800283a 	ret
 4023f60:	4080030e 	bge	r8,r2,4023f70 <__ledf2+0xcc>
 4023f64:	383fef26 	beq	r7,zero,4023f24 <__flash_rwdata_start+0xffff1650>
 4023f68:	00bfffc4 	movi	r2,-1
 4023f6c:	f800283a 	ret
 4023f70:	123feb16 	blt	r2,r8,4023f20 <__flash_rwdata_start+0xffff164c>
 4023f74:	1abff336 	bltu	r3,r10,4023f44 <__flash_rwdata_start+0xffff1670>
 4023f78:	50c00326 	beq	r10,r3,4023f88 <__ledf2+0xe4>
 4023f7c:	50c0042e 	bgeu	r10,r3,4023f90 <__ledf2+0xec>
 4023f80:	283fe81e 	bne	r5,zero,4023f24 <__flash_rwdata_start+0xffff1650>
 4023f84:	003ff806 	br	4023f68 <__flash_rwdata_start+0xffff1694>
 4023f88:	313fee36 	bltu	r6,r4,4023f44 <__flash_rwdata_start+0xffff1670>
 4023f8c:	21bffc36 	bltu	r4,r6,4023f80 <__flash_rwdata_start+0xffff16ac>
 4023f90:	0005883a 	mov	r2,zero
 4023f94:	f800283a 	ret

04023f98 <__muldf3>:
 4023f98:	deffee04 	addi	sp,sp,-72
 4023f9c:	dd000c15 	stw	r20,48(sp)
 4023fa0:	2828d53a 	srli	r20,r5,20
 4023fa4:	ddc00f15 	stw	r23,60(sp)
 4023fa8:	282ed7fa 	srli	r23,r5,31
 4023fac:	dc000815 	stw	r16,32(sp)
 4023fb0:	04000434 	movhi	r16,16
 4023fb4:	dcc00b15 	stw	r19,44(sp)
 4023fb8:	843fffc4 	addi	r16,r16,-1
 4023fbc:	dfc01115 	stw	ra,68(sp)
 4023fc0:	df001015 	stw	fp,64(sp)
 4023fc4:	dd800e15 	stw	r22,56(sp)
 4023fc8:	dd400d15 	stw	r21,52(sp)
 4023fcc:	dc800a15 	stw	r18,40(sp)
 4023fd0:	dc400915 	stw	r17,36(sp)
 4023fd4:	a501ffcc 	andi	r20,r20,2047
 4023fd8:	2c20703a 	and	r16,r5,r16
 4023fdc:	b827883a 	mov	r19,r23
 4023fe0:	ba403fcc 	andi	r9,r23,255
 4023fe4:	a0006026 	beq	r20,zero,4024168 <__muldf3+0x1d0>
 4023fe8:	0081ffc4 	movi	r2,2047
 4023fec:	202d883a 	mov	r22,r4
 4023ff0:	a0803626 	beq	r20,r2,40240cc <__muldf3+0x134>
 4023ff4:	84000434 	orhi	r16,r16,16
 4023ff8:	200ad77a 	srli	r5,r4,29
 4023ffc:	800490fa 	slli	r2,r16,3
 4024000:	202c90fa 	slli	r22,r4,3
 4024004:	a53f0044 	addi	r20,r20,-1023
 4024008:	28a0b03a 	or	r16,r5,r2
 402400c:	002b883a 	mov	r21,zero
 4024010:	000b883a 	mov	r5,zero
 4024014:	3804d53a 	srli	r2,r7,20
 4024018:	3838d7fa 	srli	fp,r7,31
 402401c:	04400434 	movhi	r17,16
 4024020:	8c7fffc4 	addi	r17,r17,-1
 4024024:	1081ffcc 	andi	r2,r2,2047
 4024028:	3025883a 	mov	r18,r6
 402402c:	3c62703a 	and	r17,r7,r17
 4024030:	e2803fcc 	andi	r10,fp,255
 4024034:	10006d26 	beq	r2,zero,40241ec <__muldf3+0x254>
 4024038:	00c1ffc4 	movi	r3,2047
 402403c:	10c06526 	beq	r2,r3,40241d4 <__muldf3+0x23c>
 4024040:	8c400434 	orhi	r17,r17,16
 4024044:	300ed77a 	srli	r7,r6,29
 4024048:	880690fa 	slli	r3,r17,3
 402404c:	302490fa 	slli	r18,r6,3
 4024050:	10bf0044 	addi	r2,r2,-1023
 4024054:	38e2b03a 	or	r17,r7,r3
 4024058:	000f883a 	mov	r7,zero
 402405c:	a087883a 	add	r3,r20,r2
 4024060:	010003c4 	movi	r4,15
 4024064:	3d44b03a 	or	r2,r7,r21
 4024068:	e5ccf03a 	xor	r6,fp,r23
 402406c:	1a000044 	addi	r8,r3,1
 4024070:	20809b36 	bltu	r4,r2,40242e0 <__muldf3+0x348>
 4024074:	100490ba 	slli	r2,r2,2
 4024078:	010100b4 	movhi	r4,1026
 402407c:	21102304 	addi	r4,r4,16524
 4024080:	1105883a 	add	r2,r2,r4
 4024084:	10800017 	ldw	r2,0(r2)
 4024088:	1000683a 	jmp	r2
 402408c:	040242e0 	cmpeqi	r16,zero,2315
 4024090:	040240ec 	andhi	r16,zero,2307
 4024094:	040240ec 	andhi	r16,zero,2307
 4024098:	040240e8 	cmpgeui	r16,zero,2307
 402409c:	040242bc 	xorhi	r16,zero,2314
 40240a0:	040242bc 	xorhi	r16,zero,2314
 40240a4:	040242a4 	muli	r16,zero,2314
 40240a8:	040240e8 	cmpgeui	r16,zero,2307
 40240ac:	040242bc 	xorhi	r16,zero,2314
 40240b0:	040242a4 	muli	r16,zero,2314
 40240b4:	040242bc 	xorhi	r16,zero,2314
 40240b8:	040240e8 	cmpgeui	r16,zero,2307
 40240bc:	040242cc 	andi	r16,zero,2315
 40240c0:	040242cc 	andi	r16,zero,2315
 40240c4:	040242cc 	andi	r16,zero,2315
 40240c8:	0402462c 	andhi	r16,zero,2328
 40240cc:	2404b03a 	or	r2,r4,r16
 40240d0:	1000711e 	bne	r2,zero,4024298 <__muldf3+0x300>
 40240d4:	05400204 	movi	r21,8
 40240d8:	0021883a 	mov	r16,zero
 40240dc:	002d883a 	mov	r22,zero
 40240e0:	01400084 	movi	r5,2
 40240e4:	003fcb06 	br	4024014 <__flash_rwdata_start+0xffff1740>
 40240e8:	500d883a 	mov	r6,r10
 40240ec:	00800084 	movi	r2,2
 40240f0:	38805926 	beq	r7,r2,4024258 <__muldf3+0x2c0>
 40240f4:	008000c4 	movi	r2,3
 40240f8:	3881bb26 	beq	r7,r2,40247e8 <__muldf3+0x850>
 40240fc:	00800044 	movi	r2,1
 4024100:	3881961e 	bne	r7,r2,402475c <__muldf3+0x7c4>
 4024104:	3027883a 	mov	r19,r6
 4024108:	0005883a 	mov	r2,zero
 402410c:	0021883a 	mov	r16,zero
 4024110:	002d883a 	mov	r22,zero
 4024114:	1004953a 	slli	r2,r2,20
 4024118:	98c03fcc 	andi	r3,r19,255
 402411c:	04400434 	movhi	r17,16
 4024120:	8c7fffc4 	addi	r17,r17,-1
 4024124:	180697fa 	slli	r3,r3,31
 4024128:	8460703a 	and	r16,r16,r17
 402412c:	80a0b03a 	or	r16,r16,r2
 4024130:	80c6b03a 	or	r3,r16,r3
 4024134:	b005883a 	mov	r2,r22
 4024138:	dfc01117 	ldw	ra,68(sp)
 402413c:	df001017 	ldw	fp,64(sp)
 4024140:	ddc00f17 	ldw	r23,60(sp)
 4024144:	dd800e17 	ldw	r22,56(sp)
 4024148:	dd400d17 	ldw	r21,52(sp)
 402414c:	dd000c17 	ldw	r20,48(sp)
 4024150:	dcc00b17 	ldw	r19,44(sp)
 4024154:	dc800a17 	ldw	r18,40(sp)
 4024158:	dc400917 	ldw	r17,36(sp)
 402415c:	dc000817 	ldw	r16,32(sp)
 4024160:	dec01204 	addi	sp,sp,72
 4024164:	f800283a 	ret
 4024168:	2404b03a 	or	r2,r4,r16
 402416c:	202b883a 	mov	r21,r4
 4024170:	10004426 	beq	r2,zero,4024284 <__muldf3+0x2ec>
 4024174:	80015126 	beq	r16,zero,40246bc <__muldf3+0x724>
 4024178:	8009883a 	mov	r4,r16
 402417c:	d9800715 	stw	r6,28(sp)
 4024180:	d9c00215 	stw	r7,8(sp)
 4024184:	da400415 	stw	r9,16(sp)
 4024188:	40255140 	call	4025514 <__clzsi2>
 402418c:	d9800717 	ldw	r6,28(sp)
 4024190:	d9c00217 	ldw	r7,8(sp)
 4024194:	da400417 	ldw	r9,16(sp)
 4024198:	113ffd44 	addi	r4,r2,-11
 402419c:	00c00704 	movi	r3,28
 40241a0:	19014216 	blt	r3,r4,40246ac <__muldf3+0x714>
 40241a4:	00c00744 	movi	r3,29
 40241a8:	15bffe04 	addi	r22,r2,-8
 40241ac:	1907c83a 	sub	r3,r3,r4
 40241b0:	85a0983a 	sll	r16,r16,r22
 40241b4:	a8c6d83a 	srl	r3,r21,r3
 40241b8:	adac983a 	sll	r22,r21,r22
 40241bc:	1c20b03a 	or	r16,r3,r16
 40241c0:	1080fcc4 	addi	r2,r2,1011
 40241c4:	00a9c83a 	sub	r20,zero,r2
 40241c8:	002b883a 	mov	r21,zero
 40241cc:	000b883a 	mov	r5,zero
 40241d0:	003f9006 	br	4024014 <__flash_rwdata_start+0xffff1740>
 40241d4:	3446b03a 	or	r3,r6,r17
 40241d8:	1800281e 	bne	r3,zero,402427c <__muldf3+0x2e4>
 40241dc:	0023883a 	mov	r17,zero
 40241e0:	0025883a 	mov	r18,zero
 40241e4:	01c00084 	movi	r7,2
 40241e8:	003f9c06 	br	402405c <__flash_rwdata_start+0xffff1788>
 40241ec:	3446b03a 	or	r3,r6,r17
 40241f0:	18001e26 	beq	r3,zero,402426c <__muldf3+0x2d4>
 40241f4:	88012126 	beq	r17,zero,402467c <__muldf3+0x6e4>
 40241f8:	8809883a 	mov	r4,r17
 40241fc:	d9400215 	stw	r5,8(sp)
 4024200:	d9800715 	stw	r6,28(sp)
 4024204:	da400415 	stw	r9,16(sp)
 4024208:	da800315 	stw	r10,12(sp)
 402420c:	40255140 	call	4025514 <__clzsi2>
 4024210:	d9400217 	ldw	r5,8(sp)
 4024214:	d9800717 	ldw	r6,28(sp)
 4024218:	da400417 	ldw	r9,16(sp)
 402421c:	da800317 	ldw	r10,12(sp)
 4024220:	113ffd44 	addi	r4,r2,-11
 4024224:	00c00704 	movi	r3,28
 4024228:	19011016 	blt	r3,r4,402466c <__muldf3+0x6d4>
 402422c:	00c00744 	movi	r3,29
 4024230:	14bffe04 	addi	r18,r2,-8
 4024234:	1907c83a 	sub	r3,r3,r4
 4024238:	8ca2983a 	sll	r17,r17,r18
 402423c:	30c6d83a 	srl	r3,r6,r3
 4024240:	34a4983a 	sll	r18,r6,r18
 4024244:	1c62b03a 	or	r17,r3,r17
 4024248:	1080fcc4 	addi	r2,r2,1011
 402424c:	0085c83a 	sub	r2,zero,r2
 4024250:	000f883a 	mov	r7,zero
 4024254:	003f8106 	br	402405c <__flash_rwdata_start+0xffff1788>
 4024258:	3027883a 	mov	r19,r6
 402425c:	0081ffc4 	movi	r2,2047
 4024260:	0021883a 	mov	r16,zero
 4024264:	002d883a 	mov	r22,zero
 4024268:	003faa06 	br	4024114 <__flash_rwdata_start+0xffff1840>
 402426c:	0023883a 	mov	r17,zero
 4024270:	0025883a 	mov	r18,zero
 4024274:	01c00044 	movi	r7,1
 4024278:	003f7806 	br	402405c <__flash_rwdata_start+0xffff1788>
 402427c:	01c000c4 	movi	r7,3
 4024280:	003f7606 	br	402405c <__flash_rwdata_start+0xffff1788>
 4024284:	05400104 	movi	r21,4
 4024288:	0021883a 	mov	r16,zero
 402428c:	002d883a 	mov	r22,zero
 4024290:	01400044 	movi	r5,1
 4024294:	003f5f06 	br	4024014 <__flash_rwdata_start+0xffff1740>
 4024298:	05400304 	movi	r21,12
 402429c:	014000c4 	movi	r5,3
 40242a0:	003f5c06 	br	4024014 <__flash_rwdata_start+0xffff1740>
 40242a4:	04000434 	movhi	r16,16
 40242a8:	0027883a 	mov	r19,zero
 40242ac:	843fffc4 	addi	r16,r16,-1
 40242b0:	05bfffc4 	movi	r22,-1
 40242b4:	0081ffc4 	movi	r2,2047
 40242b8:	003f9606 	br	4024114 <__flash_rwdata_start+0xffff1840>
 40242bc:	8023883a 	mov	r17,r16
 40242c0:	b025883a 	mov	r18,r22
 40242c4:	280f883a 	mov	r7,r5
 40242c8:	003f8806 	br	40240ec <__flash_rwdata_start+0xffff1818>
 40242cc:	8023883a 	mov	r17,r16
 40242d0:	b025883a 	mov	r18,r22
 40242d4:	480d883a 	mov	r6,r9
 40242d8:	280f883a 	mov	r7,r5
 40242dc:	003f8306 	br	40240ec <__flash_rwdata_start+0xffff1818>
 40242e0:	b026d43a 	srli	r19,r22,16
 40242e4:	902ed43a 	srli	r23,r18,16
 40242e8:	b5bfffcc 	andi	r22,r22,65535
 40242ec:	94bfffcc 	andi	r18,r18,65535
 40242f0:	b00b883a 	mov	r5,r22
 40242f4:	9009883a 	mov	r4,r18
 40242f8:	d8c00515 	stw	r3,20(sp)
 40242fc:	d9800715 	stw	r6,28(sp)
 4024300:	da000615 	stw	r8,24(sp)
 4024304:	402572c0 	call	402572c <__mulsi3>
 4024308:	980b883a 	mov	r5,r19
 402430c:	9009883a 	mov	r4,r18
 4024310:	1029883a 	mov	r20,r2
 4024314:	402572c0 	call	402572c <__mulsi3>
 4024318:	b80b883a 	mov	r5,r23
 402431c:	9809883a 	mov	r4,r19
 4024320:	102b883a 	mov	r21,r2
 4024324:	402572c0 	call	402572c <__mulsi3>
 4024328:	b809883a 	mov	r4,r23
 402432c:	b00b883a 	mov	r5,r22
 4024330:	1039883a 	mov	fp,r2
 4024334:	402572c0 	call	402572c <__mulsi3>
 4024338:	a008d43a 	srli	r4,r20,16
 402433c:	1545883a 	add	r2,r2,r21
 4024340:	d8c00517 	ldw	r3,20(sp)
 4024344:	2085883a 	add	r2,r4,r2
 4024348:	d9800717 	ldw	r6,28(sp)
 402434c:	da000617 	ldw	r8,24(sp)
 4024350:	1540022e 	bgeu	r2,r21,402435c <__muldf3+0x3c4>
 4024354:	01000074 	movhi	r4,1
 4024358:	e139883a 	add	fp,fp,r4
 402435c:	100e943a 	slli	r7,r2,16
 4024360:	1004d43a 	srli	r2,r2,16
 4024364:	882ad43a 	srli	r21,r17,16
 4024368:	a53fffcc 	andi	r20,r20,65535
 402436c:	8c7fffcc 	andi	r17,r17,65535
 4024370:	3d29883a 	add	r20,r7,r20
 4024374:	b00b883a 	mov	r5,r22
 4024378:	8809883a 	mov	r4,r17
 402437c:	d8c00515 	stw	r3,20(sp)
 4024380:	d9800715 	stw	r6,28(sp)
 4024384:	da000615 	stw	r8,24(sp)
 4024388:	dd000115 	stw	r20,4(sp)
 402438c:	d8800015 	stw	r2,0(sp)
 4024390:	402572c0 	call	402572c <__mulsi3>
 4024394:	980b883a 	mov	r5,r19
 4024398:	8809883a 	mov	r4,r17
 402439c:	d8800215 	stw	r2,8(sp)
 40243a0:	402572c0 	call	402572c <__mulsi3>
 40243a4:	9809883a 	mov	r4,r19
 40243a8:	a80b883a 	mov	r5,r21
 40243ac:	1029883a 	mov	r20,r2
 40243b0:	402572c0 	call	402572c <__mulsi3>
 40243b4:	b00b883a 	mov	r5,r22
 40243b8:	a809883a 	mov	r4,r21
 40243bc:	d8800415 	stw	r2,16(sp)
 40243c0:	402572c0 	call	402572c <__mulsi3>
 40243c4:	d9c00217 	ldw	r7,8(sp)
 40243c8:	1505883a 	add	r2,r2,r20
 40243cc:	d8c00517 	ldw	r3,20(sp)
 40243d0:	3826d43a 	srli	r19,r7,16
 40243d4:	d9800717 	ldw	r6,28(sp)
 40243d8:	da000617 	ldw	r8,24(sp)
 40243dc:	9885883a 	add	r2,r19,r2
 40243e0:	da400417 	ldw	r9,16(sp)
 40243e4:	1500022e 	bgeu	r2,r20,40243f0 <__muldf3+0x458>
 40243e8:	01000074 	movhi	r4,1
 40243ec:	4913883a 	add	r9,r9,r4
 40243f0:	1028d43a 	srli	r20,r2,16
 40243f4:	1004943a 	slli	r2,r2,16
 40243f8:	802cd43a 	srli	r22,r16,16
 40243fc:	843fffcc 	andi	r16,r16,65535
 4024400:	3cffffcc 	andi	r19,r7,65535
 4024404:	9009883a 	mov	r4,r18
 4024408:	800b883a 	mov	r5,r16
 402440c:	a269883a 	add	r20,r20,r9
 4024410:	d8c00515 	stw	r3,20(sp)
 4024414:	d9800715 	stw	r6,28(sp)
 4024418:	da000615 	stw	r8,24(sp)
 402441c:	14e7883a 	add	r19,r2,r19
 4024420:	402572c0 	call	402572c <__mulsi3>
 4024424:	9009883a 	mov	r4,r18
 4024428:	b00b883a 	mov	r5,r22
 402442c:	d8800315 	stw	r2,12(sp)
 4024430:	402572c0 	call	402572c <__mulsi3>
 4024434:	b809883a 	mov	r4,r23
 4024438:	b00b883a 	mov	r5,r22
 402443c:	d8800215 	stw	r2,8(sp)
 4024440:	402572c0 	call	402572c <__mulsi3>
 4024444:	b80b883a 	mov	r5,r23
 4024448:	8009883a 	mov	r4,r16
 402444c:	d8800415 	stw	r2,16(sp)
 4024450:	402572c0 	call	402572c <__mulsi3>
 4024454:	da800317 	ldw	r10,12(sp)
 4024458:	d9c00217 	ldw	r7,8(sp)
 402445c:	d9000017 	ldw	r4,0(sp)
 4024460:	502ed43a 	srli	r23,r10,16
 4024464:	11c5883a 	add	r2,r2,r7
 4024468:	24e5883a 	add	r18,r4,r19
 402446c:	b885883a 	add	r2,r23,r2
 4024470:	d8c00517 	ldw	r3,20(sp)
 4024474:	d9800717 	ldw	r6,28(sp)
 4024478:	da000617 	ldw	r8,24(sp)
 402447c:	da400417 	ldw	r9,16(sp)
 4024480:	11c0022e 	bgeu	r2,r7,402448c <__muldf3+0x4f4>
 4024484:	01000074 	movhi	r4,1
 4024488:	4913883a 	add	r9,r9,r4
 402448c:	100ed43a 	srli	r7,r2,16
 4024490:	1004943a 	slli	r2,r2,16
 4024494:	55ffffcc 	andi	r23,r10,65535
 4024498:	3a53883a 	add	r9,r7,r9
 402449c:	8809883a 	mov	r4,r17
 40244a0:	800b883a 	mov	r5,r16
 40244a4:	d8c00515 	stw	r3,20(sp)
 40244a8:	d9800715 	stw	r6,28(sp)
 40244ac:	da000615 	stw	r8,24(sp)
 40244b0:	da400415 	stw	r9,16(sp)
 40244b4:	15ef883a 	add	r23,r2,r23
 40244b8:	402572c0 	call	402572c <__mulsi3>
 40244bc:	8809883a 	mov	r4,r17
 40244c0:	b00b883a 	mov	r5,r22
 40244c4:	d8800215 	stw	r2,8(sp)
 40244c8:	402572c0 	call	402572c <__mulsi3>
 40244cc:	b00b883a 	mov	r5,r22
 40244d0:	a809883a 	mov	r4,r21
 40244d4:	d8800315 	stw	r2,12(sp)
 40244d8:	402572c0 	call	402572c <__mulsi3>
 40244dc:	8009883a 	mov	r4,r16
 40244e0:	a80b883a 	mov	r5,r21
 40244e4:	1023883a 	mov	r17,r2
 40244e8:	402572c0 	call	402572c <__mulsi3>
 40244ec:	d9c00217 	ldw	r7,8(sp)
 40244f0:	da800317 	ldw	r10,12(sp)
 40244f4:	d8c00517 	ldw	r3,20(sp)
 40244f8:	3808d43a 	srli	r4,r7,16
 40244fc:	1285883a 	add	r2,r2,r10
 4024500:	d9800717 	ldw	r6,28(sp)
 4024504:	2085883a 	add	r2,r4,r2
 4024508:	da000617 	ldw	r8,24(sp)
 402450c:	da400417 	ldw	r9,16(sp)
 4024510:	1280022e 	bgeu	r2,r10,402451c <__muldf3+0x584>
 4024514:	01000074 	movhi	r4,1
 4024518:	8923883a 	add	r17,r17,r4
 402451c:	1008943a 	slli	r4,r2,16
 4024520:	39ffffcc 	andi	r7,r7,65535
 4024524:	e4b9883a 	add	fp,fp,r18
 4024528:	21cf883a 	add	r7,r4,r7
 402452c:	e4e7803a 	cmpltu	r19,fp,r19
 4024530:	3d0f883a 	add	r7,r7,r20
 4024534:	bf39883a 	add	fp,r23,fp
 4024538:	99c9883a 	add	r4,r19,r7
 402453c:	e5ef803a 	cmpltu	r23,fp,r23
 4024540:	490b883a 	add	r5,r9,r4
 4024544:	1004d43a 	srli	r2,r2,16
 4024548:	b965883a 	add	r18,r23,r5
 402454c:	24c9803a 	cmpltu	r4,r4,r19
 4024550:	3d29803a 	cmpltu	r20,r7,r20
 4024554:	a128b03a 	or	r20,r20,r4
 4024558:	95ef803a 	cmpltu	r23,r18,r23
 402455c:	2a53803a 	cmpltu	r9,r5,r9
 4024560:	a0a9883a 	add	r20,r20,r2
 4024564:	4deeb03a 	or	r23,r9,r23
 4024568:	a5ef883a 	add	r23,r20,r23
 402456c:	bc63883a 	add	r17,r23,r17
 4024570:	e004927a 	slli	r2,fp,9
 4024574:	d9000117 	ldw	r4,4(sp)
 4024578:	882e927a 	slli	r23,r17,9
 402457c:	9022d5fa 	srli	r17,r18,23
 4024580:	e038d5fa 	srli	fp,fp,23
 4024584:	1104b03a 	or	r2,r2,r4
 4024588:	9024927a 	slli	r18,r18,9
 402458c:	1004c03a 	cmpne	r2,r2,zero
 4024590:	bc62b03a 	or	r17,r23,r17
 4024594:	1738b03a 	or	fp,r2,fp
 4024598:	8880402c 	andhi	r2,r17,256
 402459c:	e4a4b03a 	or	r18,fp,r18
 40245a0:	10000726 	beq	r2,zero,40245c0 <__muldf3+0x628>
 40245a4:	9006d07a 	srli	r3,r18,1
 40245a8:	880497fa 	slli	r2,r17,31
 40245ac:	9480004c 	andi	r18,r18,1
 40245b0:	8822d07a 	srli	r17,r17,1
 40245b4:	1ca4b03a 	or	r18,r3,r18
 40245b8:	14a4b03a 	or	r18,r2,r18
 40245bc:	4007883a 	mov	r3,r8
 40245c0:	1880ffc4 	addi	r2,r3,1023
 40245c4:	0080460e 	bge	zero,r2,40246e0 <__muldf3+0x748>
 40245c8:	910001cc 	andi	r4,r18,7
 40245cc:	20000726 	beq	r4,zero,40245ec <__muldf3+0x654>
 40245d0:	910003cc 	andi	r4,r18,15
 40245d4:	01400104 	movi	r5,4
 40245d8:	21400426 	beq	r4,r5,40245ec <__muldf3+0x654>
 40245dc:	9149883a 	add	r4,r18,r5
 40245e0:	24a5803a 	cmpltu	r18,r4,r18
 40245e4:	8ca3883a 	add	r17,r17,r18
 40245e8:	2025883a 	mov	r18,r4
 40245ec:	8900402c 	andhi	r4,r17,256
 40245f0:	20000426 	beq	r4,zero,4024604 <__muldf3+0x66c>
 40245f4:	18810004 	addi	r2,r3,1024
 40245f8:	00ffc034 	movhi	r3,65280
 40245fc:	18ffffc4 	addi	r3,r3,-1
 4024600:	88e2703a 	and	r17,r17,r3
 4024604:	00c1ff84 	movi	r3,2046
 4024608:	18bf1316 	blt	r3,r2,4024258 <__flash_rwdata_start+0xffff1984>
 402460c:	882c977a 	slli	r22,r17,29
 4024610:	9024d0fa 	srli	r18,r18,3
 4024614:	8822927a 	slli	r17,r17,9
 4024618:	1081ffcc 	andi	r2,r2,2047
 402461c:	b4acb03a 	or	r22,r22,r18
 4024620:	8820d33a 	srli	r16,r17,12
 4024624:	3027883a 	mov	r19,r6
 4024628:	003eba06 	br	4024114 <__flash_rwdata_start+0xffff1840>
 402462c:	8080022c 	andhi	r2,r16,8
 4024630:	10000926 	beq	r2,zero,4024658 <__muldf3+0x6c0>
 4024634:	8880022c 	andhi	r2,r17,8
 4024638:	1000071e 	bne	r2,zero,4024658 <__muldf3+0x6c0>
 402463c:	00800434 	movhi	r2,16
 4024640:	8c000234 	orhi	r16,r17,8
 4024644:	10bfffc4 	addi	r2,r2,-1
 4024648:	e027883a 	mov	r19,fp
 402464c:	80a0703a 	and	r16,r16,r2
 4024650:	902d883a 	mov	r22,r18
 4024654:	003f1706 	br	40242b4 <__flash_rwdata_start+0xffff19e0>
 4024658:	00800434 	movhi	r2,16
 402465c:	84000234 	orhi	r16,r16,8
 4024660:	10bfffc4 	addi	r2,r2,-1
 4024664:	80a0703a 	and	r16,r16,r2
 4024668:	003f1206 	br	40242b4 <__flash_rwdata_start+0xffff19e0>
 402466c:	147ff604 	addi	r17,r2,-40
 4024670:	3462983a 	sll	r17,r6,r17
 4024674:	0025883a 	mov	r18,zero
 4024678:	003ef306 	br	4024248 <__flash_rwdata_start+0xffff1974>
 402467c:	3009883a 	mov	r4,r6
 4024680:	d9400215 	stw	r5,8(sp)
 4024684:	d9800715 	stw	r6,28(sp)
 4024688:	da400415 	stw	r9,16(sp)
 402468c:	da800315 	stw	r10,12(sp)
 4024690:	40255140 	call	4025514 <__clzsi2>
 4024694:	10800804 	addi	r2,r2,32
 4024698:	da800317 	ldw	r10,12(sp)
 402469c:	da400417 	ldw	r9,16(sp)
 40246a0:	d9800717 	ldw	r6,28(sp)
 40246a4:	d9400217 	ldw	r5,8(sp)
 40246a8:	003edd06 	br	4024220 <__flash_rwdata_start+0xffff194c>
 40246ac:	143ff604 	addi	r16,r2,-40
 40246b0:	ac20983a 	sll	r16,r21,r16
 40246b4:	002d883a 	mov	r22,zero
 40246b8:	003ec106 	br	40241c0 <__flash_rwdata_start+0xffff18ec>
 40246bc:	d9800715 	stw	r6,28(sp)
 40246c0:	d9c00215 	stw	r7,8(sp)
 40246c4:	da400415 	stw	r9,16(sp)
 40246c8:	40255140 	call	4025514 <__clzsi2>
 40246cc:	10800804 	addi	r2,r2,32
 40246d0:	da400417 	ldw	r9,16(sp)
 40246d4:	d9c00217 	ldw	r7,8(sp)
 40246d8:	d9800717 	ldw	r6,28(sp)
 40246dc:	003eae06 	br	4024198 <__flash_rwdata_start+0xffff18c4>
 40246e0:	00c00044 	movi	r3,1
 40246e4:	1887c83a 	sub	r3,r3,r2
 40246e8:	01000e04 	movi	r4,56
 40246ec:	20fe8516 	blt	r4,r3,4024104 <__flash_rwdata_start+0xffff1830>
 40246f0:	010007c4 	movi	r4,31
 40246f4:	20c01b16 	blt	r4,r3,4024764 <__muldf3+0x7cc>
 40246f8:	00800804 	movi	r2,32
 40246fc:	10c5c83a 	sub	r2,r2,r3
 4024700:	888a983a 	sll	r5,r17,r2
 4024704:	90c8d83a 	srl	r4,r18,r3
 4024708:	9084983a 	sll	r2,r18,r2
 402470c:	88e2d83a 	srl	r17,r17,r3
 4024710:	2906b03a 	or	r3,r5,r4
 4024714:	1004c03a 	cmpne	r2,r2,zero
 4024718:	1886b03a 	or	r3,r3,r2
 402471c:	188001cc 	andi	r2,r3,7
 4024720:	10000726 	beq	r2,zero,4024740 <__muldf3+0x7a8>
 4024724:	188003cc 	andi	r2,r3,15
 4024728:	01000104 	movi	r4,4
 402472c:	11000426 	beq	r2,r4,4024740 <__muldf3+0x7a8>
 4024730:	1805883a 	mov	r2,r3
 4024734:	10c00104 	addi	r3,r2,4
 4024738:	1885803a 	cmpltu	r2,r3,r2
 402473c:	88a3883a 	add	r17,r17,r2
 4024740:	8880202c 	andhi	r2,r17,128
 4024744:	10001c26 	beq	r2,zero,40247b8 <__muldf3+0x820>
 4024748:	3027883a 	mov	r19,r6
 402474c:	00800044 	movi	r2,1
 4024750:	0021883a 	mov	r16,zero
 4024754:	002d883a 	mov	r22,zero
 4024758:	003e6e06 	br	4024114 <__flash_rwdata_start+0xffff1840>
 402475c:	4007883a 	mov	r3,r8
 4024760:	003f9706 	br	40245c0 <__flash_rwdata_start+0xffff1cec>
 4024764:	017ff844 	movi	r5,-31
 4024768:	2885c83a 	sub	r2,r5,r2
 402476c:	888ad83a 	srl	r5,r17,r2
 4024770:	00800804 	movi	r2,32
 4024774:	18801a26 	beq	r3,r2,40247e0 <__muldf3+0x848>
 4024778:	01001004 	movi	r4,64
 402477c:	20c7c83a 	sub	r3,r4,r3
 4024780:	88e2983a 	sll	r17,r17,r3
 4024784:	8ca4b03a 	or	r18,r17,r18
 4024788:	9004c03a 	cmpne	r2,r18,zero
 402478c:	2884b03a 	or	r2,r5,r2
 4024790:	144001cc 	andi	r17,r2,7
 4024794:	88000d1e 	bne	r17,zero,40247cc <__muldf3+0x834>
 4024798:	0021883a 	mov	r16,zero
 402479c:	102cd0fa 	srli	r22,r2,3
 40247a0:	3027883a 	mov	r19,r6
 40247a4:	0005883a 	mov	r2,zero
 40247a8:	b46cb03a 	or	r22,r22,r17
 40247ac:	003e5906 	br	4024114 <__flash_rwdata_start+0xffff1840>
 40247b0:	1007883a 	mov	r3,r2
 40247b4:	0023883a 	mov	r17,zero
 40247b8:	8820927a 	slli	r16,r17,9
 40247bc:	1805883a 	mov	r2,r3
 40247c0:	8822977a 	slli	r17,r17,29
 40247c4:	8020d33a 	srli	r16,r16,12
 40247c8:	003ff406 	br	402479c <__flash_rwdata_start+0xffff1ec8>
 40247cc:	10c003cc 	andi	r3,r2,15
 40247d0:	01000104 	movi	r4,4
 40247d4:	193ff626 	beq	r3,r4,40247b0 <__flash_rwdata_start+0xffff1edc>
 40247d8:	0023883a 	mov	r17,zero
 40247dc:	003fd506 	br	4024734 <__flash_rwdata_start+0xffff1e60>
 40247e0:	0023883a 	mov	r17,zero
 40247e4:	003fe706 	br	4024784 <__flash_rwdata_start+0xffff1eb0>
 40247e8:	00800434 	movhi	r2,16
 40247ec:	8c000234 	orhi	r16,r17,8
 40247f0:	10bfffc4 	addi	r2,r2,-1
 40247f4:	3027883a 	mov	r19,r6
 40247f8:	80a0703a 	and	r16,r16,r2
 40247fc:	902d883a 	mov	r22,r18
 4024800:	003eac06 	br	40242b4 <__flash_rwdata_start+0xffff19e0>

04024804 <__subdf3>:
 4024804:	02000434 	movhi	r8,16
 4024808:	423fffc4 	addi	r8,r8,-1
 402480c:	defffb04 	addi	sp,sp,-20
 4024810:	2a14703a 	and	r10,r5,r8
 4024814:	3812d53a 	srli	r9,r7,20
 4024818:	3a10703a 	and	r8,r7,r8
 402481c:	2006d77a 	srli	r3,r4,29
 4024820:	3004d77a 	srli	r2,r6,29
 4024824:	dc000015 	stw	r16,0(sp)
 4024828:	501490fa 	slli	r10,r10,3
 402482c:	2820d53a 	srli	r16,r5,20
 4024830:	401090fa 	slli	r8,r8,3
 4024834:	dc800215 	stw	r18,8(sp)
 4024838:	dc400115 	stw	r17,4(sp)
 402483c:	dfc00415 	stw	ra,16(sp)
 4024840:	202290fa 	slli	r17,r4,3
 4024844:	dcc00315 	stw	r19,12(sp)
 4024848:	4a41ffcc 	andi	r9,r9,2047
 402484c:	0101ffc4 	movi	r4,2047
 4024850:	2824d7fa 	srli	r18,r5,31
 4024854:	8401ffcc 	andi	r16,r16,2047
 4024858:	50c6b03a 	or	r3,r10,r3
 402485c:	380ed7fa 	srli	r7,r7,31
 4024860:	408ab03a 	or	r5,r8,r2
 4024864:	300c90fa 	slli	r6,r6,3
 4024868:	49009626 	beq	r9,r4,4024ac4 <__subdf3+0x2c0>
 402486c:	39c0005c 	xori	r7,r7,1
 4024870:	8245c83a 	sub	r2,r16,r9
 4024874:	3c807426 	beq	r7,r18,4024a48 <__subdf3+0x244>
 4024878:	0080af0e 	bge	zero,r2,4024b38 <__subdf3+0x334>
 402487c:	48002a1e 	bne	r9,zero,4024928 <__subdf3+0x124>
 4024880:	2988b03a 	or	r4,r5,r6
 4024884:	20009a1e 	bne	r4,zero,4024af0 <__subdf3+0x2ec>
 4024888:	888001cc 	andi	r2,r17,7
 402488c:	10000726 	beq	r2,zero,40248ac <__subdf3+0xa8>
 4024890:	888003cc 	andi	r2,r17,15
 4024894:	01000104 	movi	r4,4
 4024898:	11000426 	beq	r2,r4,40248ac <__subdf3+0xa8>
 402489c:	890b883a 	add	r5,r17,r4
 40248a0:	2c63803a 	cmpltu	r17,r5,r17
 40248a4:	1c47883a 	add	r3,r3,r17
 40248a8:	2823883a 	mov	r17,r5
 40248ac:	1880202c 	andhi	r2,r3,128
 40248b0:	10005926 	beq	r2,zero,4024a18 <__subdf3+0x214>
 40248b4:	84000044 	addi	r16,r16,1
 40248b8:	0081ffc4 	movi	r2,2047
 40248bc:	8080be26 	beq	r16,r2,4024bb8 <__subdf3+0x3b4>
 40248c0:	017fe034 	movhi	r5,65408
 40248c4:	297fffc4 	addi	r5,r5,-1
 40248c8:	1946703a 	and	r3,r3,r5
 40248cc:	1804977a 	slli	r2,r3,29
 40248d0:	1806927a 	slli	r3,r3,9
 40248d4:	8822d0fa 	srli	r17,r17,3
 40248d8:	8401ffcc 	andi	r16,r16,2047
 40248dc:	180ad33a 	srli	r5,r3,12
 40248e0:	9100004c 	andi	r4,r18,1
 40248e4:	1444b03a 	or	r2,r2,r17
 40248e8:	80c1ffcc 	andi	r3,r16,2047
 40248ec:	1820953a 	slli	r16,r3,20
 40248f0:	20c03fcc 	andi	r3,r4,255
 40248f4:	180897fa 	slli	r4,r3,31
 40248f8:	00c00434 	movhi	r3,16
 40248fc:	18ffffc4 	addi	r3,r3,-1
 4024900:	28c6703a 	and	r3,r5,r3
 4024904:	1c06b03a 	or	r3,r3,r16
 4024908:	1906b03a 	or	r3,r3,r4
 402490c:	dfc00417 	ldw	ra,16(sp)
 4024910:	dcc00317 	ldw	r19,12(sp)
 4024914:	dc800217 	ldw	r18,8(sp)
 4024918:	dc400117 	ldw	r17,4(sp)
 402491c:	dc000017 	ldw	r16,0(sp)
 4024920:	dec00504 	addi	sp,sp,20
 4024924:	f800283a 	ret
 4024928:	0101ffc4 	movi	r4,2047
 402492c:	813fd626 	beq	r16,r4,4024888 <__flash_rwdata_start+0xffff1fb4>
 4024930:	29402034 	orhi	r5,r5,128
 4024934:	01000e04 	movi	r4,56
 4024938:	2080a316 	blt	r4,r2,4024bc8 <__subdf3+0x3c4>
 402493c:	010007c4 	movi	r4,31
 4024940:	2080c616 	blt	r4,r2,4024c5c <__subdf3+0x458>
 4024944:	01000804 	movi	r4,32
 4024948:	2089c83a 	sub	r4,r4,r2
 402494c:	2910983a 	sll	r8,r5,r4
 4024950:	308ed83a 	srl	r7,r6,r2
 4024954:	3108983a 	sll	r4,r6,r4
 4024958:	2884d83a 	srl	r2,r5,r2
 402495c:	41ccb03a 	or	r6,r8,r7
 4024960:	2008c03a 	cmpne	r4,r4,zero
 4024964:	310cb03a 	or	r6,r6,r4
 4024968:	898dc83a 	sub	r6,r17,r6
 402496c:	89a3803a 	cmpltu	r17,r17,r6
 4024970:	1887c83a 	sub	r3,r3,r2
 4024974:	1c47c83a 	sub	r3,r3,r17
 4024978:	3023883a 	mov	r17,r6
 402497c:	1880202c 	andhi	r2,r3,128
 4024980:	10002326 	beq	r2,zero,4024a10 <__subdf3+0x20c>
 4024984:	04c02034 	movhi	r19,128
 4024988:	9cffffc4 	addi	r19,r19,-1
 402498c:	1ce6703a 	and	r19,r3,r19
 4024990:	98007a26 	beq	r19,zero,4024b7c <__subdf3+0x378>
 4024994:	9809883a 	mov	r4,r19
 4024998:	40255140 	call	4025514 <__clzsi2>
 402499c:	113ffe04 	addi	r4,r2,-8
 40249a0:	00c007c4 	movi	r3,31
 40249a4:	19007b16 	blt	r3,r4,4024b94 <__subdf3+0x390>
 40249a8:	00800804 	movi	r2,32
 40249ac:	1105c83a 	sub	r2,r2,r4
 40249b0:	8884d83a 	srl	r2,r17,r2
 40249b4:	9906983a 	sll	r3,r19,r4
 40249b8:	8922983a 	sll	r17,r17,r4
 40249bc:	10c4b03a 	or	r2,r2,r3
 40249c0:	24007816 	blt	r4,r16,4024ba4 <__subdf3+0x3a0>
 40249c4:	2421c83a 	sub	r16,r4,r16
 40249c8:	80c00044 	addi	r3,r16,1
 40249cc:	010007c4 	movi	r4,31
 40249d0:	20c09516 	blt	r4,r3,4024c28 <__subdf3+0x424>
 40249d4:	01400804 	movi	r5,32
 40249d8:	28cbc83a 	sub	r5,r5,r3
 40249dc:	88c8d83a 	srl	r4,r17,r3
 40249e0:	8962983a 	sll	r17,r17,r5
 40249e4:	114a983a 	sll	r5,r2,r5
 40249e8:	10c6d83a 	srl	r3,r2,r3
 40249ec:	8804c03a 	cmpne	r2,r17,zero
 40249f0:	290ab03a 	or	r5,r5,r4
 40249f4:	28a2b03a 	or	r17,r5,r2
 40249f8:	0021883a 	mov	r16,zero
 40249fc:	003fa206 	br	4024888 <__flash_rwdata_start+0xffff1fb4>
 4024a00:	2090b03a 	or	r8,r4,r2
 4024a04:	40018e26 	beq	r8,zero,4025040 <__subdf3+0x83c>
 4024a08:	1007883a 	mov	r3,r2
 4024a0c:	2023883a 	mov	r17,r4
 4024a10:	888001cc 	andi	r2,r17,7
 4024a14:	103f9e1e 	bne	r2,zero,4024890 <__flash_rwdata_start+0xffff1fbc>
 4024a18:	1804977a 	slli	r2,r3,29
 4024a1c:	8822d0fa 	srli	r17,r17,3
 4024a20:	1810d0fa 	srli	r8,r3,3
 4024a24:	9100004c 	andi	r4,r18,1
 4024a28:	1444b03a 	or	r2,r2,r17
 4024a2c:	00c1ffc4 	movi	r3,2047
 4024a30:	80c02826 	beq	r16,r3,4024ad4 <__subdf3+0x2d0>
 4024a34:	01400434 	movhi	r5,16
 4024a38:	297fffc4 	addi	r5,r5,-1
 4024a3c:	80e0703a 	and	r16,r16,r3
 4024a40:	414a703a 	and	r5,r8,r5
 4024a44:	003fa806 	br	40248e8 <__flash_rwdata_start+0xffff2014>
 4024a48:	0080630e 	bge	zero,r2,4024bd8 <__subdf3+0x3d4>
 4024a4c:	48003026 	beq	r9,zero,4024b10 <__subdf3+0x30c>
 4024a50:	0101ffc4 	movi	r4,2047
 4024a54:	813f8c26 	beq	r16,r4,4024888 <__flash_rwdata_start+0xffff1fb4>
 4024a58:	29402034 	orhi	r5,r5,128
 4024a5c:	01000e04 	movi	r4,56
 4024a60:	2080a90e 	bge	r4,r2,4024d08 <__subdf3+0x504>
 4024a64:	298cb03a 	or	r6,r5,r6
 4024a68:	3012c03a 	cmpne	r9,r6,zero
 4024a6c:	0005883a 	mov	r2,zero
 4024a70:	4c53883a 	add	r9,r9,r17
 4024a74:	4c63803a 	cmpltu	r17,r9,r17
 4024a78:	10c7883a 	add	r3,r2,r3
 4024a7c:	88c7883a 	add	r3,r17,r3
 4024a80:	4823883a 	mov	r17,r9
 4024a84:	1880202c 	andhi	r2,r3,128
 4024a88:	1000d026 	beq	r2,zero,4024dcc <__subdf3+0x5c8>
 4024a8c:	84000044 	addi	r16,r16,1
 4024a90:	0081ffc4 	movi	r2,2047
 4024a94:	8080fe26 	beq	r16,r2,4024e90 <__subdf3+0x68c>
 4024a98:	00bfe034 	movhi	r2,65408
 4024a9c:	10bfffc4 	addi	r2,r2,-1
 4024aa0:	1886703a 	and	r3,r3,r2
 4024aa4:	880ad07a 	srli	r5,r17,1
 4024aa8:	180497fa 	slli	r2,r3,31
 4024aac:	8900004c 	andi	r4,r17,1
 4024ab0:	2922b03a 	or	r17,r5,r4
 4024ab4:	1806d07a 	srli	r3,r3,1
 4024ab8:	1462b03a 	or	r17,r2,r17
 4024abc:	3825883a 	mov	r18,r7
 4024ac0:	003f7106 	br	4024888 <__flash_rwdata_start+0xffff1fb4>
 4024ac4:	2984b03a 	or	r2,r5,r6
 4024ac8:	103f6826 	beq	r2,zero,402486c <__flash_rwdata_start+0xffff1f98>
 4024acc:	39c03fcc 	andi	r7,r7,255
 4024ad0:	003f6706 	br	4024870 <__flash_rwdata_start+0xffff1f9c>
 4024ad4:	4086b03a 	or	r3,r8,r2
 4024ad8:	18015226 	beq	r3,zero,4025024 <__subdf3+0x820>
 4024adc:	00c00434 	movhi	r3,16
 4024ae0:	41400234 	orhi	r5,r8,8
 4024ae4:	18ffffc4 	addi	r3,r3,-1
 4024ae8:	28ca703a 	and	r5,r5,r3
 4024aec:	003f7e06 	br	40248e8 <__flash_rwdata_start+0xffff2014>
 4024af0:	10bfffc4 	addi	r2,r2,-1
 4024af4:	1000491e 	bne	r2,zero,4024c1c <__subdf3+0x418>
 4024af8:	898fc83a 	sub	r7,r17,r6
 4024afc:	89e3803a 	cmpltu	r17,r17,r7
 4024b00:	1947c83a 	sub	r3,r3,r5
 4024b04:	1c47c83a 	sub	r3,r3,r17
 4024b08:	3823883a 	mov	r17,r7
 4024b0c:	003f9b06 	br	402497c <__flash_rwdata_start+0xffff20a8>
 4024b10:	2988b03a 	or	r4,r5,r6
 4024b14:	203f5c26 	beq	r4,zero,4024888 <__flash_rwdata_start+0xffff1fb4>
 4024b18:	10bfffc4 	addi	r2,r2,-1
 4024b1c:	1000931e 	bne	r2,zero,4024d6c <__subdf3+0x568>
 4024b20:	898d883a 	add	r6,r17,r6
 4024b24:	3463803a 	cmpltu	r17,r6,r17
 4024b28:	1947883a 	add	r3,r3,r5
 4024b2c:	88c7883a 	add	r3,r17,r3
 4024b30:	3023883a 	mov	r17,r6
 4024b34:	003fd306 	br	4024a84 <__flash_rwdata_start+0xffff21b0>
 4024b38:	1000541e 	bne	r2,zero,4024c8c <__subdf3+0x488>
 4024b3c:	80800044 	addi	r2,r16,1
 4024b40:	1081ffcc 	andi	r2,r2,2047
 4024b44:	01000044 	movi	r4,1
 4024b48:	2080a20e 	bge	r4,r2,4024dd4 <__subdf3+0x5d0>
 4024b4c:	8989c83a 	sub	r4,r17,r6
 4024b50:	8905803a 	cmpltu	r2,r17,r4
 4024b54:	1967c83a 	sub	r19,r3,r5
 4024b58:	98a7c83a 	sub	r19,r19,r2
 4024b5c:	9880202c 	andhi	r2,r19,128
 4024b60:	10006326 	beq	r2,zero,4024cf0 <__subdf3+0x4ec>
 4024b64:	3463c83a 	sub	r17,r6,r17
 4024b68:	28c7c83a 	sub	r3,r5,r3
 4024b6c:	344d803a 	cmpltu	r6,r6,r17
 4024b70:	19a7c83a 	sub	r19,r3,r6
 4024b74:	3825883a 	mov	r18,r7
 4024b78:	983f861e 	bne	r19,zero,4024994 <__flash_rwdata_start+0xffff20c0>
 4024b7c:	8809883a 	mov	r4,r17
 4024b80:	40255140 	call	4025514 <__clzsi2>
 4024b84:	10800804 	addi	r2,r2,32
 4024b88:	113ffe04 	addi	r4,r2,-8
 4024b8c:	00c007c4 	movi	r3,31
 4024b90:	193f850e 	bge	r3,r4,40249a8 <__flash_rwdata_start+0xffff20d4>
 4024b94:	10bff604 	addi	r2,r2,-40
 4024b98:	8884983a 	sll	r2,r17,r2
 4024b9c:	0023883a 	mov	r17,zero
 4024ba0:	243f880e 	bge	r4,r16,40249c4 <__flash_rwdata_start+0xffff20f0>
 4024ba4:	00ffe034 	movhi	r3,65408
 4024ba8:	18ffffc4 	addi	r3,r3,-1
 4024bac:	8121c83a 	sub	r16,r16,r4
 4024bb0:	10c6703a 	and	r3,r2,r3
 4024bb4:	003f3406 	br	4024888 <__flash_rwdata_start+0xffff1fb4>
 4024bb8:	9100004c 	andi	r4,r18,1
 4024bbc:	000b883a 	mov	r5,zero
 4024bc0:	0005883a 	mov	r2,zero
 4024bc4:	003f4806 	br	40248e8 <__flash_rwdata_start+0xffff2014>
 4024bc8:	298cb03a 	or	r6,r5,r6
 4024bcc:	300cc03a 	cmpne	r6,r6,zero
 4024bd0:	0005883a 	mov	r2,zero
 4024bd4:	003f6406 	br	4024968 <__flash_rwdata_start+0xffff2094>
 4024bd8:	10009a1e 	bne	r2,zero,4024e44 <__subdf3+0x640>
 4024bdc:	82400044 	addi	r9,r16,1
 4024be0:	4881ffcc 	andi	r2,r9,2047
 4024be4:	02800044 	movi	r10,1
 4024be8:	5080670e 	bge	r10,r2,4024d88 <__subdf3+0x584>
 4024bec:	0081ffc4 	movi	r2,2047
 4024bf0:	4880af26 	beq	r9,r2,4024eb0 <__subdf3+0x6ac>
 4024bf4:	898d883a 	add	r6,r17,r6
 4024bf8:	1945883a 	add	r2,r3,r5
 4024bfc:	3447803a 	cmpltu	r3,r6,r17
 4024c00:	1887883a 	add	r3,r3,r2
 4024c04:	182297fa 	slli	r17,r3,31
 4024c08:	300cd07a 	srli	r6,r6,1
 4024c0c:	1806d07a 	srli	r3,r3,1
 4024c10:	4821883a 	mov	r16,r9
 4024c14:	89a2b03a 	or	r17,r17,r6
 4024c18:	003f1b06 	br	4024888 <__flash_rwdata_start+0xffff1fb4>
 4024c1c:	0101ffc4 	movi	r4,2047
 4024c20:	813f441e 	bne	r16,r4,4024934 <__flash_rwdata_start+0xffff2060>
 4024c24:	003f1806 	br	4024888 <__flash_rwdata_start+0xffff1fb4>
 4024c28:	843ff844 	addi	r16,r16,-31
 4024c2c:	01400804 	movi	r5,32
 4024c30:	1408d83a 	srl	r4,r2,r16
 4024c34:	19405026 	beq	r3,r5,4024d78 <__subdf3+0x574>
 4024c38:	01401004 	movi	r5,64
 4024c3c:	28c7c83a 	sub	r3,r5,r3
 4024c40:	10c4983a 	sll	r2,r2,r3
 4024c44:	88a2b03a 	or	r17,r17,r2
 4024c48:	8822c03a 	cmpne	r17,r17,zero
 4024c4c:	2462b03a 	or	r17,r4,r17
 4024c50:	0007883a 	mov	r3,zero
 4024c54:	0021883a 	mov	r16,zero
 4024c58:	003f6d06 	br	4024a10 <__flash_rwdata_start+0xffff213c>
 4024c5c:	11fff804 	addi	r7,r2,-32
 4024c60:	01000804 	movi	r4,32
 4024c64:	29ced83a 	srl	r7,r5,r7
 4024c68:	11004526 	beq	r2,r4,4024d80 <__subdf3+0x57c>
 4024c6c:	01001004 	movi	r4,64
 4024c70:	2089c83a 	sub	r4,r4,r2
 4024c74:	2904983a 	sll	r2,r5,r4
 4024c78:	118cb03a 	or	r6,r2,r6
 4024c7c:	300cc03a 	cmpne	r6,r6,zero
 4024c80:	398cb03a 	or	r6,r7,r6
 4024c84:	0005883a 	mov	r2,zero
 4024c88:	003f3706 	br	4024968 <__flash_rwdata_start+0xffff2094>
 4024c8c:	80002a26 	beq	r16,zero,4024d38 <__subdf3+0x534>
 4024c90:	0101ffc4 	movi	r4,2047
 4024c94:	49006626 	beq	r9,r4,4024e30 <__subdf3+0x62c>
 4024c98:	0085c83a 	sub	r2,zero,r2
 4024c9c:	18c02034 	orhi	r3,r3,128
 4024ca0:	01000e04 	movi	r4,56
 4024ca4:	20807e16 	blt	r4,r2,4024ea0 <__subdf3+0x69c>
 4024ca8:	010007c4 	movi	r4,31
 4024cac:	2080e716 	blt	r4,r2,402504c <__subdf3+0x848>
 4024cb0:	01000804 	movi	r4,32
 4024cb4:	2089c83a 	sub	r4,r4,r2
 4024cb8:	1914983a 	sll	r10,r3,r4
 4024cbc:	8890d83a 	srl	r8,r17,r2
 4024cc0:	8908983a 	sll	r4,r17,r4
 4024cc4:	1884d83a 	srl	r2,r3,r2
 4024cc8:	5222b03a 	or	r17,r10,r8
 4024ccc:	2006c03a 	cmpne	r3,r4,zero
 4024cd0:	88e2b03a 	or	r17,r17,r3
 4024cd4:	3463c83a 	sub	r17,r6,r17
 4024cd8:	2885c83a 	sub	r2,r5,r2
 4024cdc:	344d803a 	cmpltu	r6,r6,r17
 4024ce0:	1187c83a 	sub	r3,r2,r6
 4024ce4:	4821883a 	mov	r16,r9
 4024ce8:	3825883a 	mov	r18,r7
 4024cec:	003f2306 	br	402497c <__flash_rwdata_start+0xffff20a8>
 4024cf0:	24d0b03a 	or	r8,r4,r19
 4024cf4:	40001b1e 	bne	r8,zero,4024d64 <__subdf3+0x560>
 4024cf8:	0005883a 	mov	r2,zero
 4024cfc:	0009883a 	mov	r4,zero
 4024d00:	0021883a 	mov	r16,zero
 4024d04:	003f4906 	br	4024a2c <__flash_rwdata_start+0xffff2158>
 4024d08:	010007c4 	movi	r4,31
 4024d0c:	20803a16 	blt	r4,r2,4024df8 <__subdf3+0x5f4>
 4024d10:	01000804 	movi	r4,32
 4024d14:	2089c83a 	sub	r4,r4,r2
 4024d18:	2912983a 	sll	r9,r5,r4
 4024d1c:	3090d83a 	srl	r8,r6,r2
 4024d20:	3108983a 	sll	r4,r6,r4
 4024d24:	2884d83a 	srl	r2,r5,r2
 4024d28:	4a12b03a 	or	r9,r9,r8
 4024d2c:	2008c03a 	cmpne	r4,r4,zero
 4024d30:	4912b03a 	or	r9,r9,r4
 4024d34:	003f4e06 	br	4024a70 <__flash_rwdata_start+0xffff219c>
 4024d38:	1c48b03a 	or	r4,r3,r17
 4024d3c:	20003c26 	beq	r4,zero,4024e30 <__subdf3+0x62c>
 4024d40:	0084303a 	nor	r2,zero,r2
 4024d44:	1000381e 	bne	r2,zero,4024e28 <__subdf3+0x624>
 4024d48:	3463c83a 	sub	r17,r6,r17
 4024d4c:	28c5c83a 	sub	r2,r5,r3
 4024d50:	344d803a 	cmpltu	r6,r6,r17
 4024d54:	1187c83a 	sub	r3,r2,r6
 4024d58:	4821883a 	mov	r16,r9
 4024d5c:	3825883a 	mov	r18,r7
 4024d60:	003f0606 	br	402497c <__flash_rwdata_start+0xffff20a8>
 4024d64:	2023883a 	mov	r17,r4
 4024d68:	003f0906 	br	4024990 <__flash_rwdata_start+0xffff20bc>
 4024d6c:	0101ffc4 	movi	r4,2047
 4024d70:	813f3a1e 	bne	r16,r4,4024a5c <__flash_rwdata_start+0xffff2188>
 4024d74:	003ec406 	br	4024888 <__flash_rwdata_start+0xffff1fb4>
 4024d78:	0005883a 	mov	r2,zero
 4024d7c:	003fb106 	br	4024c44 <__flash_rwdata_start+0xffff2370>
 4024d80:	0005883a 	mov	r2,zero
 4024d84:	003fbc06 	br	4024c78 <__flash_rwdata_start+0xffff23a4>
 4024d88:	1c44b03a 	or	r2,r3,r17
 4024d8c:	80008e1e 	bne	r16,zero,4024fc8 <__subdf3+0x7c4>
 4024d90:	1000c826 	beq	r2,zero,40250b4 <__subdf3+0x8b0>
 4024d94:	2984b03a 	or	r2,r5,r6
 4024d98:	103ebb26 	beq	r2,zero,4024888 <__flash_rwdata_start+0xffff1fb4>
 4024d9c:	8989883a 	add	r4,r17,r6
 4024da0:	1945883a 	add	r2,r3,r5
 4024da4:	2447803a 	cmpltu	r3,r4,r17
 4024da8:	1887883a 	add	r3,r3,r2
 4024dac:	1880202c 	andhi	r2,r3,128
 4024db0:	2023883a 	mov	r17,r4
 4024db4:	103f1626 	beq	r2,zero,4024a10 <__flash_rwdata_start+0xffff213c>
 4024db8:	00bfe034 	movhi	r2,65408
 4024dbc:	10bfffc4 	addi	r2,r2,-1
 4024dc0:	5021883a 	mov	r16,r10
 4024dc4:	1886703a 	and	r3,r3,r2
 4024dc8:	003eaf06 	br	4024888 <__flash_rwdata_start+0xffff1fb4>
 4024dcc:	3825883a 	mov	r18,r7
 4024dd0:	003f0f06 	br	4024a10 <__flash_rwdata_start+0xffff213c>
 4024dd4:	1c44b03a 	or	r2,r3,r17
 4024dd8:	8000251e 	bne	r16,zero,4024e70 <__subdf3+0x66c>
 4024ddc:	1000661e 	bne	r2,zero,4024f78 <__subdf3+0x774>
 4024de0:	2990b03a 	or	r8,r5,r6
 4024de4:	40009626 	beq	r8,zero,4025040 <__subdf3+0x83c>
 4024de8:	2807883a 	mov	r3,r5
 4024dec:	3023883a 	mov	r17,r6
 4024df0:	3825883a 	mov	r18,r7
 4024df4:	003ea406 	br	4024888 <__flash_rwdata_start+0xffff1fb4>
 4024df8:	127ff804 	addi	r9,r2,-32
 4024dfc:	01000804 	movi	r4,32
 4024e00:	2a52d83a 	srl	r9,r5,r9
 4024e04:	11008c26 	beq	r2,r4,4025038 <__subdf3+0x834>
 4024e08:	01001004 	movi	r4,64
 4024e0c:	2085c83a 	sub	r2,r4,r2
 4024e10:	2884983a 	sll	r2,r5,r2
 4024e14:	118cb03a 	or	r6,r2,r6
 4024e18:	300cc03a 	cmpne	r6,r6,zero
 4024e1c:	4992b03a 	or	r9,r9,r6
 4024e20:	0005883a 	mov	r2,zero
 4024e24:	003f1206 	br	4024a70 <__flash_rwdata_start+0xffff219c>
 4024e28:	0101ffc4 	movi	r4,2047
 4024e2c:	493f9c1e 	bne	r9,r4,4024ca0 <__flash_rwdata_start+0xffff23cc>
 4024e30:	2807883a 	mov	r3,r5
 4024e34:	3023883a 	mov	r17,r6
 4024e38:	4821883a 	mov	r16,r9
 4024e3c:	3825883a 	mov	r18,r7
 4024e40:	003e9106 	br	4024888 <__flash_rwdata_start+0xffff1fb4>
 4024e44:	80001f1e 	bne	r16,zero,4024ec4 <__subdf3+0x6c0>
 4024e48:	1c48b03a 	or	r4,r3,r17
 4024e4c:	20005a26 	beq	r4,zero,4024fb8 <__subdf3+0x7b4>
 4024e50:	0084303a 	nor	r2,zero,r2
 4024e54:	1000561e 	bne	r2,zero,4024fb0 <__subdf3+0x7ac>
 4024e58:	89a3883a 	add	r17,r17,r6
 4024e5c:	1945883a 	add	r2,r3,r5
 4024e60:	898d803a 	cmpltu	r6,r17,r6
 4024e64:	3087883a 	add	r3,r6,r2
 4024e68:	4821883a 	mov	r16,r9
 4024e6c:	003f0506 	br	4024a84 <__flash_rwdata_start+0xffff21b0>
 4024e70:	10002b1e 	bne	r2,zero,4024f20 <__subdf3+0x71c>
 4024e74:	2984b03a 	or	r2,r5,r6
 4024e78:	10008026 	beq	r2,zero,402507c <__subdf3+0x878>
 4024e7c:	2807883a 	mov	r3,r5
 4024e80:	3023883a 	mov	r17,r6
 4024e84:	3825883a 	mov	r18,r7
 4024e88:	0401ffc4 	movi	r16,2047
 4024e8c:	003e7e06 	br	4024888 <__flash_rwdata_start+0xffff1fb4>
 4024e90:	3809883a 	mov	r4,r7
 4024e94:	0011883a 	mov	r8,zero
 4024e98:	0005883a 	mov	r2,zero
 4024e9c:	003ee306 	br	4024a2c <__flash_rwdata_start+0xffff2158>
 4024ea0:	1c62b03a 	or	r17,r3,r17
 4024ea4:	8822c03a 	cmpne	r17,r17,zero
 4024ea8:	0005883a 	mov	r2,zero
 4024eac:	003f8906 	br	4024cd4 <__flash_rwdata_start+0xffff2400>
 4024eb0:	3809883a 	mov	r4,r7
 4024eb4:	4821883a 	mov	r16,r9
 4024eb8:	0011883a 	mov	r8,zero
 4024ebc:	0005883a 	mov	r2,zero
 4024ec0:	003eda06 	br	4024a2c <__flash_rwdata_start+0xffff2158>
 4024ec4:	0101ffc4 	movi	r4,2047
 4024ec8:	49003b26 	beq	r9,r4,4024fb8 <__subdf3+0x7b4>
 4024ecc:	0085c83a 	sub	r2,zero,r2
 4024ed0:	18c02034 	orhi	r3,r3,128
 4024ed4:	01000e04 	movi	r4,56
 4024ed8:	20806e16 	blt	r4,r2,4025094 <__subdf3+0x890>
 4024edc:	010007c4 	movi	r4,31
 4024ee0:	20807716 	blt	r4,r2,40250c0 <__subdf3+0x8bc>
 4024ee4:	01000804 	movi	r4,32
 4024ee8:	2089c83a 	sub	r4,r4,r2
 4024eec:	1914983a 	sll	r10,r3,r4
 4024ef0:	8890d83a 	srl	r8,r17,r2
 4024ef4:	8908983a 	sll	r4,r17,r4
 4024ef8:	1884d83a 	srl	r2,r3,r2
 4024efc:	5222b03a 	or	r17,r10,r8
 4024f00:	2006c03a 	cmpne	r3,r4,zero
 4024f04:	88e2b03a 	or	r17,r17,r3
 4024f08:	89a3883a 	add	r17,r17,r6
 4024f0c:	1145883a 	add	r2,r2,r5
 4024f10:	898d803a 	cmpltu	r6,r17,r6
 4024f14:	3087883a 	add	r3,r6,r2
 4024f18:	4821883a 	mov	r16,r9
 4024f1c:	003ed906 	br	4024a84 <__flash_rwdata_start+0xffff21b0>
 4024f20:	2984b03a 	or	r2,r5,r6
 4024f24:	10004226 	beq	r2,zero,4025030 <__subdf3+0x82c>
 4024f28:	1808d0fa 	srli	r4,r3,3
 4024f2c:	8822d0fa 	srli	r17,r17,3
 4024f30:	1806977a 	slli	r3,r3,29
 4024f34:	2080022c 	andhi	r2,r4,8
 4024f38:	1c62b03a 	or	r17,r3,r17
 4024f3c:	10000826 	beq	r2,zero,4024f60 <__subdf3+0x75c>
 4024f40:	2812d0fa 	srli	r9,r5,3
 4024f44:	4880022c 	andhi	r2,r9,8
 4024f48:	1000051e 	bne	r2,zero,4024f60 <__subdf3+0x75c>
 4024f4c:	300cd0fa 	srli	r6,r6,3
 4024f50:	2804977a 	slli	r2,r5,29
 4024f54:	4809883a 	mov	r4,r9
 4024f58:	3825883a 	mov	r18,r7
 4024f5c:	11a2b03a 	or	r17,r2,r6
 4024f60:	8806d77a 	srli	r3,r17,29
 4024f64:	200890fa 	slli	r4,r4,3
 4024f68:	882290fa 	slli	r17,r17,3
 4024f6c:	0401ffc4 	movi	r16,2047
 4024f70:	1906b03a 	or	r3,r3,r4
 4024f74:	003e4406 	br	4024888 <__flash_rwdata_start+0xffff1fb4>
 4024f78:	2984b03a 	or	r2,r5,r6
 4024f7c:	103e4226 	beq	r2,zero,4024888 <__flash_rwdata_start+0xffff1fb4>
 4024f80:	8989c83a 	sub	r4,r17,r6
 4024f84:	8911803a 	cmpltu	r8,r17,r4
 4024f88:	1945c83a 	sub	r2,r3,r5
 4024f8c:	1205c83a 	sub	r2,r2,r8
 4024f90:	1200202c 	andhi	r8,r2,128
 4024f94:	403e9a26 	beq	r8,zero,4024a00 <__flash_rwdata_start+0xffff212c>
 4024f98:	3463c83a 	sub	r17,r6,r17
 4024f9c:	28c5c83a 	sub	r2,r5,r3
 4024fa0:	344d803a 	cmpltu	r6,r6,r17
 4024fa4:	1187c83a 	sub	r3,r2,r6
 4024fa8:	3825883a 	mov	r18,r7
 4024fac:	003e3606 	br	4024888 <__flash_rwdata_start+0xffff1fb4>
 4024fb0:	0101ffc4 	movi	r4,2047
 4024fb4:	493fc71e 	bne	r9,r4,4024ed4 <__flash_rwdata_start+0xffff2600>
 4024fb8:	2807883a 	mov	r3,r5
 4024fbc:	3023883a 	mov	r17,r6
 4024fc0:	4821883a 	mov	r16,r9
 4024fc4:	003e3006 	br	4024888 <__flash_rwdata_start+0xffff1fb4>
 4024fc8:	10003626 	beq	r2,zero,40250a4 <__subdf3+0x8a0>
 4024fcc:	2984b03a 	or	r2,r5,r6
 4024fd0:	10001726 	beq	r2,zero,4025030 <__subdf3+0x82c>
 4024fd4:	1808d0fa 	srli	r4,r3,3
 4024fd8:	8822d0fa 	srli	r17,r17,3
 4024fdc:	1806977a 	slli	r3,r3,29
 4024fe0:	2080022c 	andhi	r2,r4,8
 4024fe4:	1c62b03a 	or	r17,r3,r17
 4024fe8:	10000726 	beq	r2,zero,4025008 <__subdf3+0x804>
 4024fec:	2812d0fa 	srli	r9,r5,3
 4024ff0:	4880022c 	andhi	r2,r9,8
 4024ff4:	1000041e 	bne	r2,zero,4025008 <__subdf3+0x804>
 4024ff8:	300cd0fa 	srli	r6,r6,3
 4024ffc:	2804977a 	slli	r2,r5,29
 4025000:	4809883a 	mov	r4,r9
 4025004:	11a2b03a 	or	r17,r2,r6
 4025008:	8806d77a 	srli	r3,r17,29
 402500c:	200890fa 	slli	r4,r4,3
 4025010:	882290fa 	slli	r17,r17,3
 4025014:	3825883a 	mov	r18,r7
 4025018:	1906b03a 	or	r3,r3,r4
 402501c:	0401ffc4 	movi	r16,2047
 4025020:	003e1906 	br	4024888 <__flash_rwdata_start+0xffff1fb4>
 4025024:	000b883a 	mov	r5,zero
 4025028:	0005883a 	mov	r2,zero
 402502c:	003e2e06 	br	40248e8 <__flash_rwdata_start+0xffff2014>
 4025030:	0401ffc4 	movi	r16,2047
 4025034:	003e1406 	br	4024888 <__flash_rwdata_start+0xffff1fb4>
 4025038:	0005883a 	mov	r2,zero
 402503c:	003f7506 	br	4024e14 <__flash_rwdata_start+0xffff2540>
 4025040:	0005883a 	mov	r2,zero
 4025044:	0009883a 	mov	r4,zero
 4025048:	003e7806 	br	4024a2c <__flash_rwdata_start+0xffff2158>
 402504c:	123ff804 	addi	r8,r2,-32
 4025050:	01000804 	movi	r4,32
 4025054:	1a10d83a 	srl	r8,r3,r8
 4025058:	11002526 	beq	r2,r4,40250f0 <__subdf3+0x8ec>
 402505c:	01001004 	movi	r4,64
 4025060:	2085c83a 	sub	r2,r4,r2
 4025064:	1884983a 	sll	r2,r3,r2
 4025068:	1444b03a 	or	r2,r2,r17
 402506c:	1004c03a 	cmpne	r2,r2,zero
 4025070:	40a2b03a 	or	r17,r8,r2
 4025074:	0005883a 	mov	r2,zero
 4025078:	003f1606 	br	4024cd4 <__flash_rwdata_start+0xffff2400>
 402507c:	02000434 	movhi	r8,16
 4025080:	0009883a 	mov	r4,zero
 4025084:	423fffc4 	addi	r8,r8,-1
 4025088:	00bfffc4 	movi	r2,-1
 402508c:	0401ffc4 	movi	r16,2047
 4025090:	003e6606 	br	4024a2c <__flash_rwdata_start+0xffff2158>
 4025094:	1c62b03a 	or	r17,r3,r17
 4025098:	8822c03a 	cmpne	r17,r17,zero
 402509c:	0005883a 	mov	r2,zero
 40250a0:	003f9906 	br	4024f08 <__flash_rwdata_start+0xffff2634>
 40250a4:	2807883a 	mov	r3,r5
 40250a8:	3023883a 	mov	r17,r6
 40250ac:	0401ffc4 	movi	r16,2047
 40250b0:	003df506 	br	4024888 <__flash_rwdata_start+0xffff1fb4>
 40250b4:	2807883a 	mov	r3,r5
 40250b8:	3023883a 	mov	r17,r6
 40250bc:	003df206 	br	4024888 <__flash_rwdata_start+0xffff1fb4>
 40250c0:	123ff804 	addi	r8,r2,-32
 40250c4:	01000804 	movi	r4,32
 40250c8:	1a10d83a 	srl	r8,r3,r8
 40250cc:	11000a26 	beq	r2,r4,40250f8 <__subdf3+0x8f4>
 40250d0:	01001004 	movi	r4,64
 40250d4:	2085c83a 	sub	r2,r4,r2
 40250d8:	1884983a 	sll	r2,r3,r2
 40250dc:	1444b03a 	or	r2,r2,r17
 40250e0:	1004c03a 	cmpne	r2,r2,zero
 40250e4:	40a2b03a 	or	r17,r8,r2
 40250e8:	0005883a 	mov	r2,zero
 40250ec:	003f8606 	br	4024f08 <__flash_rwdata_start+0xffff2634>
 40250f0:	0005883a 	mov	r2,zero
 40250f4:	003fdc06 	br	4025068 <__flash_rwdata_start+0xffff2794>
 40250f8:	0005883a 	mov	r2,zero
 40250fc:	003ff706 	br	40250dc <__flash_rwdata_start+0xffff2808>

04025100 <__fixdfsi>:
 4025100:	280cd53a 	srli	r6,r5,20
 4025104:	00c00434 	movhi	r3,16
 4025108:	18ffffc4 	addi	r3,r3,-1
 402510c:	3181ffcc 	andi	r6,r6,2047
 4025110:	01c0ff84 	movi	r7,1022
 4025114:	28c6703a 	and	r3,r5,r3
 4025118:	280ad7fa 	srli	r5,r5,31
 402511c:	3980120e 	bge	r7,r6,4025168 <__fixdfsi+0x68>
 4025120:	00810744 	movi	r2,1053
 4025124:	11800c16 	blt	r2,r6,4025158 <__fixdfsi+0x58>
 4025128:	00810cc4 	movi	r2,1075
 402512c:	1185c83a 	sub	r2,r2,r6
 4025130:	01c007c4 	movi	r7,31
 4025134:	18c00434 	orhi	r3,r3,16
 4025138:	38800d16 	blt	r7,r2,4025170 <__fixdfsi+0x70>
 402513c:	31befb44 	addi	r6,r6,-1043
 4025140:	2084d83a 	srl	r2,r4,r2
 4025144:	1986983a 	sll	r3,r3,r6
 4025148:	1884b03a 	or	r2,r3,r2
 402514c:	28000726 	beq	r5,zero,402516c <__fixdfsi+0x6c>
 4025150:	0085c83a 	sub	r2,zero,r2
 4025154:	f800283a 	ret
 4025158:	00a00034 	movhi	r2,32768
 402515c:	10bfffc4 	addi	r2,r2,-1
 4025160:	2885883a 	add	r2,r5,r2
 4025164:	f800283a 	ret
 4025168:	0005883a 	mov	r2,zero
 402516c:	f800283a 	ret
 4025170:	008104c4 	movi	r2,1043
 4025174:	1185c83a 	sub	r2,r2,r6
 4025178:	1884d83a 	srl	r2,r3,r2
 402517c:	003ff306 	br	402514c <__flash_rwdata_start+0xffff2878>

04025180 <__floatsidf>:
 4025180:	defffd04 	addi	sp,sp,-12
 4025184:	dfc00215 	stw	ra,8(sp)
 4025188:	dc400115 	stw	r17,4(sp)
 402518c:	dc000015 	stw	r16,0(sp)
 4025190:	20002b26 	beq	r4,zero,4025240 <__floatsidf+0xc0>
 4025194:	2023883a 	mov	r17,r4
 4025198:	2020d7fa 	srli	r16,r4,31
 402519c:	20002d16 	blt	r4,zero,4025254 <__floatsidf+0xd4>
 40251a0:	8809883a 	mov	r4,r17
 40251a4:	40255140 	call	4025514 <__clzsi2>
 40251a8:	01410784 	movi	r5,1054
 40251ac:	288bc83a 	sub	r5,r5,r2
 40251b0:	01010cc4 	movi	r4,1075
 40251b4:	2149c83a 	sub	r4,r4,r5
 40251b8:	00c007c4 	movi	r3,31
 40251bc:	1900160e 	bge	r3,r4,4025218 <__floatsidf+0x98>
 40251c0:	00c104c4 	movi	r3,1043
 40251c4:	1947c83a 	sub	r3,r3,r5
 40251c8:	88c6983a 	sll	r3,r17,r3
 40251cc:	00800434 	movhi	r2,16
 40251d0:	10bfffc4 	addi	r2,r2,-1
 40251d4:	1886703a 	and	r3,r3,r2
 40251d8:	2941ffcc 	andi	r5,r5,2047
 40251dc:	800d883a 	mov	r6,r16
 40251e0:	0005883a 	mov	r2,zero
 40251e4:	280a953a 	slli	r5,r5,20
 40251e8:	31803fcc 	andi	r6,r6,255
 40251ec:	01000434 	movhi	r4,16
 40251f0:	300c97fa 	slli	r6,r6,31
 40251f4:	213fffc4 	addi	r4,r4,-1
 40251f8:	1906703a 	and	r3,r3,r4
 40251fc:	1946b03a 	or	r3,r3,r5
 4025200:	1986b03a 	or	r3,r3,r6
 4025204:	dfc00217 	ldw	ra,8(sp)
 4025208:	dc400117 	ldw	r17,4(sp)
 402520c:	dc000017 	ldw	r16,0(sp)
 4025210:	dec00304 	addi	sp,sp,12
 4025214:	f800283a 	ret
 4025218:	00c002c4 	movi	r3,11
 402521c:	1887c83a 	sub	r3,r3,r2
 4025220:	88c6d83a 	srl	r3,r17,r3
 4025224:	8904983a 	sll	r2,r17,r4
 4025228:	01000434 	movhi	r4,16
 402522c:	213fffc4 	addi	r4,r4,-1
 4025230:	2941ffcc 	andi	r5,r5,2047
 4025234:	1906703a 	and	r3,r3,r4
 4025238:	800d883a 	mov	r6,r16
 402523c:	003fe906 	br	40251e4 <__flash_rwdata_start+0xffff2910>
 4025240:	000d883a 	mov	r6,zero
 4025244:	000b883a 	mov	r5,zero
 4025248:	0007883a 	mov	r3,zero
 402524c:	0005883a 	mov	r2,zero
 4025250:	003fe406 	br	40251e4 <__flash_rwdata_start+0xffff2910>
 4025254:	0123c83a 	sub	r17,zero,r4
 4025258:	003fd106 	br	40251a0 <__flash_rwdata_start+0xffff28cc>

0402525c <__extendsfdf2>:
 402525c:	200ad5fa 	srli	r5,r4,23
 4025260:	defffd04 	addi	sp,sp,-12
 4025264:	dc400115 	stw	r17,4(sp)
 4025268:	29403fcc 	andi	r5,r5,255
 402526c:	29800044 	addi	r6,r5,1
 4025270:	04402034 	movhi	r17,128
 4025274:	dc000015 	stw	r16,0(sp)
 4025278:	8c7fffc4 	addi	r17,r17,-1
 402527c:	dfc00215 	stw	ra,8(sp)
 4025280:	31803fcc 	andi	r6,r6,255
 4025284:	00800044 	movi	r2,1
 4025288:	8922703a 	and	r17,r17,r4
 402528c:	2020d7fa 	srli	r16,r4,31
 4025290:	1180110e 	bge	r2,r6,40252d8 <__extendsfdf2+0x7c>
 4025294:	880cd0fa 	srli	r6,r17,3
 4025298:	8822977a 	slli	r17,r17,29
 402529c:	2940e004 	addi	r5,r5,896
 40252a0:	2941ffcc 	andi	r5,r5,2047
 40252a4:	2804953a 	slli	r2,r5,20
 40252a8:	01400434 	movhi	r5,16
 40252ac:	800697fa 	slli	r3,r16,31
 40252b0:	297fffc4 	addi	r5,r5,-1
 40252b4:	314a703a 	and	r5,r6,r5
 40252b8:	288ab03a 	or	r5,r5,r2
 40252bc:	28c6b03a 	or	r3,r5,r3
 40252c0:	8805883a 	mov	r2,r17
 40252c4:	dfc00217 	ldw	ra,8(sp)
 40252c8:	dc400117 	ldw	r17,4(sp)
 40252cc:	dc000017 	ldw	r16,0(sp)
 40252d0:	dec00304 	addi	sp,sp,12
 40252d4:	f800283a 	ret
 40252d8:	2800111e 	bne	r5,zero,4025320 <__extendsfdf2+0xc4>
 40252dc:	88001c26 	beq	r17,zero,4025350 <__extendsfdf2+0xf4>
 40252e0:	8809883a 	mov	r4,r17
 40252e4:	40255140 	call	4025514 <__clzsi2>
 40252e8:	00c00284 	movi	r3,10
 40252ec:	18801b16 	blt	r3,r2,402535c <__extendsfdf2+0x100>
 40252f0:	018002c4 	movi	r6,11
 40252f4:	308dc83a 	sub	r6,r6,r2
 40252f8:	11000544 	addi	r4,r2,21
 40252fc:	8986d83a 	srl	r3,r17,r6
 4025300:	8922983a 	sll	r17,r17,r4
 4025304:	0180e244 	movi	r6,905
 4025308:	01400434 	movhi	r5,16
 402530c:	3085c83a 	sub	r2,r6,r2
 4025310:	297fffc4 	addi	r5,r5,-1
 4025314:	194c703a 	and	r6,r3,r5
 4025318:	1141ffcc 	andi	r5,r2,2047
 402531c:	003fe006 	br	40252a0 <__flash_rwdata_start+0xffff29cc>
 4025320:	88000826 	beq	r17,zero,4025344 <__extendsfdf2+0xe8>
 4025324:	880cd0fa 	srli	r6,r17,3
 4025328:	00800434 	movhi	r2,16
 402532c:	10bfffc4 	addi	r2,r2,-1
 4025330:	31800234 	orhi	r6,r6,8
 4025334:	8822977a 	slli	r17,r17,29
 4025338:	308c703a 	and	r6,r6,r2
 402533c:	0141ffc4 	movi	r5,2047
 4025340:	003fd706 	br	40252a0 <__flash_rwdata_start+0xffff29cc>
 4025344:	0141ffc4 	movi	r5,2047
 4025348:	000d883a 	mov	r6,zero
 402534c:	003fd406 	br	40252a0 <__flash_rwdata_start+0xffff29cc>
 4025350:	000b883a 	mov	r5,zero
 4025354:	000d883a 	mov	r6,zero
 4025358:	003fd106 	br	40252a0 <__flash_rwdata_start+0xffff29cc>
 402535c:	11bffd44 	addi	r6,r2,-11
 4025360:	8986983a 	sll	r3,r17,r6
 4025364:	0023883a 	mov	r17,zero
 4025368:	003fe606 	br	4025304 <__flash_rwdata_start+0xffff2a30>

0402536c <__truncdfsf2>:
 402536c:	2810d53a 	srli	r8,r5,20
 4025370:	01c00434 	movhi	r7,16
 4025374:	39ffffc4 	addi	r7,r7,-1
 4025378:	29ce703a 	and	r7,r5,r7
 402537c:	4201ffcc 	andi	r8,r8,2047
 4025380:	380e90fa 	slli	r7,r7,3
 4025384:	200cd77a 	srli	r6,r4,29
 4025388:	42400044 	addi	r9,r8,1
 402538c:	4a41ffcc 	andi	r9,r9,2047
 4025390:	00c00044 	movi	r3,1
 4025394:	280ad7fa 	srli	r5,r5,31
 4025398:	31ceb03a 	or	r7,r6,r7
 402539c:	200490fa 	slli	r2,r4,3
 40253a0:	1a40230e 	bge	r3,r9,4025430 <__truncdfsf2+0xc4>
 40253a4:	40ff2004 	addi	r3,r8,-896
 40253a8:	01803f84 	movi	r6,254
 40253ac:	30c01516 	blt	r6,r3,4025404 <__truncdfsf2+0x98>
 40253b0:	00c0380e 	bge	zero,r3,4025494 <__truncdfsf2+0x128>
 40253b4:	200c91ba 	slli	r6,r4,6
 40253b8:	380e90fa 	slli	r7,r7,3
 40253bc:	1004d77a 	srli	r2,r2,29
 40253c0:	300cc03a 	cmpne	r6,r6,zero
 40253c4:	31ccb03a 	or	r6,r6,r7
 40253c8:	308cb03a 	or	r6,r6,r2
 40253cc:	308001cc 	andi	r2,r6,7
 40253d0:	10000426 	beq	r2,zero,40253e4 <__truncdfsf2+0x78>
 40253d4:	308003cc 	andi	r2,r6,15
 40253d8:	01000104 	movi	r4,4
 40253dc:	11000126 	beq	r2,r4,40253e4 <__truncdfsf2+0x78>
 40253e0:	31800104 	addi	r6,r6,4
 40253e4:	3081002c 	andhi	r2,r6,1024
 40253e8:	10001626 	beq	r2,zero,4025444 <__truncdfsf2+0xd8>
 40253ec:	18c00044 	addi	r3,r3,1
 40253f0:	00803fc4 	movi	r2,255
 40253f4:	18800326 	beq	r3,r2,4025404 <__truncdfsf2+0x98>
 40253f8:	300c91ba 	slli	r6,r6,6
 40253fc:	300cd27a 	srli	r6,r6,9
 4025400:	00000206 	br	402540c <__truncdfsf2+0xa0>
 4025404:	00ffffc4 	movi	r3,-1
 4025408:	000d883a 	mov	r6,zero
 402540c:	18c03fcc 	andi	r3,r3,255
 4025410:	180895fa 	slli	r4,r3,23
 4025414:	00c02034 	movhi	r3,128
 4025418:	280a97fa 	slli	r5,r5,31
 402541c:	18ffffc4 	addi	r3,r3,-1
 4025420:	30c6703a 	and	r3,r6,r3
 4025424:	1906b03a 	or	r3,r3,r4
 4025428:	1944b03a 	or	r2,r3,r5
 402542c:	f800283a 	ret
 4025430:	40000b1e 	bne	r8,zero,4025460 <__truncdfsf2+0xf4>
 4025434:	388cb03a 	or	r6,r7,r2
 4025438:	0007883a 	mov	r3,zero
 402543c:	30000426 	beq	r6,zero,4025450 <__truncdfsf2+0xe4>
 4025440:	01800144 	movi	r6,5
 4025444:	00803fc4 	movi	r2,255
 4025448:	300cd0fa 	srli	r6,r6,3
 402544c:	18800a26 	beq	r3,r2,4025478 <__truncdfsf2+0x10c>
 4025450:	00802034 	movhi	r2,128
 4025454:	10bfffc4 	addi	r2,r2,-1
 4025458:	308c703a 	and	r6,r6,r2
 402545c:	003feb06 	br	402540c <__flash_rwdata_start+0xffff2b38>
 4025460:	3888b03a 	or	r4,r7,r2
 4025464:	203fe726 	beq	r4,zero,4025404 <__flash_rwdata_start+0xffff2b30>
 4025468:	380c90fa 	slli	r6,r7,3
 402546c:	00c03fc4 	movi	r3,255
 4025470:	31808034 	orhi	r6,r6,512
 4025474:	003fd506 	br	40253cc <__flash_rwdata_start+0xffff2af8>
 4025478:	303fe226 	beq	r6,zero,4025404 <__flash_rwdata_start+0xffff2b30>
 402547c:	00802034 	movhi	r2,128
 4025480:	31801034 	orhi	r6,r6,64
 4025484:	10bfffc4 	addi	r2,r2,-1
 4025488:	00ffffc4 	movi	r3,-1
 402548c:	308c703a 	and	r6,r6,r2
 4025490:	003fde06 	br	402540c <__flash_rwdata_start+0xffff2b38>
 4025494:	013ffa44 	movi	r4,-23
 4025498:	19000e16 	blt	r3,r4,40254d4 <__truncdfsf2+0x168>
 402549c:	01000784 	movi	r4,30
 40254a0:	20c9c83a 	sub	r4,r4,r3
 40254a4:	018007c4 	movi	r6,31
 40254a8:	39c02034 	orhi	r7,r7,128
 40254ac:	31000b16 	blt	r6,r4,40254dc <__truncdfsf2+0x170>
 40254b0:	423f2084 	addi	r8,r8,-894
 40254b4:	120c983a 	sll	r6,r2,r8
 40254b8:	3a0e983a 	sll	r7,r7,r8
 40254bc:	1104d83a 	srl	r2,r2,r4
 40254c0:	300cc03a 	cmpne	r6,r6,zero
 40254c4:	31ceb03a 	or	r7,r6,r7
 40254c8:	388cb03a 	or	r6,r7,r2
 40254cc:	0007883a 	mov	r3,zero
 40254d0:	003fbe06 	br	40253cc <__flash_rwdata_start+0xffff2af8>
 40254d4:	0007883a 	mov	r3,zero
 40254d8:	003fd906 	br	4025440 <__flash_rwdata_start+0xffff2b6c>
 40254dc:	01bfff84 	movi	r6,-2
 40254e0:	30cdc83a 	sub	r6,r6,r3
 40254e4:	00c00804 	movi	r3,32
 40254e8:	398cd83a 	srl	r6,r7,r6
 40254ec:	20c00726 	beq	r4,r3,402550c <__truncdfsf2+0x1a0>
 40254f0:	423f2884 	addi	r8,r8,-862
 40254f4:	3a0e983a 	sll	r7,r7,r8
 40254f8:	3884b03a 	or	r2,r7,r2
 40254fc:	1004c03a 	cmpne	r2,r2,zero
 4025500:	118cb03a 	or	r6,r2,r6
 4025504:	0007883a 	mov	r3,zero
 4025508:	003fb006 	br	40253cc <__flash_rwdata_start+0xffff2af8>
 402550c:	000f883a 	mov	r7,zero
 4025510:	003ff906 	br	40254f8 <__flash_rwdata_start+0xffff2c24>

04025514 <__clzsi2>:
 4025514:	00bfffd4 	movui	r2,65535
 4025518:	11000536 	bltu	r2,r4,4025530 <__clzsi2+0x1c>
 402551c:	00803fc4 	movi	r2,255
 4025520:	11000f36 	bltu	r2,r4,4025560 <__clzsi2+0x4c>
 4025524:	00800804 	movi	r2,32
 4025528:	0007883a 	mov	r3,zero
 402552c:	00000506 	br	4025544 <__clzsi2+0x30>
 4025530:	00804034 	movhi	r2,256
 4025534:	10bfffc4 	addi	r2,r2,-1
 4025538:	11000c2e 	bgeu	r2,r4,402556c <__clzsi2+0x58>
 402553c:	00800204 	movi	r2,8
 4025540:	00c00604 	movi	r3,24
 4025544:	20c8d83a 	srl	r4,r4,r3
 4025548:	00c00034 	movhi	r3,0
 402554c:	18c00e04 	addi	r3,r3,56
 4025550:	1909883a 	add	r4,r3,r4
 4025554:	20c00003 	ldbu	r3,0(r4)
 4025558:	10c5c83a 	sub	r2,r2,r3
 402555c:	f800283a 	ret
 4025560:	00800604 	movi	r2,24
 4025564:	00c00204 	movi	r3,8
 4025568:	003ff606 	br	4025544 <__flash_rwdata_start+0xffff2c70>
 402556c:	00800404 	movi	r2,16
 4025570:	1007883a 	mov	r3,r2
 4025574:	003ff306 	br	4025544 <__flash_rwdata_start+0xffff2c70>

04025578 <__divsi3>:
 4025578:	20001b16 	blt	r4,zero,40255e8 <__divsi3+0x70>
 402557c:	000f883a 	mov	r7,zero
 4025580:	28001616 	blt	r5,zero,40255dc <__divsi3+0x64>
 4025584:	200d883a 	mov	r6,r4
 4025588:	29001a2e 	bgeu	r5,r4,40255f4 <__divsi3+0x7c>
 402558c:	00800804 	movi	r2,32
 4025590:	00c00044 	movi	r3,1
 4025594:	00000106 	br	402559c <__divsi3+0x24>
 4025598:	10000d26 	beq	r2,zero,40255d0 <__divsi3+0x58>
 402559c:	294b883a 	add	r5,r5,r5
 40255a0:	10bfffc4 	addi	r2,r2,-1
 40255a4:	18c7883a 	add	r3,r3,r3
 40255a8:	293ffb36 	bltu	r5,r4,4025598 <__flash_rwdata_start+0xffff2cc4>
 40255ac:	0005883a 	mov	r2,zero
 40255b0:	18000726 	beq	r3,zero,40255d0 <__divsi3+0x58>
 40255b4:	0005883a 	mov	r2,zero
 40255b8:	31400236 	bltu	r6,r5,40255c4 <__divsi3+0x4c>
 40255bc:	314dc83a 	sub	r6,r6,r5
 40255c0:	10c4b03a 	or	r2,r2,r3
 40255c4:	1806d07a 	srli	r3,r3,1
 40255c8:	280ad07a 	srli	r5,r5,1
 40255cc:	183ffa1e 	bne	r3,zero,40255b8 <__flash_rwdata_start+0xffff2ce4>
 40255d0:	38000126 	beq	r7,zero,40255d8 <__divsi3+0x60>
 40255d4:	0085c83a 	sub	r2,zero,r2
 40255d8:	f800283a 	ret
 40255dc:	014bc83a 	sub	r5,zero,r5
 40255e0:	39c0005c 	xori	r7,r7,1
 40255e4:	003fe706 	br	4025584 <__flash_rwdata_start+0xffff2cb0>
 40255e8:	0109c83a 	sub	r4,zero,r4
 40255ec:	01c00044 	movi	r7,1
 40255f0:	003fe306 	br	4025580 <__flash_rwdata_start+0xffff2cac>
 40255f4:	00c00044 	movi	r3,1
 40255f8:	003fee06 	br	40255b4 <__flash_rwdata_start+0xffff2ce0>

040255fc <__modsi3>:
 40255fc:	20001716 	blt	r4,zero,402565c <__modsi3+0x60>
 4025600:	000f883a 	mov	r7,zero
 4025604:	2005883a 	mov	r2,r4
 4025608:	28001216 	blt	r5,zero,4025654 <__modsi3+0x58>
 402560c:	2900162e 	bgeu	r5,r4,4025668 <__modsi3+0x6c>
 4025610:	01800804 	movi	r6,32
 4025614:	00c00044 	movi	r3,1
 4025618:	00000106 	br	4025620 <__modsi3+0x24>
 402561c:	30000a26 	beq	r6,zero,4025648 <__modsi3+0x4c>
 4025620:	294b883a 	add	r5,r5,r5
 4025624:	31bfffc4 	addi	r6,r6,-1
 4025628:	18c7883a 	add	r3,r3,r3
 402562c:	293ffb36 	bltu	r5,r4,402561c <__flash_rwdata_start+0xffff2d48>
 4025630:	18000526 	beq	r3,zero,4025648 <__modsi3+0x4c>
 4025634:	1806d07a 	srli	r3,r3,1
 4025638:	11400136 	bltu	r2,r5,4025640 <__modsi3+0x44>
 402563c:	1145c83a 	sub	r2,r2,r5
 4025640:	280ad07a 	srli	r5,r5,1
 4025644:	183ffb1e 	bne	r3,zero,4025634 <__flash_rwdata_start+0xffff2d60>
 4025648:	38000126 	beq	r7,zero,4025650 <__modsi3+0x54>
 402564c:	0085c83a 	sub	r2,zero,r2
 4025650:	f800283a 	ret
 4025654:	014bc83a 	sub	r5,zero,r5
 4025658:	003fec06 	br	402560c <__flash_rwdata_start+0xffff2d38>
 402565c:	0109c83a 	sub	r4,zero,r4
 4025660:	01c00044 	movi	r7,1
 4025664:	003fe706 	br	4025604 <__flash_rwdata_start+0xffff2d30>
 4025668:	00c00044 	movi	r3,1
 402566c:	003ff106 	br	4025634 <__flash_rwdata_start+0xffff2d60>

04025670 <__udivsi3>:
 4025670:	200d883a 	mov	r6,r4
 4025674:	2900152e 	bgeu	r5,r4,40256cc <__udivsi3+0x5c>
 4025678:	28001416 	blt	r5,zero,40256cc <__udivsi3+0x5c>
 402567c:	00800804 	movi	r2,32
 4025680:	00c00044 	movi	r3,1
 4025684:	00000206 	br	4025690 <__udivsi3+0x20>
 4025688:	10000e26 	beq	r2,zero,40256c4 <__udivsi3+0x54>
 402568c:	28000516 	blt	r5,zero,40256a4 <__udivsi3+0x34>
 4025690:	294b883a 	add	r5,r5,r5
 4025694:	10bfffc4 	addi	r2,r2,-1
 4025698:	18c7883a 	add	r3,r3,r3
 402569c:	293ffa36 	bltu	r5,r4,4025688 <__flash_rwdata_start+0xffff2db4>
 40256a0:	18000826 	beq	r3,zero,40256c4 <__udivsi3+0x54>
 40256a4:	0005883a 	mov	r2,zero
 40256a8:	31400236 	bltu	r6,r5,40256b4 <__udivsi3+0x44>
 40256ac:	314dc83a 	sub	r6,r6,r5
 40256b0:	10c4b03a 	or	r2,r2,r3
 40256b4:	1806d07a 	srli	r3,r3,1
 40256b8:	280ad07a 	srli	r5,r5,1
 40256bc:	183ffa1e 	bne	r3,zero,40256a8 <__flash_rwdata_start+0xffff2dd4>
 40256c0:	f800283a 	ret
 40256c4:	0005883a 	mov	r2,zero
 40256c8:	f800283a 	ret
 40256cc:	00c00044 	movi	r3,1
 40256d0:	003ff406 	br	40256a4 <__flash_rwdata_start+0xffff2dd0>

040256d4 <__umodsi3>:
 40256d4:	2005883a 	mov	r2,r4
 40256d8:	2900122e 	bgeu	r5,r4,4025724 <__umodsi3+0x50>
 40256dc:	28001116 	blt	r5,zero,4025724 <__umodsi3+0x50>
 40256e0:	01800804 	movi	r6,32
 40256e4:	00c00044 	movi	r3,1
 40256e8:	00000206 	br	40256f4 <__umodsi3+0x20>
 40256ec:	30000c26 	beq	r6,zero,4025720 <__umodsi3+0x4c>
 40256f0:	28000516 	blt	r5,zero,4025708 <__umodsi3+0x34>
 40256f4:	294b883a 	add	r5,r5,r5
 40256f8:	31bfffc4 	addi	r6,r6,-1
 40256fc:	18c7883a 	add	r3,r3,r3
 4025700:	293ffa36 	bltu	r5,r4,40256ec <__flash_rwdata_start+0xffff2e18>
 4025704:	18000626 	beq	r3,zero,4025720 <__umodsi3+0x4c>
 4025708:	1806d07a 	srli	r3,r3,1
 402570c:	11400136 	bltu	r2,r5,4025714 <__umodsi3+0x40>
 4025710:	1145c83a 	sub	r2,r2,r5
 4025714:	280ad07a 	srli	r5,r5,1
 4025718:	183ffb1e 	bne	r3,zero,4025708 <__flash_rwdata_start+0xffff2e34>
 402571c:	f800283a 	ret
 4025720:	f800283a 	ret
 4025724:	00c00044 	movi	r3,1
 4025728:	003ff706 	br	4025708 <__flash_rwdata_start+0xffff2e34>

0402572c <__mulsi3>:
 402572c:	0005883a 	mov	r2,zero
 4025730:	20000726 	beq	r4,zero,4025750 <__mulsi3+0x24>
 4025734:	20c0004c 	andi	r3,r4,1
 4025738:	2008d07a 	srli	r4,r4,1
 402573c:	18000126 	beq	r3,zero,4025744 <__mulsi3+0x18>
 4025740:	1145883a 	add	r2,r2,r5
 4025744:	294b883a 	add	r5,r5,r5
 4025748:	203ffa1e 	bne	r4,zero,4025734 <__flash_rwdata_start+0xffff2e60>
 402574c:	f800283a 	ret
 4025750:	f800283a 	ret

04025754 <__errno>:
 4025754:	00800034 	movhi	r2,0
 4025758:	10877804 	addi	r2,r2,7648
 402575c:	10800017 	ldw	r2,0(r2)
 4025760:	f800283a 	ret

04025764 <_printf_r>:
 4025764:	defffd04 	addi	sp,sp,-12
 4025768:	2805883a 	mov	r2,r5
 402576c:	dfc00015 	stw	ra,0(sp)
 4025770:	d9800115 	stw	r6,4(sp)
 4025774:	d9c00215 	stw	r7,8(sp)
 4025778:	21400217 	ldw	r5,8(r4)
 402577c:	d9c00104 	addi	r7,sp,4
 4025780:	100d883a 	mov	r6,r2
 4025784:	40257d00 	call	40257d0 <___vfprintf_internal_r>
 4025788:	dfc00017 	ldw	ra,0(sp)
 402578c:	dec00304 	addi	sp,sp,12
 4025790:	f800283a 	ret

04025794 <printf>:
 4025794:	defffc04 	addi	sp,sp,-16
 4025798:	dfc00015 	stw	ra,0(sp)
 402579c:	d9400115 	stw	r5,4(sp)
 40257a0:	d9800215 	stw	r6,8(sp)
 40257a4:	d9c00315 	stw	r7,12(sp)
 40257a8:	00800034 	movhi	r2,0
 40257ac:	10877804 	addi	r2,r2,7648
 40257b0:	10800017 	ldw	r2,0(r2)
 40257b4:	200b883a 	mov	r5,r4
 40257b8:	d9800104 	addi	r6,sp,4
 40257bc:	11000217 	ldw	r4,8(r2)
 40257c0:	4027aac0 	call	4027aac <__vfprintf_internal>
 40257c4:	dfc00017 	ldw	ra,0(sp)
 40257c8:	dec00404 	addi	sp,sp,16
 40257cc:	f800283a 	ret

040257d0 <___vfprintf_internal_r>:
 40257d0:	deffb804 	addi	sp,sp,-288
 40257d4:	dfc04715 	stw	ra,284(sp)
 40257d8:	ddc04515 	stw	r23,276(sp)
 40257dc:	dd404315 	stw	r21,268(sp)
 40257e0:	d9002d15 	stw	r4,180(sp)
 40257e4:	282f883a 	mov	r23,r5
 40257e8:	302b883a 	mov	r21,r6
 40257ec:	d9c02e15 	stw	r7,184(sp)
 40257f0:	df004615 	stw	fp,280(sp)
 40257f4:	dd804415 	stw	r22,272(sp)
 40257f8:	dd004215 	stw	r20,264(sp)
 40257fc:	dcc04115 	stw	r19,260(sp)
 4025800:	dc804015 	stw	r18,256(sp)
 4025804:	dc403f15 	stw	r17,252(sp)
 4025808:	dc003e15 	stw	r16,248(sp)
 402580c:	402a2480 	call	402a248 <_localeconv_r>
 4025810:	10800017 	ldw	r2,0(r2)
 4025814:	1009883a 	mov	r4,r2
 4025818:	d8803415 	stw	r2,208(sp)
 402581c:	402c32c0 	call	402c32c <strlen>
 4025820:	d8803715 	stw	r2,220(sp)
 4025824:	d8802d17 	ldw	r2,180(sp)
 4025828:	10000226 	beq	r2,zero,4025834 <___vfprintf_internal_r+0x64>
 402582c:	10800e17 	ldw	r2,56(r2)
 4025830:	1000fb26 	beq	r2,zero,4025c20 <___vfprintf_internal_r+0x450>
 4025834:	b880030b 	ldhu	r2,12(r23)
 4025838:	10c8000c 	andi	r3,r2,8192
 402583c:	1800061e 	bne	r3,zero,4025858 <___vfprintf_internal_r+0x88>
 4025840:	b9001917 	ldw	r4,100(r23)
 4025844:	00f7ffc4 	movi	r3,-8193
 4025848:	10880014 	ori	r2,r2,8192
 402584c:	20c6703a 	and	r3,r4,r3
 4025850:	b880030d 	sth	r2,12(r23)
 4025854:	b8c01915 	stw	r3,100(r23)
 4025858:	10c0020c 	andi	r3,r2,8
 402585c:	1800c326 	beq	r3,zero,4025b6c <___vfprintf_internal_r+0x39c>
 4025860:	b8c00417 	ldw	r3,16(r23)
 4025864:	1800c126 	beq	r3,zero,4025b6c <___vfprintf_internal_r+0x39c>
 4025868:	1080068c 	andi	r2,r2,26
 402586c:	00c00284 	movi	r3,10
 4025870:	10c0c626 	beq	r2,r3,4025b8c <___vfprintf_internal_r+0x3bc>
 4025874:	d8c00404 	addi	r3,sp,16
 4025878:	05000034 	movhi	r20,0
 402587c:	d9001e04 	addi	r4,sp,120
 4025880:	a5005f84 	addi	r20,r20,382
 4025884:	d8c01e15 	stw	r3,120(sp)
 4025888:	d8002015 	stw	zero,128(sp)
 402588c:	d8001f15 	stw	zero,124(sp)
 4025890:	d8003315 	stw	zero,204(sp)
 4025894:	d8003615 	stw	zero,216(sp)
 4025898:	d8003815 	stw	zero,224(sp)
 402589c:	1811883a 	mov	r8,r3
 40258a0:	d8003915 	stw	zero,228(sp)
 40258a4:	d8003a15 	stw	zero,232(sp)
 40258a8:	d8002f15 	stw	zero,188(sp)
 40258ac:	d9002815 	stw	r4,160(sp)
 40258b0:	a8800007 	ldb	r2,0(r21)
 40258b4:	10028b26 	beq	r2,zero,40262e4 <___vfprintf_internal_r+0xb14>
 40258b8:	00c00944 	movi	r3,37
 40258bc:	a823883a 	mov	r17,r21
 40258c0:	10c0021e 	bne	r2,r3,40258cc <___vfprintf_internal_r+0xfc>
 40258c4:	00001406 	br	4025918 <___vfprintf_internal_r+0x148>
 40258c8:	10c00326 	beq	r2,r3,40258d8 <___vfprintf_internal_r+0x108>
 40258cc:	8c400044 	addi	r17,r17,1
 40258d0:	88800007 	ldb	r2,0(r17)
 40258d4:	103ffc1e 	bne	r2,zero,40258c8 <__flash_rwdata_start+0xffff2ff4>
 40258d8:	8d61c83a 	sub	r16,r17,r21
 40258dc:	80000e26 	beq	r16,zero,4025918 <___vfprintf_internal_r+0x148>
 40258e0:	d8c02017 	ldw	r3,128(sp)
 40258e4:	d8801f17 	ldw	r2,124(sp)
 40258e8:	45400015 	stw	r21,0(r8)
 40258ec:	1c07883a 	add	r3,r3,r16
 40258f0:	10800044 	addi	r2,r2,1
 40258f4:	d8c02015 	stw	r3,128(sp)
 40258f8:	44000115 	stw	r16,4(r8)
